	.section	__TEXT,__text,regular,pure_instructions
	.section	__TEXT,__const
	.p2align	5                               ## -- Begin function cost_model
LCPI0_0:
	.quad	32                              ## 0x20
	.quad	256                             ## 0x100
	.quad	512                             ## 0x200
	.quad	2                               ## 0x2
LCPI0_2:
	.quad	-9223372036854775804            ## 0x8000000000000004
	.quad	64                              ## 0x40
	.quad	128                             ## 0x80
	.quad	16                              ## 0x10
LCPI0_4:
	.long	0                               ## 0x0
	.long	32                              ## 0x20
	.long	1                               ## 0x1
	.long	0                               ## 0x0
	.long	0                               ## 0x0
	.long	32                              ## 0x20
	.long	32                              ## 0x20
	.long	0                               ## 0x0
LCPI0_9:
	.long	0                               ## 0x0
	.long	24                              ## 0x18
	.long	1                               ## 0x1
	.long	0                               ## 0x0
	.long	0                               ## 0x0
	.long	39                              ## 0x27
	.long	24                              ## 0x18
	.long	0                               ## 0x0
LCPI0_12:
	.quad	16777216                        ## 0x1000000
	.quad	1073741824                      ## 0x40000000
	.quad	4294967296                      ## 0x100000000
	.quad	0                               ## 0x0
LCPI0_13:
	.quad	0                               ## 0x0
	.quad	0                               ## 0x0
	.quad	0                               ## 0x0
	.quad	256                             ## 0x100
LCPI0_14:
	.quad	68719476736                     ## 0x1000000000
	.quad	274877906944                    ## 0x4000000000
	.quad	0                               ## 0x0
	.quad	0                               ## 0x0
LCPI0_15:
	.quad	0                               ## 0x0
	.quad	0                               ## 0x0
	.quad	4096                            ## 0x1000
	.quad	8192                            ## 0x2000
LCPI0_16:
	.quad	67108864                        ## 0x4000000
	.quad	0                               ## 0x0
	.quad	0                               ## 0x0
	.quad	268435456                       ## 0x10000000
LCPI0_17:
	.quad	0                               ## 0x0
	.quad	64                              ## 0x40
	.quad	128                             ## 0x80
	.quad	0                               ## 0x0
LCPI0_18:
	.quad	0                               ## 0x0
	.quad	0                               ## 0x0
	.quad	4194304                         ## 0x400000
	.quad	0                               ## 0x0
LCPI0_19:
	.quad	576460752303423488              ## 0x800000000000000
	.quad	144115188075855872              ## 0x200000000000000
	.quad	0                               ## 0x0
	.quad	1152921504606846976             ## 0x1000000000000000
LCPI0_21:
	.quad	0                               ## 0x0
	.quad	4                               ## 0x4
	.quad	8                               ## 0x8
	.quad	288230376151711744              ## 0x400000000000000
LCPI0_22:
	.quad	2305843009213693952             ## 0x2000000000000000
	.quad	16                              ## 0x10
	.quad	32                              ## 0x20
	.quad	4611686018427387904             ## 0x4000000000000000
LCPI0_23:
	.quad	2                               ## 0x2
	.quad	36028797018963968               ## 0x80000000000000
	.quad	72057594037927936               ## 0x100000000000000
	.quad	18014398509481984               ## 0x40000000000000
LCPI0_24:
	.quad	0                               ## 0x0
	.quad	17179869184                     ## 0x400000000
	.quad	0                               ## 0x0
	.quad	0                               ## 0x0
LCPI0_25:
	.quad	512                             ## 0x200
	.quad	0                               ## 0x0
	.quad	1024                            ## 0x400
	.quad	2048                            ## 0x800
LCPI0_26:
	.long	8                               ## 0x8
	.long	0                               ## 0x0
	.long	8                               ## 0x8
	.long	1                               ## 0x1
	.long	0                               ## 0x0
	.long	40                              ## 0x28
	.long	0                               ## 0x0
	.long	7                               ## 0x7
LCPI0_27:
	.long	0                               ## 0x0
	.long	24                              ## 0x18
	.long	1                               ## 0x1
	.long	0                               ## 0x0
	.long	24                              ## 0x18
	.long	1                               ## 0x1
	.long	0                               ## 0x0
	.long	39                              ## 0x27
LCPI0_28:
	.quad	1024                            ## 0x400
	.quad	2048                            ## 0x800
	.quad	512                             ## 0x200
	.quad	8192                            ## 0x2000
LCPI0_29:
	.quad	2                               ## 0x2
	.quad	8                               ## 0x8
	.quad	16                              ## 0x10
	.quad	4                               ## 0x4
LCPI0_30:
	.quad	16384                           ## 0x4000
	.quad	4096                            ## 0x1000
	.quad	32768                           ## 0x8000
	.quad	65536                           ## 0x10000
LCPI0_31:
	.quad	32                              ## 0x20
	.quad	64                              ## 0x40
	.quad	128                             ## 0x80
	.quad	256                             ## 0x100
LCPI0_32:
	.quad	32                              ## 0x20
	.quad	256                             ## 0x100
	.quad	8589934592                      ## 0x200000000
	.quad	128                             ## 0x80
LCPI0_33:
	.quad	2                               ## 0x2
	.quad	536870912                       ## 0x20000000
	.quad	4                               ## 0x4
	.quad	1073741824                      ## 0x40000000
LCPI0_34:
	.quad	2147483648                      ## 0x80000000
	.quad	8                               ## 0x8
	.quad	4294967296                      ## 0x100000000
	.quad	64                              ## 0x40
LCPI0_35:
	.quad	-9223372036821221376            ## 0x8000000002000000
	.quad	67108864                        ## 0x4000000
	.quad	134217728                       ## 0x8000000
	.quad	268435456                       ## 0x10000000
LCPI0_58:
	.quad	4                               ## 0x4
	.quad	5                               ## 0x5
	.quad	6                               ## 0x6
	.quad	7                               ## 0x7
LCPI0_59:
	.quad	0                               ## 0x0
	.quad	1                               ## 0x1
	.quad	2                               ## 0x2
	.quad	3                               ## 0x3
	.section	__TEXT,__literal16,16byte_literals
	.p2align	4
LCPI0_1:
	.quad	-9223372036854775808            ## 0x8000000000000000
	.quad	0                               ## 0x0
LCPI0_3:
	.long	0                               ## 0x0
	.long	32                              ## 0x20
	.long	1                               ## 0x1
	.long	0                               ## 0x0
LCPI0_5:
	.long	0                               ## 0x0
	.long	8                               ## 0x8
	.long	1                               ## 0x1
	.long	0                               ## 0x0
LCPI0_6:
	.long	0                               ## 0x0
	.long	40                              ## 0x28
	.long	8                               ## 0x8
	.long	0                               ## 0x0
LCPI0_7:
	.long	0                               ## 0x0
	.long	7                               ## 0x7
	.long	320                             ## 0x140
	.long	0                               ## 0x0
LCPI0_8:
	.long	0                               ## 0x0
	.long	24                              ## 0x18
	.long	1                               ## 0x1
	.long	0                               ## 0x0
LCPI0_10:
	.long	0                               ## 0x0
	.long	40                              ## 0x28
	.long	1                               ## 0x1
	.long	0                               ## 0x0
LCPI0_11:
	.long	0                               ## 0x0
	.long	7                               ## 0x7
	.long	40                              ## 0x28
	.long	0                               ## 0x0
LCPI0_20:
	.long	1048576                         ## 0x100000
	.long	0                               ## 0x0
	.long	0                               ## 0x0
	.long	0                               ## 0x0
	.section	__TEXT,__literal4,4byte_literals
	.p2align	2
LCPI0_36:
	.long	0xbfb8aa3b                      ## float -1.44269502
LCPI0_37:
	.long	0x3f317200                      ## float 0.693145751
LCPI0_38:
	.long	0x35bfbe8e                      ## float 1.42860677E-6
LCPI0_39:
	.long	4294967169                      ## 0xffffff81
LCPI0_40:
	.long	128                             ## 0x80
LCPI0_41:
	.long	0xb9a797f3                      ## float -3.19659332E-4
LCPI0_42:
	.long	0xbc0b192a                      ## float -0.00848988629
LCPI0_43:
	.long	0xbe2aae1f                      ## float -0.166679844
LCPI0_44:
	.long	0xbf800000                      ## float -1
LCPI0_45:
	.long	0x3f800000                      ## float 1
LCPI0_46:
	.long	0x3a9c2e66                      ## float 0.00119156833
LCPI0_47:
	.long	0x3d2a66bc                      ## float 0.0416018814
LCPI0_48:
	.long	0x3effffde                      ## float 0.499998987
LCPI0_49:
	.long	2155872255                      ## 0x807fffff
LCPI0_50:
	.long	0x3f317218                      ## float 0.693147182
LCPI0_51:
	.long	0x3d9c7946                      ## float 0.0764031857
LCPI0_52:
	.long	0x3e5333c6                      ## float 0.206252187
LCPI0_53:
	.long	0x3eaa99cd                      ## float 0.333204657
LCPI0_54:
	.long	0x3e266e2a                      ## float 0.162529618
LCPI0_55:
	.long	0xbe809085                      ## float -0.251102597
LCPI0_56:
	.long	0xbefffcbe                      ## float -0.499975145
LCPI0_57:
	.long	0xbe266e2a                      ## float -0.162529618
LCPI0_63:
	.long	0x45800000                      ## float 4096
LCPI0_64:
	.long	0x40000000                      ## float 2
LCPI0_65:
	.long	0x3089705f                      ## float 9.99999971E-10
	.section	__TEXT,__literal8,8byte_literals
	.p2align	3
LCPI0_60:
	.quad	8                               ## 0x8
LCPI0_61:
	.quad	16                              ## 0x10
LCPI0_62:
	.quad	24                              ## 0x18
LCPI0_66:
	.quad	32                              ## 0x20
	.section	__TEXT,__text,regular,pure_instructions
	.globl	_cost_model
	.p2align	4, 0x90
_cost_model:                            ## @cost_model
	.cfi_startproc
## %bb.0:                               ## %entry
	pushq	%rbp
	.cfi_def_cfa_offset 16
	.cfi_offset %rbp, -16
	movq	%rsp, %rbp
	.cfi_def_cfa_register %rbp
	pushq	%r15
	pushq	%r14
	pushq	%r13
	pushq	%r12
	pushq	%rbx
	andq	$-32, %rsp
	subq	$12160, %rsp                    ## imm = 0x2F80
	.cfi_offset %rbx, -56
	.cfi_offset %r12, -48
	.cfi_offset %r13, -40
	.cfi_offset %r14, -32
	.cfi_offset %r15, -24
	movq	%rcx, %r14
	movl	%edx, 1112(%rsp)                ## 4-byte Spill
                                        ## kill: def $esi killed $esi def $rsi
	movq	%rsi, 1504(%rsp)                ## 8-byte Spill
                                        ## kill: def $edi killed $edi def $rdi
	movq	%rdi, 192(%rsp)                 ## 8-byte Spill
	movq	48(%rbp), %rdx
	xorl	%ecx, %ecx
	movq	%r8, 3008(%rsp)                 ## 8-byte Spill
	testq	%r8, %r8
	sete	%cl
	xorl	%eax, %eax
	cmpq	$0, 88(%rbp)
	sete	%al
	shlq	$3, %rax
	orq	%rcx, %rax
	vmovdqa	32(%rbp), %xmm0
	vmovq	80(%rbp), %xmm1                 ## xmm1 = mem[0],zero
	vmovq	%rdx, %xmm2
	vpunpcklqdq	%xmm1, %xmm2, %xmm1     ## xmm1 = xmm2[0],xmm1[0]
	vinserti128	$1, %xmm1, %ymm0, %ymm0
	vmovq	%r9, %xmm1
	vmovq	%r14, %xmm2
	vpunpcklqdq	%xmm1, %xmm2, %xmm1     ## xmm1 = xmm2[0],xmm1[0]
	vinserti128	$1, 16(%rbp), %ymm1, %ymm1
	vpxor	%xmm2, %xmm2, %xmm2
	vpcmpeqq	%ymm2, %ymm0, %ymm0
	vpcmpeqq	%ymm2, %ymm1, %ymm1
	vpand	LCPI0_0(%rip), %ymm0, %ymm0
	vmovapd	LCPI0_1(%rip), %xmm2            ## xmm2 = [9223372036854775808,0]
	vblendvpd	%ymm1, LCPI0_2(%rip), %ymm2, %ymm1
	vorpd	%ymm0, %ymm1, %ymm0
	vextractf128	$1, %ymm0, %xmm1
	vorpd	%xmm1, %xmm0, %xmm0
	vpermilps	$238, %xmm0, %xmm1      ## xmm1 = xmm0[2,3,2,3]
	vorpd	%xmm1, %xmm0, %xmm0
	vmovq	%xmm0, %rcx
	orq	%rax, %rcx
	xorl	%eax, %eax
	tzcntq	%rcx, %rax
	cmpl	$9, %eax
	jbe	LBB0_157
## %bb.1:                               ## %no_errors_bb
	movq	%r9, %r13
	movq	40(%rbp), %r15
	movq	16(%rbp), %r12
	movq	16(%rdx), %rax
	movq	%rax, 80(%rsp)                  ## 8-byte Spill
	leaq	32(%rdx), %rsi
	movq	%rdx, %rbx
	leaq	28(%rsp), %rdi
	movl	$4, %edx
	vzeroupper
	callq	_memcpy
	movl	28(%rsp), %eax
	movl	%eax, 688(%rsp)                 ## 4-byte Spill
	movq	24(%rbx), %rax
	movq	%rax, 912(%rsp)                 ## 8-byte Spill
	movl	36(%rbx), %eax
	movl	%eax, 200(%rsp)                 ## 4-byte Spill
	movq	40(%rbx), %rax
	movl	(%rax), %ecx
	movq	%rcx, 400(%rsp)                 ## 8-byte Spill
	movl	4(%rax), %ecx
	movq	%rcx, 464(%rsp)                 ## 8-byte Spill
	movl	8(%rax), %eax
	movl	%eax, 800(%rsp)                 ## 4-byte Spill
	movq	16(%r15), %rax
	movq	%rax, 728(%rsp)                 ## 8-byte Spill
	leaq	32(%r15), %rsi
	leaq	28(%rsp), %rdi
	movl	$4, %edx
	callq	_memcpy
	movl	28(%rsp), %eax
	movl	%eax, 784(%rsp)                 ## 4-byte Spill
	movq	24(%r15), %rax
	movq	%rax, 896(%rsp)                 ## 8-byte Spill
	movl	36(%r15), %eax
	movl	%eax, 768(%rsp)                 ## 4-byte Spill
	movq	40(%r15), %rax
	movl	(%rax), %ecx
	movq	%rcx, 656(%rsp)                 ## 8-byte Spill
	movl	4(%rax), %ecx
	movq	%rcx, 432(%rsp)                 ## 8-byte Spill
	movl	8(%rax), %ecx
	movl	%ecx, 1200(%rsp)                ## 4-byte Spill
	movl	16(%rax), %ecx
	movq	%rcx, 448(%rsp)                 ## 8-byte Spill
	movl	20(%rax), %ecx
	movq	%rcx, 416(%rsp)                 ## 8-byte Spill
	movl	24(%rax), %eax
	movl	%eax, 1128(%rsp)                ## 4-byte Spill
	movq	16(%r12), %r15
	leaq	32(%r12), %rsi
	leaq	28(%rsp), %rdi
	movl	$4, %edx
	callq	_memcpy
	movl	28(%rsp), %eax
	movl	%eax, 2208(%rsp)                ## 4-byte Spill
	movq	24(%r12), %rax
	movq	%rax, 880(%rsp)                 ## 8-byte Spill
	movl	36(%r12), %eax
	movl	%eax, 1632(%rsp)                ## 4-byte Spill
	movq	40(%r12), %rax
	movl	(%rax), %ecx
	movq	%rcx, 144(%rsp)                 ## 8-byte Spill
	movl	4(%rax), %ecx
	movq	%rcx, 176(%rsp)                 ## 8-byte Spill
	movl	8(%rax), %eax
	movl	%eax, 2176(%rsp)                ## 4-byte Spill
	movq	16(%r13), %rax
	movq	%rax, 352(%rsp)                 ## 8-byte Spill
	leaq	32(%r13), %rsi
	leaq	28(%rsp), %rdi
	movl	$4, %edx
	callq	_memcpy
	movl	28(%rsp), %eax
	movl	%eax, 2144(%rsp)                ## 4-byte Spill
	movq	24(%r13), %rax
	movq	%rax, 864(%rsp)                 ## 8-byte Spill
	movl	36(%r13), %eax
	movl	%eax, 2112(%rsp)                ## 4-byte Spill
	movq	%r13, 216(%rsp)                 ## 8-byte Spill
	movq	40(%r13), %rax
	movl	(%rax), %ecx
	movq	%rcx, 160(%rsp)                 ## 8-byte Spill
	movl	4(%rax), %r13d
	movl	8(%rax), %ecx
	movl	%ecx, 1344(%rsp)                ## 4-byte Spill
	movl	16(%rax), %ecx
	movq	%rcx, 224(%rsp)                 ## 8-byte Spill
	movl	20(%rax), %ecx
	movq	%rcx, 288(%rsp)                 ## 8-byte Spill
	movslq	24(%rax), %rbx
	movl	32(%rax), %ecx
	movq	%rcx, 304(%rsp)                 ## 8-byte Spill
	movl	36(%rax), %ecx
	movq	%rcx, 736(%rsp)                 ## 8-byte Spill
	movslq	40(%rax), %rax
	movq	%rax, 336(%rsp)                 ## 8-byte Spill
	movq	32(%rbp), %r12
	movq	16(%r12), %rax
	movq	%rax, 1264(%rsp)                ## 8-byte Spill
	leaq	32(%r12), %rsi
	leaq	28(%rsp), %rdi
	movl	$4, %edx
	callq	_memcpy
	movl	28(%rsp), %eax
	movl	%eax, 1600(%rsp)                ## 4-byte Spill
	movq	24(%r12), %rax
	movq	%rax, 848(%rsp)                 ## 8-byte Spill
	movl	36(%r12), %eax
	movl	%eax, 1568(%rsp)                ## 4-byte Spill
	movq	40(%r12), %rax
	movl	(%rax), %ecx
	movq	%rcx, 64(%rsp)                  ## 8-byte Spill
	movl	4(%rax), %ecx
	movq	%rcx, 56(%rsp)                  ## 8-byte Spill
	movl	8(%rax), %eax
	movl	%eax, 208(%rsp)                 ## 4-byte Spill
	movq	24(%rbp), %r12
	movq	16(%r12), %rax
	movq	%rax, 1144(%rsp)                ## 8-byte Spill
	leaq	32(%r12), %rsi
	leaq	28(%rsp), %rdi
	movl	$4, %edx
	callq	_memcpy
	movl	28(%rsp), %eax
	movl	%eax, 1184(%rsp)                ## 4-byte Spill
	movq	24(%r12), %rax
	movq	%rax, 832(%rsp)                 ## 8-byte Spill
	movl	36(%r12), %eax
	movl	%eax, 1824(%rsp)                ## 4-byte Spill
	movq	40(%r12), %rax
	movl	(%rax), %ecx
	movq	%rcx, 48(%rsp)                  ## 8-byte Spill
	movl	4(%rax), %ecx
	movq	%rcx, 384(%rsp)                 ## 8-byte Spill
	movl	8(%rax), %ecx
	movl	%ecx, 672(%rsp)                 ## 4-byte Spill
	movl	16(%rax), %ecx
	movq	%rcx, 320(%rsp)                 ## 8-byte Spill
	movl	20(%rax), %ecx
	movq	%rcx, 1152(%rsp)                ## 8-byte Spill
	movl	24(%rax), %eax
	movl	%eax, 1120(%rsp)                ## 4-byte Spill
	movq	88(%rbp), %r12
	movq	16(%r12), %rax
	movq	%rax, 1408(%rsp)                ## 8-byte Spill
	leaq	32(%r12), %rsi
	leaq	28(%rsp), %rdi
	movl	$4, %edx
	callq	_memcpy
	movl	28(%rsp), %eax
	movl	%eax, 1792(%rsp)                ## 4-byte Spill
	movq	24(%r12), %rax
	movq	%rax, 1328(%rsp)                ## 8-byte Spill
	movl	36(%r12), %eax
	movl	%eax, 1760(%rsp)                ## 4-byte Spill
	movq	16(%r14), %rax
	movq	%rax, 2400(%rsp)                ## 8-byte Spill
	leaq	32(%r14), %rsi
	leaq	28(%rsp), %rdi
	movl	$4, %edx
	callq	_memcpy
	movl	28(%rsp), %eax
	movl	%eax, 1728(%rsp)                ## 4-byte Spill
	movq	24(%r14), %rax
	movq	%rax, 1696(%rsp)                ## 8-byte Spill
	movl	36(%r14), %eax
	movl	%eax, 536(%rsp)                 ## 4-byte Spill
	movq	%r14, 120(%rsp)                 ## 8-byte Spill
	movq	40(%r14), %rax
	movl	(%rax), %ecx
	movq	%rcx, 2560(%rsp)                ## 8-byte Spill
	movl	4(%rax), %ecx
	movq	%rcx, 256(%rsp)                 ## 8-byte Spill
	movl	8(%rax), %ecx
	movl	%ecx, 1664(%rsp)                ## 4-byte Spill
	movl	16(%rax), %ecx
	movq	%rcx, 40(%rsp)                  ## 8-byte Spill
	movl	20(%rax), %ecx
	movq	%rcx, 112(%rsp)                 ## 8-byte Spill
	movslq	24(%rax), %rcx
	movq	%rcx, 72(%rsp)                  ## 8-byte Spill
	movl	32(%rax), %ecx
	movq	%rcx, 2528(%rsp)                ## 8-byte Spill
	movl	36(%rax), %ecx
	movq	%rcx, 480(%rsp)                 ## 8-byte Spill
	movslq	40(%rax), %rax
	movq	%rax, 2368(%rsp)                ## 8-byte Spill
	movq	80(%rbp), %r12
	movq	16(%r12), %rax
	movq	%rax, 1256(%rsp)                ## 8-byte Spill
	leaq	32(%r12), %rsi
	leaq	28(%rsp), %rdi
	movl	$4, %edx
	callq	_memcpy
	movl	28(%rsp), %eax
	movl	%eax, 528(%rsp)                 ## 4-byte Spill
	movq	24(%r12), %r14
	movl	36(%r12), %eax
	movl	%eax, 520(%rsp)                 ## 4-byte Spill
	movq	40(%r12), %rax
	movl	(%rax), %ecx
	movq	%rcx, 616(%rsp)                 ## 8-byte Spill
	movl	4(%rax), %ecx
	movq	%rcx, 240(%rsp)                 ## 8-byte Spill
	movl	8(%rax), %eax
	movl	%eax, 2080(%rsp)                ## 4-byte Spill
	movq	3008(%rsp), %r12                ## 8-byte Reload
	movq	16(%r12), %rax
	movq	%rax, 712(%rsp)                 ## 8-byte Spill
	leaq	32(%r12), %rsi
	leaq	28(%rsp), %rdi
	movl	$4, %edx
	callq	_memcpy
	movl	28(%rsp), %eax
	movl	%eax, 1312(%rsp)                ## 4-byte Spill
	movq	24(%r12), %rsi
	movq	40(%r12), %rax
	movl	(%rax), %ecx
	movq	%rcx, 624(%rsp)                 ## 8-byte Spill
	movl	4(%rax), %ecx
	movq	%rcx, 1216(%rsp)                ## 8-byte Spill
	movl	8(%rax), %r11d
	movl	16(%rax), %ecx
	movq	%rcx, 2336(%rsp)                ## 8-byte Spill
	movl	20(%rax), %ecx
	movq	%rcx, 128(%rsp)                 ## 8-byte Spill
	movl	24(%rax), %r8d
	movl	32(%rax), %ecx
	movq	%rcx, 504(%rsp)                 ## 8-byte Spill
	movl	36(%rax), %ecx
	movq	%rcx, 104(%rsp)                 ## 8-byte Spill
	movl	40(%rax), %eax
	movl	%eax, 140(%rsp)                 ## 4-byte Spill
	cmpl	$-16, %r13d
	movl	$-16, %edx
	cmovgl	%r13d, %edx
	movl	%r13d, %r9d
	sarl	$31, %r9d
	movq	%r13, 32(%rsp)                  ## 8-byte Spill
	andl	%r13d, %r9d
	movl	36(%r12), %edi
	movq	40(%rbp), %rax
	movq	16(%rax), %rax
	testq	%rax, %rax
	movq	%rdx, 640(%rsp)                 ## 8-byte Spill
	jne	LBB0_4
## %bb.2:                               ## %_halide_buffer_is_bounds_query.exit
	cmpl	$0, 32(%rsp)                    ## 4-byte Folded Reload
	setns	%cl
	cmpl	$9, %edx
	setl	%dl
	testb	%cl, %dl
	movq	640(%rsp), %rcx                 ## 8-byte Reload
	jne	LBB0_4
## %bb.3:                               ## %_halide_buffer_is_bounds_query.exit
	movq	40(%rbp), %rdx
	cmpq	$0, (%rdx)
	je	LBB0_170
LBB0_4:                                 ## %"assert succeeded"
	movl	%edi, 1296(%rsp)                ## 4-byte Spill
	movq	%r14, 816(%rsp)                 ## 8-byte Spill
	movq	%rsi, 544(%rsp)                 ## 8-byte Spill
	movq	48(%rbp), %rdi
	cmpq	$0, 16(%rdi)
	je	LBB0_6
## %bb.5:
	movq	80(%rbp), %r10
	movq	24(%rbp), %rdx
	movq	32(%rbp), %r14
	movl	%r11d, 2048(%rsp)               ## 4-byte Spill
	testq	%rax, %rax
	movq	216(%rsp), %rax                 ## 8-byte Reload
	jne	LBB0_11
	jmp	LBB0_8
LBB0_6:                                 ## %_halide_buffer_is_bounds_query.exit279
	cmpq	$0, (%rdi)
	movq	80(%rbp), %r10
	movq	24(%rbp), %rdx
	movq	32(%rbp), %r14
	je	LBB0_10
## %bb.7:                               ## %after_bb
	movl	%r11d, 2048(%rsp)               ## 4-byte Spill
	testq	%rax, %rax
	movq	216(%rsp), %rax                 ## 8-byte Reload
	jne	LBB0_11
LBB0_8:                                 ## %_halide_buffer_is_bounds_query.exit283
	movq	40(%rbp), %rcx
	cmpq	$0, (%rcx)
	jne	LBB0_11
## %bb.9:                               ## %_halide_buffer_init.exit285
	vmovaps	LCPI0_4(%rip), %ymm0            ## ymm0 = [0,32,1,0,0,32,32,0]
	vmovups	%ymm0, 3072(%rsp)
	movq	40(%rbp), %rsi
	movq	40(%rsi), %r13
	vxorps	%xmm0, %xmm0, %xmm0
	vmovups	%xmm0, (%rsi)
	movq	$0, 16(%rsi)
	movabsq	$8590008322, %rcx               ## imm = 0x200012002
	movq	%rcx, 32(%rsi)
	vmovaps	3072(%rsp), %xmm0
	vmovups	%xmm0, (%r13)
	movq	40(%rsi), %rcx
	vmovapd	3088(%rsp), %xmm0
	vmovupd	%xmm0, 16(%rcx)
	movq	$0, 24(%rsi)
	jmp	LBB0_11
LBB0_10:                                ## %then_bb
	movq	40(%rdi), %rax
	vxorpd	%xmm0, %xmm0, %xmm0
	vmovupd	%xmm0, (%rdi)
	movq	$0, 16(%rdi)
	movabsq	$4295041026, %rcx               ## imm = 0x100012002
	movq	%rcx, 32(%rdi)
	vmovapd	LCPI0_3(%rip), %xmm0            ## xmm0 = [0,32,1,0]
	vmovupd	%xmm0, (%rax)
	movq	$0, 24(%rdi)
	movq	40(%rbp), %rax
	movq	16(%rax), %rax
	movl	%r11d, 2048(%rsp)               ## 4-byte Spill
	testq	%rax, %rax
	movq	216(%rsp), %rax                 ## 8-byte Reload
	je	LBB0_8
LBB0_11:                                ## %after_bb10
	movq	16(%rbp), %r11
	cmpq	$0, 16(%r11)
	jne	LBB0_13
## %bb.12:                              ## %_halide_buffer_is_bounds_query.exit284
	cmpq	$0, (%r11)
	je	LBB0_16
LBB0_13:                                ## %after_bb13
	cmpq	$0, 16(%rax)
	jne	LBB0_17
LBB0_14:                                ## %_halide_buffer_is_bounds_query.exit286
	cmpq	$0, (%rax)
	jne	LBB0_17
## %bb.15:                              ## %then_bb17
	movq	40(%rax), %r13
	vxorpd	%xmm0, %xmm0, %xmm0
	vmovupd	%xmm0, (%rax)
	movq	$0, 16(%rax)
	movabsq	$12884975618, %rcx              ## imm = 0x300012002
	movq	%rcx, 32(%rax)
	vmovaps	LCPI0_5(%rip), %xmm0            ## xmm0 = [0,8,1,0]
	vmovups	%xmm0, (%r13)
	movq	40(%rax), %rcx
	vmovaps	LCPI0_6(%rip), %xmm0            ## xmm0 = [0,40,8,0]
	vmovups	%xmm0, 16(%rcx)
	movq	40(%rax), %rcx
	vmovapd	LCPI0_7(%rip), %xmm0            ## xmm0 = [0,7,320,0]
	vmovupd	%xmm0, 32(%rcx)
	movq	$0, 24(%rax)
	jmp	LBB0_17
LBB0_16:                                ## %then_bb14
	movq	40(%r11), %r13
	vxorpd	%xmm0, %xmm0, %xmm0
	vmovupd	%xmm0, (%r11)
	movq	$0, 16(%r11)
	movabsq	$4295041026, %rcx               ## imm = 0x100012002
	movq	%rcx, 32(%r11)
	vmovapd	LCPI0_5(%rip), %xmm0            ## xmm0 = [0,8,1,0]
	vmovupd	%xmm0, (%r13)
	movq	$0, 24(%r11)
	cmpq	$0, 16(%rax)
	je	LBB0_14
LBB0_17:                                ## %after_bb16
	cmpq	$0, 16(%r14)
	movq	120(%rsp), %rsi                 ## 8-byte Reload
	movq	%r8, %r11
	jne	LBB0_19
## %bb.18:                              ## %_halide_buffer_is_bounds_query.exit288
	cmpq	$0, (%r14)
	je	LBB0_22
LBB0_19:                                ## %after_bb19
	cmpq	$0, 16(%rdx)
	jne	LBB0_23
LBB0_20:                                ## %_halide_buffer_is_bounds_query.exit291
	cmpq	$0, (%rdx)
	jne	LBB0_23
## %bb.21:                              ## %_halide_buffer_init.exit295
	vmovaps	LCPI0_9(%rip), %ymm0            ## ymm0 = [0,24,1,0,0,39,24,0]
	vmovups	%ymm0, 3104(%rsp)
	movq	40(%rdx), %rax
	vxorps	%xmm0, %xmm0, %xmm0
	vmovups	%xmm0, (%rdx)
	movq	$0, 16(%rdx)
	movabsq	$8590008322, %rcx               ## imm = 0x200012002
	movq	%rcx, 32(%rdx)
	vmovaps	3104(%rsp), %xmm0
	vmovups	%xmm0, (%rax)
	movq	40(%rdx), %rax
	vmovapd	3120(%rsp), %xmm0
	vmovupd	%xmm0, 16(%rax)
	movq	$0, 24(%rdx)
	jmp	LBB0_23
LBB0_22:                                ## %then_bb20
	movq	40(%r14), %rax
	vxorpd	%xmm0, %xmm0, %xmm0
	vmovupd	%xmm0, (%r14)
	movq	$0, 16(%r14)
	movabsq	$4295041026, %rcx               ## imm = 0x100012002
	movq	%rcx, 32(%r14)
	vmovapd	LCPI0_8(%rip), %xmm0            ## xmm0 = [0,24,1,0]
	vmovupd	%xmm0, (%rax)
	movq	$0, 24(%r14)
	cmpq	$0, 16(%rdx)
	je	LBB0_20
LBB0_23:                                ## %after_bb22
	movq	88(%rbp), %rax
	cmpq	$0, 16(%rax)
	jne	LBB0_25
## %bb.24:                              ## %_halide_buffer_is_bounds_query.exit293
	cmpq	$0, (%rax)
	je	LBB0_28
LBB0_25:                                ## %after_bb25
	cmpq	$0, 16(%rsi)
	jne	LBB0_29
LBB0_26:                                ## %_halide_buffer_is_bounds_query.exit296
	cmpq	$0, (%rsi)
	jne	LBB0_29
## %bb.27:                              ## %then_bb29
	movq	40(%rsi), %rax
	vxorpd	%xmm0, %xmm0, %xmm0
	vmovupd	%xmm0, (%rsi)
	movq	$0, 16(%rsi)
	movabsq	$12884975618, %rcx              ## imm = 0x300012002
	movq	%rcx, 32(%rsi)
	vmovaps	LCPI0_10(%rip), %xmm0           ## xmm0 = [0,40,1,0]
	vmovups	%xmm0, (%rax)
	movq	40(%rsi), %rax
	vmovapd	LCPI0_11(%rip), %xmm0           ## xmm0 = [0,7,40,0]
	vmovupd	%xmm0, 16(%rax)
	movq	40(%rsi), %rax
	movl	$0, 32(%rax)
	movq	192(%rsp), %rcx                 ## 8-byte Reload
	movl	%ecx, 36(%rax)
	movq	$280, 40(%rax)                  ## imm = 0x118
	movq	88(%rbp), %rax
	movq	$0, 24(%rsi)
	jmp	LBB0_29
LBB0_28:                                ## %then_bb26
	vxorpd	%xmm0, %xmm0, %xmm0
	vmovupd	%xmm0, 16(%rax)
	vmovupd	%xmm0, (%rax)
	movq	$73730, 32(%rax)                ## imm = 0x12002
	cmpq	$0, 16(%rsi)
	je	LBB0_26
LBB0_29:                                ## %after_bb28
	cmpq	$0, 16(%r10)
	jne	LBB0_31
## %bb.30:                              ## %_halide_buffer_is_bounds_query.exit297
	cmpq	$0, (%r10)
	je	LBB0_33
LBB0_31:                                ## %after_bb31
	cmpq	$0, 16(%r12)
	je	LBB0_34
LBB0_32:
	xorl	%r8d, %r8d
	cmpq	$0, 16(%r10)
	je	LBB0_46
LBB0_36:
	xorl	%r13d, %r13d
	movl	%r9d, 632(%rsp)                 ## 4-byte Spill
	cmpq	$0, 16(%rsi)
	je	LBB0_47
LBB0_37:
	xorl	%r10d, %r10d
	movq	%r11, 1272(%rsp)                ## 8-byte Spill
	cmpq	$0, 16(%rax)
	je	LBB0_48
LBB0_38:
	xorl	%r11d, %r11d
	cmpq	$0, 16(%rdx)
	je	LBB0_49
LBB0_39:
	xorl	%r12d, %r12d
	movq	16(%rbp), %rdx
	cmpq	$0, 16(%r14)
	je	LBB0_50
LBB0_40:
	xorl	%eax, %eax
	movq	400(%rsp), %r9                  ## 8-byte Reload
	movq	216(%rsp), %rcx                 ## 8-byte Reload
	cmpq	$0, 16(%rcx)
	je	LBB0_51
LBB0_41:
	xorl	%ecx, %ecx
	cmpq	$0, 16(%rdx)
	je	LBB0_52
LBB0_42:
	xorl	%edx, %edx
	cmpq	$0, 16(%rdi)
	je	LBB0_53
LBB0_43:
	xorl	%esi, %esi
	jmp	LBB0_54
LBB0_33:                                ## %then_bb32
	movq	40(%r10), %rax
	vxorpd	%xmm0, %xmm0, %xmm0
	vmovupd	%xmm0, (%r10)
	movq	$0, 16(%r10)
	movabsq	$4295041026, %rcx               ## imm = 0x100012002
	movq	%rcx, 32(%r10)
	movl	$0, (%rax)
	movq	1504(%rsp), %rcx                ## 8-byte Reload
	movl	%ecx, 4(%rax)
	movq	$1, 8(%rax)
	movq	88(%rbp), %rax
	movq	$0, 24(%r10)
	cmpq	$0, 16(%r12)
	jne	LBB0_32
LBB0_34:                                ## %_halide_buffer_is_bounds_query.exit300
	cmpq	$0, (%r12)
	je	LBB0_44
LBB0_35:                                ## %after_bb34.thread
	cmpq	$0, (%r12)
	sete	%r8b
	cmpq	$0, 16(%r10)
	jne	LBB0_36
LBB0_46:
	cmpq	$0, (%r10)
	sete	%r13b
	movl	%r9d, 632(%rsp)                 ## 4-byte Spill
	cmpq	$0, 16(%rsi)
	jne	LBB0_37
LBB0_47:
	cmpq	$0, (%rsi)
	sete	%r10b
	movq	%r11, 1272(%rsp)                ## 8-byte Spill
	cmpq	$0, 16(%rax)
	jne	LBB0_38
LBB0_48:
	cmpq	$0, (%rax)
	sete	%r11b
	cmpq	$0, 16(%rdx)
	jne	LBB0_39
LBB0_49:
	cmpq	$0, (%rdx)
	sete	%r12b
	movq	16(%rbp), %rdx
	cmpq	$0, 16(%r14)
	jne	LBB0_40
LBB0_50:
	cmpq	$0, (%r14)
	sete	%al
	movq	400(%rsp), %r9                  ## 8-byte Reload
	movq	216(%rsp), %rcx                 ## 8-byte Reload
	cmpq	$0, 16(%rcx)
	jne	LBB0_41
LBB0_51:
	cmpq	$0, (%rcx)
	sete	%cl
	cmpq	$0, 16(%rdx)
	jne	LBB0_42
LBB0_52:
	cmpq	$0, (%rdx)
	sete	%dl
	cmpq	$0, 16(%rdi)
	jne	LBB0_43
LBB0_53:
	cmpq	$0, (%rdi)
	sete	%sil
LBB0_54:                                ## %_halide_buffer_is_bounds_query.exit310
	xorl	%r14d, %r14d
	movq	40(%rbp), %rdi
	cmpq	$0, 16(%rdi)
	movl	$0, %edi
	jne	LBB0_56
## %bb.55:
	movq	40(%rbp), %rdi
	cmpq	$0, (%rdi)
	sete	%dil
LBB0_56:                                ## %_halide_buffer_is_bounds_query.exit311
	orb	%dil, %sil
	orb	%sil, %dl
	orb	%dl, %cl
	orb	%cl, %al
	orb	%al, %r12b
	orb	%r12b, %r11b
	orb	%r11b, %r10b
	orb	%r10b, %r13b
	orb	%r13b, %r8b
	testb	$1, %r8b
	je	LBB0_58
## %bb.57:
	xorl	%r12d, %r12d
	xorl	%esi, %esi
	jmp	LBB0_139
LBB0_58:                                ## %then_bb38
	xorl	%eax, %eax
	cmpl	$73730, 688(%rsp)               ## 4-byte Folded Reload
                                        ## imm = 0x12002
	setne	%al
	movq	%rax, 216(%rsp)                 ## 8-byte Spill
	xorl	%eax, %eax
	cmpl	$1, 200(%rsp)                   ## 4-byte Folded Reload
	sete	%al
	movl	%eax, 120(%rsp)                 ## 4-byte Spill
	xorl	%eax, %eax
	cmpl	$73730, 784(%rsp)               ## 4-byte Folded Reload
                                        ## imm = 0x12002
	sete	%al
	movl	%eax, 376(%rsp)                 ## 4-byte Spill
	xorl	%eax, %eax
	cmpl	$2, 768(%rsp)                   ## 4-byte Folded Reload
	sete	%al
	movl	%eax, 2592(%rsp)                ## 4-byte Spill
	xorl	%eax, %eax
	cmpl	$73730, 2208(%rsp)              ## 4-byte Folded Reload
                                        ## imm = 0x12002
	sete	%al
	movl	%eax, 2688(%rsp)                ## 4-byte Spill
	xorl	%eax, %eax
	cmpl	$1, 1632(%rsp)                  ## 4-byte Folded Reload
	sete	%al
	movl	%eax, 2624(%rsp)                ## 4-byte Spill
	xorl	%r8d, %r8d
	cmpl	$73730, 2144(%rsp)              ## 4-byte Folded Reload
                                        ## imm = 0x12002
	sete	%r8b
	xorl	%r10d, %r10d
	cmpl	$3, 2112(%rsp)                  ## 4-byte Folded Reload
	sete	%r10b
	xorl	%eax, %eax
	cmpl	$73730, 1600(%rsp)              ## 4-byte Folded Reload
                                        ## imm = 0x12002
	sete	%al
	movl	%eax, 1920(%rsp)                ## 4-byte Spill
	xorl	%eax, %eax
	cmpl	$1, 1568(%rsp)                  ## 4-byte Folded Reload
	sete	%al
	movl	%eax, 1376(%rsp)                ## 4-byte Spill
	xorl	%eax, %eax
	cmpl	$73730, 1184(%rsp)              ## 4-byte Folded Reload
                                        ## imm = 0x12002
	sete	%al
	movl	%eax, 2752(%rsp)                ## 4-byte Spill
	xorl	%eax, %eax
	cmpl	$2, 1824(%rsp)                  ## 4-byte Folded Reload
	sete	%al
	movl	%eax, 2720(%rsp)                ## 4-byte Spill
	xorl	%r14d, %r14d
	cmpl	$73730, 1792(%rsp)              ## 4-byte Folded Reload
                                        ## imm = 0x12002
	sete	%r14b
	xorl	%eax, %eax
	cmpl	$0, 1760(%rsp)                  ## 4-byte Folded Reload
	sete	%al
	movl	%eax, 1536(%rsp)                ## 4-byte Spill
	xorl	%eax, %eax
	cmpl	$73730, 1728(%rsp)              ## 4-byte Folded Reload
                                        ## imm = 0x12002
	setne	%al
	shlq	$14, %rax
	movq	%rax, 2656(%rsp)                ## 8-byte Spill
	xorl	%esi, %esi
	cmpl	$3, 536(%rsp)                   ## 4-byte Folded Reload
	setne	%sil
	shlq	$15, %rsi
	xorl	%eax, %eax
	cmpl	$73730, 528(%rsp)               ## 4-byte Folded Reload
                                        ## imm = 0x12002
	setne	%al
	shlq	$16, %rax
	movq	%rax, 88(%rsp)                  ## 8-byte Spill
	xorl	%eax, %eax
	cmpl	$1, 520(%rsp)                   ## 4-byte Folded Reload
	setne	%al
	shlq	$17, %rax
	movq	%rax, 512(%rsp)                 ## 8-byte Spill
	xorl	%eax, %eax
	cmpl	$73730, 1312(%rsp)              ## 4-byte Folded Reload
                                        ## imm = 0x12002
	setne	%al
	shlq	$18, %rax
	movq	%rax, 2432(%rsp)                ## 8-byte Spill
	xorl	%eax, %eax
	cmpl	$3, 1296(%rsp)                  ## 4-byte Folded Reload
	setne	%al
	shlq	$19, %rax
	movq	%rax, 1136(%rsp)                ## 8-byte Spill
	movq	464(%rsp), %rcx                 ## 8-byte Reload
	leal	(%rcx,%r9), %eax
	movl	%eax, 1032(%rsp)                ## 4-byte Spill
	cmpl	$32, %eax
	setl	%r11b
	xorl	%edx, %edx
	movq	656(%rsp), %rax                 ## 8-byte Reload
	testl	%eax, %eax
	sete	%dl
	movl	%edx, 1952(%rsp)                ## 4-byte Spill
	setg	%r12b
	xorl	%edi, %edi
	testl	%r9d, %r9d
	sete	%dil
	movl	%edi, 1984(%rsp)                ## 4-byte Spill
	setg	%dl
	orb	%r11b, %dl
	movb	%dl, 2464(%rsp)                 ## 1-byte Spill
	shrq	$10, %rcx
	andl	$2097152, %ecx                  ## imm = 0x200000
	movq	%rcx, 2496(%rsp)                ## 8-byte Spill
	movq	432(%rsp), %rcx                 ## 8-byte Reload
	addl	%ecx, %eax
	movl	%eax, 1024(%rsp)                ## 4-byte Spill
	cmpl	$32, %eax
	setl	%al
	orb	%r12b, %al
	movb	%al, 3040(%rsp)                 ## 1-byte Spill
	movq	%rcx, %rax
	shrq	$8, %rax
	andl	$8388608, %eax                  ## imm = 0x800000
	movq	%rax, 2016(%rsp)                ## 8-byte Spill
	movq	448(%rsp), %rcx                 ## 8-byte Reload
	cmpl	632(%rsp), %ecx                 ## 4-byte Folded Reload
	setg	%r9b
	movq	640(%rsp), %rax                 ## 8-byte Reload
	leal	24(%rax), %edx
	movq	416(%rsp), %rdi                 ## 8-byte Reload
	leal	(%rdi,%rcx), %eax
	movl	%eax, 1016(%rsp)                ## 4-byte Spill
	cmpl	%eax, %edx
	setg	%r13b
	orb	%r9b, %r13b
	movzbl	%r13b, %ecx
	vmovd	%ecx, %xmm0
	movq	%rdi, %rax
	shrq	$6, %rax
	andl	$33554432, %eax                 ## imm = 0x2000000
	movq	%rax, 608(%rsp)                 ## 8-byte Spill
	movq	144(%rsp), %rax                 ## 8-byte Reload
	testl	%eax, %eax
	setg	%cl
	movq	176(%rsp), %rdx                 ## 8-byte Reload
	addl	%edx, %eax
	movl	%eax, 1008(%rsp)                ## 4-byte Spill
	cmpl	$8, %eax
	setl	%r9b
	orb	%cl, %r9b
	shrq	$4, %rdx
	andl	$134217728, %edx                ## imm = 0x8000000
	movq	%rdx, 1288(%rsp)                ## 8-byte Spill
	movq	160(%rsp), %rdx                 ## 8-byte Reload
	testl	%edx, %edx
	setg	%cl
	movq	32(%rsp), %rax                  ## 8-byte Reload
	addl	%eax, %edx
	movl	%edx, 1000(%rsp)                ## 4-byte Spill
	cmpl	$8, %edx
	setl	%r11b
	orb	%cl, %r11b
	shrq	$2, %rax
	andl	$536870912, %eax                ## imm = 0x20000000
	movq	%rax, 1280(%rsp)                ## 8-byte Spill
	movq	224(%rsp), %rax                 ## 8-byte Reload
	testl	%eax, %eax
	setg	%cl
	movq	288(%rsp), %rdi                 ## 8-byte Reload
	addl	%edi, %eax
	movl	%eax, 992(%rsp)                 ## 4-byte Spill
	cmpl	$40, %eax
	setl	%dl
	orb	%cl, %dl
	movzbl	%dl, %ecx
	vpinsrb	$4, %ecx, %xmm0, %xmm0
                                        ## kill: def $edi killed $edi killed $rdi def $rdi
	andl	$-2147483648, %edi              ## imm = 0x80000000
	movq	%rdi, 2944(%rsp)                ## 8-byte Spill
	movq	304(%rsp), %rax                 ## 8-byte Reload
	testl	%eax, %eax
	setg	%cl
	movq	736(%rsp), %rdi                 ## 8-byte Reload
	addl	%edi, %eax
	movl	%eax, 984(%rsp)                 ## 4-byte Spill
	cmpl	$7, %eax
	setl	%dl
	orb	%cl, %dl
	movzbl	%dl, %ecx
	vpinsrb	$8, %ecx, %xmm0, %xmm0
	vpinsrb	$12, 1920(%rsp), %xmm0, %xmm0   ## 4-byte Folded Reload
                                        ## kill: def $edi killed $edi killed $rdi def $rdi
	andl	$-2147483648, %edi              ## imm = 0x80000000
	shlq	$2, %rdi
	movq	%rdi, 1920(%rsp)                ## 8-byte Spill
	movq	64(%rsp), %rax                  ## 8-byte Reload
	testl	%eax, %eax
	setg	%cl
	movq	56(%rsp), %rdx                  ## 8-byte Reload
	addl	%edx, %eax
	movl	%eax, 976(%rsp)                 ## 4-byte Spill
	cmpl	$24, %eax
	setl	%al
	orb	%cl, %al
	movb	%al, 1088(%rsp)                 ## 1-byte Spill
                                        ## kill: def $edx killed $edx killed $rdx def $rdx
	andl	$-2147483648, %edx              ## imm = 0x80000000
	shlq	$4, %rdx
	movq	%rdx, 720(%rsp)                 ## 8-byte Spill
	movq	48(%rsp), %rax                  ## 8-byte Reload
	testl	%eax, %eax
	setg	%cl
	movq	384(%rsp), %rdi                 ## 8-byte Reload
	addl	%edi, %eax
	movl	%eax, 968(%rsp)                 ## 4-byte Spill
	cmpl	$24, %eax
	setl	%dl
	orb	%cl, %dl
	movzbl	%dl, %ecx
	vmovd	%ecx, %xmm1
                                        ## kill: def $edi killed $edi killed $rdi def $rdi
	andl	$-2147483648, %edi              ## imm = 0x80000000
	shlq	$6, %rdi
	movq	%rdi, 1104(%rsp)                ## 8-byte Spill
	movq	320(%rsp), %rax                 ## 8-byte Reload
	testl	%eax, %eax
	setg	%cl
	movq	1152(%rsp), %rdi                ## 8-byte Reload
	addl	%edi, %eax
	movl	%eax, 960(%rsp)                 ## 4-byte Spill
	cmpl	$39, %eax
	setl	%dl
	orb	%cl, %dl
	movzbl	%dl, %ecx
	vpinsrb	$4, %ecx, %xmm1, %xmm1
	vpinsrb	$8, %r14d, %xmm1, %xmm1
	vpinsrb	$12, 1536(%rsp), %xmm1, %xmm1   ## 4-byte Folded Reload
	movzbl	%r9b, %ecx
	vmovd	%ecx, %xmm2
	vpinsrb	$4, %r8d, %xmm2, %xmm2
	vpinsrb	$8, %r10d, %xmm2, %xmm2
	movzbl	%r11b, %ecx
	vpinsrb	$12, %ecx, %xmm2, %xmm2
                                        ## kill: def $edi killed $edi killed $rdi def $rdi
	andl	$-2147483648, %edi              ## imm = 0x80000000
	shlq	$8, %rdi
	movq	%rdi, 1536(%rsp)                ## 8-byte Spill
	movq	2560(%rsp), %rax                ## 8-byte Reload
	testl	%eax, %eax
	setg	%cl
	movq	256(%rsp), %rdi                 ## 8-byte Reload
	addl	%edi, %eax
	movl	%eax, 952(%rsp)                 ## 4-byte Spill
	cmpl	$40, %eax
	setl	%dl
	orb	%cl, %dl
	movzbl	%dl, %eax
	shlq	$40, %rax
	movq	%rax, 1080(%rsp)                ## 8-byte Spill
                                        ## kill: def $edi killed $edi killed $rdi def $rdi
	andl	$-2147483648, %edi              ## imm = 0x80000000
	shlq	$10, %rdi
	movq	%rdi, 1096(%rsp)                ## 8-byte Spill
	movq	40(%rsp), %rax                  ## 8-byte Reload
	testl	%eax, %eax
	setg	%cl
	movq	112(%rsp), %r12                 ## 8-byte Reload
	addl	%r12d, %eax
	movl	%eax, 944(%rsp)                 ## 4-byte Spill
	cmpl	$7, %eax
	setl	%dl
	orb	%cl, %dl
	movzbl	%dl, %eax
	shlq	$42, %rax
	movq	%rax, 1072(%rsp)                ## 8-byte Spill
                                        ## kill: def $r12d killed $r12d killed $r12 def $r12
	andl	$-2147483648, %r12d             ## imm = 0x80000000
	shlq	$12, %r12
	movq	2528(%rsp), %rax                ## 8-byte Reload
	testl	%eax, %eax
	setg	%cl
	movq	480(%rsp), %r14                 ## 8-byte Reload
	leal	(%r14,%rax), %edx
	movq	192(%rsp), %rax                 ## 8-byte Reload
	movl	%edx, 936(%rsp)                 ## 4-byte Spill
	cmpl	%eax, %edx
	setl	%dl
	orb	%cl, %dl
	movzbl	%dl, %ecx
	shlq	$44, %rcx
	movq	%rcx, 1064(%rsp)                ## 8-byte Spill
                                        ## kill: def $r14d killed $r14d killed $r14 def $r14
	andl	$-2147483648, %r14d             ## imm = 0x80000000
	shlq	$14, %r14
	movq	616(%rsp), %rdx                 ## 8-byte Reload
	testl	%edx, %edx
	setg	%cl
	movq	240(%rsp), %r11                 ## 8-byte Reload
	addl	%r11d, %edx
	movq	1504(%rsp), %rdi                ## 8-byte Reload
	movl	%edx, 2976(%rsp)                ## 4-byte Spill
	cmpl	%edi, %edx
	setl	%dl
	orb	%cl, %dl
	movzbl	%dl, %ecx
	shlq	$46, %rcx
	movq	%rcx, 1056(%rsp)                ## 8-byte Spill
                                        ## kill: def $r11d killed $r11d killed $r11 def $r11
	andl	$-2147483648, %r11d             ## imm = 0x80000000
	shlq	$16, %r11
	movq	624(%rsp), %rdx                 ## 8-byte Reload
	testl	%edx, %edx
	setg	%cl
	movq	1216(%rsp), %r10                ## 8-byte Reload
	addl	%r10d, %edx
	movl	%edx, 600(%rsp)                 ## 4-byte Spill
	cmpl	%edi, %edx
	setl	%dl
	orb	%cl, %dl
	movzbl	%dl, %ecx
	shlq	$48, %rcx
	movq	%rcx, 1048(%rsp)                ## 8-byte Spill
                                        ## kill: def $r10d killed $r10d killed $r10 def $r10
	andl	$-2147483648, %r10d             ## imm = 0x80000000
	shlq	$18, %r10
	movq	2336(%rsp), %rdx                ## 8-byte Reload
	testl	%edx, %edx
	setg	%cl
	movq	128(%rsp), %r8                  ## 8-byte Reload
	addl	%r8d, %edx
	movl	%edx, 1472(%rsp)                ## 4-byte Spill
	cmpl	$39, %edx
	setl	%dl
	orb	%cl, %dl
	movzbl	%dl, %ecx
	shlq	$50, %rcx
	movq	%rcx, 1040(%rsp)                ## 8-byte Spill
                                        ## kill: def $r8d killed $r8d killed $r8 def $r8
	andl	$-2147483648, %r8d              ## imm = 0x80000000
	shlq	$20, %r8
	movq	504(%rsp), %rdx                 ## 8-byte Reload
	testl	%edx, %edx
	setg	%cl
	movq	104(%rsp), %r9                  ## 8-byte Reload
	addl	%r9d, %edx
	movl	%edx, 1440(%rsp)                ## 4-byte Spill
	cmpl	%eax, %edx
	setl	%dl
	orb	%cl, %dl
	movzbl	%dl, %r13d
	shlq	$52, %r13
                                        ## kill: def $r9d killed $r9d killed $r9 def $r9
	andl	$-2147483648, %r9d              ## imm = 0x80000000
	shlq	$22, %r9
	xorl	%edi, %edi
	cmpl	$1, 800(%rsp)                   ## 4-byte Folded Reload
	sete	%dil
	xorl	%edx, %edx
	cmpl	$32, 464(%rsp)                  ## 4-byte Folded Reload
	sete	%dl
	xorl	%ecx, %ecx
	cmpl	$1, 1200(%rsp)                  ## 4-byte Folded Reload
	sete	%cl
	xorl	%eax, %eax
	cmpl	$32, 432(%rsp)                  ## 4-byte Folded Reload
	sete	%al
	vmovd	%eax, %xmm3
	vpinsrb	$4, %ecx, %xmm3, %xmm3
	movzbl	3040(%rsp), %eax                ## 1-byte Folded Reload
	vpinsrb	$8, %eax, %xmm3, %xmm3
	xorl	%eax, %eax
	cmpl	$0, 448(%rsp)                   ## 4-byte Folded Reload
	sete	%al
	vpinsrb	$12, %eax, %xmm3, %xmm3
	movzbl	2464(%rsp), %eax                ## 1-byte Folded Reload
	vmovd	%eax, %xmm4
	vpinsrb	$4, 376(%rsp), %xmm4, %xmm4     ## 4-byte Folded Reload
	vpinsrb	$8, 2592(%rsp), %xmm4, %xmm4    ## 4-byte Folded Reload
	vpinsrb	$12, 1952(%rsp), %xmm4, %xmm4   ## 4-byte Folded Reload
	xorl	%eax, %eax
	cmpl	$32, 416(%rsp)                  ## 4-byte Folded Reload
	sete	%al
	vmovd	%eax, %xmm5
	vpinsrb	$4, 2688(%rsp), %xmm5, %xmm5    ## 4-byte Folded Reload
	vpinsrb	$8, 2624(%rsp), %xmm5, %xmm5    ## 4-byte Folded Reload
	xorl	%eax, %eax
	cmpl	$1, 2176(%rsp)                  ## 4-byte Folded Reload
	sete	%al
	vpinsrb	$12, %eax, %xmm5, %xmm5
	vmovd	120(%rsp), %xmm6                ## 4-byte Folded Reload
                                        ## xmm6 = mem[0],zero,zero,zero
	vpinsrb	$4, 1984(%rsp), %xmm6, %xmm6    ## 4-byte Folded Reload
	vpinsrb	$8, %edx, %xmm6, %xmm6
	vpinsrb	$12, %edi, %xmm6, %xmm6
	vmovd	1376(%rsp), %xmm7               ## 4-byte Folded Reload
                                        ## xmm7 = mem[0],zero,zero,zero
	movzbl	1088(%rsp), %eax                ## 1-byte Folded Reload
	vpinsrb	$4, %eax, %xmm7, %xmm7
	vpinsrb	$8, 2752(%rsp), %xmm7, %xmm7    ## 4-byte Folded Reload
	vpinsrb	$12, 2720(%rsp), %xmm7, %xmm7   ## 4-byte Folded Reload
	orq	2656(%rsp), %rsi                ## 8-byte Folded Reload
	orq	1080(%rsp), %rsi                ## 8-byte Folded Reload
	orq	1072(%rsp), %rsi                ## 8-byte Folded Reload
	orq	1064(%rsp), %rsi                ## 8-byte Folded Reload
	orq	88(%rsp), %rsi                  ## 8-byte Folded Reload
	orq	512(%rsp), %rsi                 ## 8-byte Folded Reload
	orq	1056(%rsp), %rsi                ## 8-byte Folded Reload
	orq	2432(%rsp), %rsi                ## 8-byte Folded Reload
	orq	1136(%rsp), %rsi                ## 8-byte Folded Reload
	orq	1048(%rsp), %rsi                ## 8-byte Folded Reload
	orq	1040(%rsp), %rsi                ## 8-byte Folded Reload
	orq	%r13, %rsi
	orq	216(%rsp), %rsi                 ## 8-byte Folded Reload
	orq	2496(%rsp), %rsi                ## 8-byte Folded Reload
	orq	2016(%rsp), %rsi                ## 8-byte Folded Reload
	orq	608(%rsp), %rsi                 ## 8-byte Folded Reload
	orq	1288(%rsp), %rsi                ## 8-byte Folded Reload
	orq	1280(%rsp), %rsi                ## 8-byte Folded Reload
	orq	2944(%rsp), %rsi                ## 8-byte Folded Reload
	orq	1920(%rsp), %rsi                ## 8-byte Folded Reload
	orq	720(%rsp), %rsi                 ## 8-byte Folded Reload
	orq	1104(%rsp), %rsi                ## 8-byte Folded Reload
	orq	1536(%rsp), %rsi                ## 8-byte Folded Reload
	orq	1096(%rsp), %rsi                ## 8-byte Folded Reload
	orq	%r12, %rsi
	orq	%r14, %rsi
	orq	%r11, %rsi
	vpslld	$31, %xmm0, %xmm0
	vpmovsxdq	%xmm0, %ymm0
	vmovapd	LCPI0_13(%rip), %ymm8           ## ymm8 = [0,0,0,256]
	vblendvpd	%ymm0, LCPI0_12(%rip), %ymm8, %ymm0
	orq	%r10, %rsi
	orq	%r8, %rsi
	vpslld	$31, %xmm1, %xmm1
	vpmovsxdq	%xmm1, %ymm1
	vmovapd	LCPI0_15(%rip), %ymm8           ## ymm8 = [0,0,4096,8192]
	vblendvpd	%ymm1, LCPI0_14(%rip), %ymm8, %ymm1
	vpslld	$31, %xmm4, %xmm4
	vpmovsxdq	%xmm4, %ymm4
	vmovapd	LCPI0_20(%rip), %xmm8           ## xmm8 = [1048576,0,0,0]
	vmovapd	LCPI0_21(%rip), %ymm9           ## ymm9 = [0,4,8,288230376151711744]
	vblendvpd	%ymm4, %ymm8, %ymm9, %ymm4
	vpslld	$31, %xmm2, %xmm2
	vpmovsxdq	%xmm2, %ymm2
	vmovapd	LCPI0_17(%rip), %ymm8           ## ymm8 = [0,64,128,0]
	vblendvpd	%ymm2, LCPI0_16(%rip), %ymm8, %ymm2
	orq	%r9, %rsi
	vpslld	$31, %xmm3, %xmm3
	vpmovsxdq	%xmm3, %ymm3
	vmovapd	LCPI0_19(%rip), %ymm8           ## ymm8 = [576460752303423488,144115188075855872,0,1152921504606846976]
	vblendvpd	%ymm3, LCPI0_18(%rip), %ymm8, %ymm3
	vpslld	$31, %xmm5, %xmm5
	vpsrad	$31, %xmm5, %xmm5
	vpmovsxdq	%xmm5, %ymm5
	vpandn	LCPI0_22(%rip), %ymm5, %ymm5
	vorpd	%ymm0, %ymm4, %ymm0
	vpor	%ymm1, %ymm5, %ymm1
	vorpd	%ymm1, %ymm0, %ymm0
	vpslld	$31, %xmm6, %xmm1
	vpsrad	$31, %xmm1, %xmm1
	vpmovsxdq	%xmm1, %ymm1
	vpslld	$31, %xmm7, %xmm4
	vpmovsxdq	%xmm4, %ymm4
	vmovapd	LCPI0_25(%rip), %ymm5           ## ymm5 = [512,0,1024,2048]
	vblendvpd	%ymm4, LCPI0_24(%rip), %ymm5, %ymm4
	vpandn	LCPI0_23(%rip), %ymm1, %ymm1
	vorpd	%ymm4, %ymm3, %ymm3
	vorpd	%ymm3, %ymm2, %ymm2
	vpor	%ymm2, %ymm1, %ymm1
	vpor	%ymm0, %ymm1, %ymm0
	vextracti128	$1, %ymm0, %xmm1
	vpor	%xmm1, %xmm0, %xmm0
	vpshufd	$238, %xmm0, %xmm1              ## xmm1 = xmm0[2,3,2,3]
	vpor	%xmm1, %xmm0, %xmm0
	vmovq	%xmm0, %rax
	orq	%rax, %rsi
	movabsq	$-9223372036854775808, %rcx     ## imm = 0x8000000000000000
	orq	%rcx, %rsi
	xorl	%eax, %eax
	tzcntq	%rsi, %rax
	cmpl	$62, %eax
	jbe	LBB0_161
## %bb.59:                              ## %no_errors_bb40
	xorl	%eax, %eax
	vmovd	384(%rsp), %xmm0                ## 4-byte Folded Reload
                                        ## xmm0 = mem[0],zero,zero,zero
	vpinsrd	$1, 672(%rsp), %xmm0, %xmm0     ## 4-byte Folded Reload
	vpinsrd	$2, 320(%rsp), %xmm0, %xmm0     ## 4-byte Folded Reload
	cmpl	$0, 144(%rsp)                   ## 4-byte Folded Reload
	vpinsrd	$3, 1152(%rsp), %xmm0, %xmm0    ## 4-byte Folded Reload
	vmovd	64(%rsp), %xmm1                 ## 4-byte Folded Reload
                                        ## xmm1 = mem[0],zero,zero,zero
	vpinsrd	$1, 56(%rsp), %xmm1, %xmm1      ## 4-byte Folded Reload
	vpinsrd	$2, 208(%rsp), %xmm1, %xmm1     ## 4-byte Folded Reload
	setne	%al
	xorl	%esi, %esi
	cmpl	$1, 1664(%rsp)                  ## 4-byte Folded Reload
	setne	%sil
	shlq	$17, %rsi
	xorl	%edx, %edx
	cmpl	$1, 2080(%rsp)                  ## 4-byte Folded Reload
	setne	%dl
	shlq	$18, %rdx
	xorl	%edi, %edi
	cmpl	$1, 2048(%rsp)                  ## 4-byte Folded Reload
	setne	%dil
	orq	%rsi, %rdx
	vpinsrd	$3, 48(%rsp), %xmm1, %xmm1      ## 4-byte Folded Reload
	shlq	$19, %rdi
	orq	%rdi, %rdx
	vmovd	224(%rsp), %xmm2                ## 4-byte Folded Reload
                                        ## xmm2 = mem[0],zero,zero,zero
	vpinsrd	$1, 288(%rsp), %xmm2, %xmm2     ## 4-byte Folded Reload
	vpinsrd	$2, 304(%rsp), %xmm2, %xmm2     ## 4-byte Folded Reload
	vpinsrd	$3, 736(%rsp), %xmm2, %xmm2     ## 4-byte Folded Reload
	vinserti128	$1, %xmm0, %ymm1, %ymm0
	vmovd	176(%rsp), %xmm1                ## 4-byte Folded Reload
                                        ## xmm1 = mem[0],zero,zero,zero
	vpinsrd	$1, 160(%rsp), %xmm1, %xmm1     ## 4-byte Folded Reload
	vpinsrd	$2, 32(%rsp), %xmm1, %xmm1      ## 4-byte Folded Reload
	vpinsrd	$3, 1344(%rsp), %xmm1, %xmm1    ## 4-byte Folded Reload
	vinserti128	$1, %xmm2, %ymm1, %ymm1
	vpcmpeqd	LCPI0_26(%rip), %ymm1, %ymm1
	vextracti128	$1, %ymm1, %xmm2
	vpmovsxdq	%xmm2, %ymm2
	vpcmpeqd	LCPI0_27(%rip), %ymm0, %ymm0
	vextracti128	$1, %ymm0, %xmm3
	vpmovsxdq	%xmm3, %ymm3
	vpmovsxdq	%xmm0, %ymm0
	vpandn	LCPI0_28(%rip), %ymm0, %ymm0
	vpmovsxdq	%xmm1, %ymm1
	vpandn	LCPI0_29(%rip), %ymm1, %ymm1
	vpor	%ymm0, %ymm1, %ymm0
	vpandn	LCPI0_30(%rip), %ymm3, %ymm1
	vpandn	LCPI0_31(%rip), %ymm2, %ymm2
	vpor	%ymm1, %ymm2, %ymm1
	vpor	%ymm1, %ymm0, %ymm0
	vextracti128	$1, %ymm0, %xmm1
	vpor	%xmm1, %xmm0, %xmm0
	vpshufd	$238, %xmm0, %xmm1              ## xmm1 = xmm0[2,3,2,3]
	vpor	%xmm1, %xmm0, %xmm0
	orq	%rax, %rdx
	vmovq	%xmm0, %rax
	orq	%rax, %rdx
	orq	%rcx, %rdx
	xorl	%eax, %eax
	tzcntq	%rdx, %rax
	cmpl	$19, %eax
	jbe	LBB0_163
## %bb.60:                              ## %no_errors_bb104
	movslq	112(%rsp), %rsi                 ## 4-byte Folded Reload
	movq	256(%rsp), %r14                 ## 8-byte Reload
	movslq	%r14d, %rax
	movq	%rsi, %r8
	movq	%rax, 120(%rsp)                 ## 8-byte Spill
	imulq	%rax, %r8
	movslq	480(%rsp), %r10                 ## 4-byte Folded Reload
	movq	%r8, %r12
	imulq	%r10, %r12
	movslq	128(%rsp), %r9                  ## 4-byte Folded Reload
	movslq	1216(%rsp), %rax                ## 4-byte Folded Reload
	movq	%r9, %r13
	movq	%rax, 1344(%rsp)                ## 8-byte Spill
	imulq	%rax, %r13
	movslq	104(%rsp), %r11                 ## 4-byte Folded Reload
	movq	%r13, %rax
	imulq	%r11, %rax
	movq	%rax, 32(%rsp)                  ## 8-byte Spill
	movslq	1128(%rsp), %rax                ## 4-byte Folded Reload
	movq	%rax, %rdi
	shlq	$5, %rdi
	movq	%rdi, %rcx
	negq	%rcx
	movq	%rax, 600(%rsp)                 ## 8-byte Spill
	testl	%eax, %eax
	movq	%rdi, %rax
	movq	%rdi, 216(%rsp)                 ## 8-byte Spill
	cmovnsq	%rdi, %rcx
	xorl	%eax, %eax
	movq	%rcx, 200(%rsp)                 ## 8-byte Spill
	cmpq	$2147483647, %rcx               ## imm = 0x7FFFFFFF
	seta	%al
	movq	%rax, 304(%rsp)                 ## 8-byte Spill
	leaq	(,%rbx,8), %rdi
	leaq	(%rdi,%rdi,4), %rdi
	movq	%rdi, %rax
	negq	%rax
	testl	%ebx, %ebx
	cmovnsq	%rdi, %rax
	xorl	%ecx, %ecx
	movq	%rax, 688(%rsp)                 ## 8-byte Spill
	cmpq	$2147483647, %rax               ## imm = 0x7FFFFFFF
	seta	%cl
	movl	%ecx, 144(%rsp)                 ## 4-byte Spill
	movq	336(%rsp), %rax                 ## 8-byte Reload
	leaq	(,%rax,8), %rdi
	subq	%rax, %rdi
	movq	%rdi, %rcx
	negq	%rcx
	testl	%eax, %eax
	cmovnsq	%rdi, %rcx
	xorl	%eax, %eax
	movq	%rcx, 672(%rsp)                 ## 8-byte Spill
	cmpq	$2147483647, %rcx               ## imm = 0x7FFFFFFF
	seta	%al
	movl	%eax, 160(%rsp)                 ## 4-byte Spill
	movslq	1120(%rsp), %rcx                ## 4-byte Folded Reload
	imulq	$39, %rcx, %rdx
	movq	%rdx, %rdi
	negq	%rdi
	movq	%rcx, %rax
	movq	%rcx, 376(%rsp)                 ## 8-byte Spill
	testl	%ecx, %ecx
	cmovnsq	%rdx, %rdi
	xorl	%eax, %eax
	movq	%rdi, 800(%rsp)                 ## 8-byte Spill
	cmpq	$2147483647, %rdi               ## imm = 0x7FFFFFFF
	seta	%al
	movl	%eax, 176(%rsp)                 ## 4-byte Spill
	shrl	$27, %r14d
	andl	$-16, %r14d
	movq	%r14, 256(%rsp)                 ## 8-byte Spill
	imulq	72(%rsp), %rsi                  ## 8-byte Folded Reload
	movq	%rsi, %rax
	negq	%rax
	cmovlq	%rsi, %rax
	xorl	%ecx, %ecx
	movq	%rax, 656(%rsp)                 ## 8-byte Spill
	cmpq	$2147483647, %rax               ## imm = 0x7FFFFFFF
	seta	%cl
	movl	%ecx, 736(%rsp)                 ## 4-byte Spill
	xorl	%eax, %eax
	movq	%r8, 128(%rsp)                  ## 8-byte Spill
	cmpq	$2147483647, %r8                ## imm = 0x7FFFFFFF
	setg	%al
	movl	%eax, 224(%rsp)                 ## 4-byte Spill
	imulq	2368(%rsp), %r10                ## 8-byte Folded Reload
	movq	%r10, %rax
	negq	%rax
	cmovlq	%r10, %rax
	xorl	%ecx, %ecx
	movq	%rax, 784(%rsp)                 ## 8-byte Spill
	cmpq	$2147483647, %rax               ## imm = 0x7FFFFFFF
	seta	%cl
	movl	%ecx, 64(%rsp)                  ## 4-byte Spill
	xorl	%eax, %eax
	movq	%r12, 640(%rsp)                 ## 8-byte Spill
	cmpq	$2147483647, %r12               ## imm = 0x7FFFFFFF
	setg	%al
	movl	%eax, 56(%rsp)                  ## 4-byte Spill
	movq	240(%rsp), %rax                 ## 8-byte Reload
	shrq	$22, %rax
	andl	$512, %eax                      ## imm = 0x200
	movq	%rax, 288(%rsp)                 ## 8-byte Spill
	movq	1216(%rsp), %rax                ## 8-byte Reload
	shrl	$21, %eax
	andl	$1024, %eax                     ## imm = 0x400
	movq	%rax, 1216(%rsp)                ## 8-byte Spill
	movslq	1272(%rsp), %rax                ## 4-byte Folded Reload
	movq	%rax, 1136(%rsp)                ## 8-byte Spill
	imulq	%rax, %r9
	movq	%r9, %rax
	negq	%rax
	cmovlq	%r9, %rax
	movq	%rax, 768(%rsp)                 ## 8-byte Spill
	cmpq	$2147483647, %rax               ## imm = 0x7FFFFFFF
	movl	$0, %eax
	seta	%al
	shlq	$11, %rax
	movq	%rax, 48(%rsp)                  ## 8-byte Spill
	xorl	%eax, %eax
	movq	%r13, 208(%rsp)                 ## 8-byte Spill
	cmpq	$2147483647, %r13               ## imm = 0x7FFFFFFF
	setg	%al
	shlq	$12, %rax
	movq	%rax, 464(%rsp)                 ## 8-byte Spill
	movslq	140(%rsp), %rax                 ## 4-byte Folded Reload
	movq	%rax, 1416(%rsp)                ## 8-byte Spill
	imulq	%rax, %r11
	movq	%r11, %r14
	negq	%r14
	cmovlq	%r11, %r14
	xorl	%eax, %eax
	cmpq	$2147483647, %r14               ## imm = 0x7FFFFFFF
	seta	%al
	shlq	$13, %rax
	movq	%rax, 448(%rsp)                 ## 8-byte Spill
	xorl	%eax, %eax
	cmpq	$2147483647, 32(%rsp)           ## 8-byte Folded Reload
                                        ## imm = 0x7FFFFFFF
	setg	%al
	shlq	$14, %rax
	movq	%rax, 432(%rsp)                 ## 8-byte Spill
	movq	912(%rsp), %r12                 ## 8-byte Reload
	andl	$2, %r12d
	shlq	$14, %r12
	movq	896(%rsp), %r11                 ## 8-byte Reload
	andl	$2, %r11d
	shlq	$15, %r11
	movq	880(%rsp), %r10                 ## 8-byte Reload
	andl	$2, %r10d
	shlq	$16, %r10
	movq	864(%rsp), %r8                  ## 8-byte Reload
	andl	$2, %r8d
	shlq	$17, %r8
	movq	848(%rsp), %rsi                 ## 8-byte Reload
	andl	$2, %esi
	shlq	$18, %rsi
	movq	832(%rsp), %rdx                 ## 8-byte Reload
	andl	$2, %edx
	shlq	$19, %rdx
	movq	1328(%rsp), %rcx                ## 8-byte Reload
	andl	$2, %ecx
	shlq	$20, %rcx
	movq	1696(%rsp), %rax                ## 8-byte Reload
	andl	$2, %eax
	shlq	$21, %rax
	movq	816(%rsp), %r13                 ## 8-byte Reload
	andl	$2, %r13d
	shlq	$22, %r13
	movq	544(%rsp), %rdi                 ## 8-byte Reload
	andl	$2, %edi
	shlq	$23, %rdi
	movq	%rdi, 544(%rsp)                 ## 8-byte Spill
	xorl	%edi, %edi
	cmpq	$0, 80(%rsp)                    ## 8-byte Folded Reload
	sete	%dil
	movl	%edi, 320(%rsp)                 ## 4-byte Spill
	xorl	%edi, %edi
	cmpq	$0, 728(%rsp)                   ## 8-byte Folded Reload
	sete	%dil
	movl	%edi, 400(%rsp)                 ## 4-byte Spill
	xorl	%edi, %edi
	testq	%r15, %r15
	sete	%dil
	movl	%edi, 384(%rsp)                 ## 4-byte Spill
	xorl	%edi, %edi
	cmpq	$0, 352(%rsp)                   ## 8-byte Folded Reload
	sete	%dil
	movl	%edi, 1152(%rsp)                ## 4-byte Spill
	xorl	%edi, %edi
	cmpq	$0, 1264(%rsp)                  ## 8-byte Folded Reload
	sete	%dil
	movl	%edi, 104(%rsp)                 ## 4-byte Spill
	xorl	%edi, %edi
	cmpq	$0, 1144(%rsp)                  ## 8-byte Folded Reload
	sete	%dil
	movl	%edi, 112(%rsp)                 ## 4-byte Spill
	xorl	%edi, %edi
	cmpq	$0, 1408(%rsp)                  ## 8-byte Folded Reload
	sete	%dil
	movl	%edi, 480(%rsp)                 ## 4-byte Spill
	xorl	%edi, %edi
	cmpq	$0, 2400(%rsp)                  ## 8-byte Folded Reload
	sete	%dil
	movl	%edi, 416(%rsp)                 ## 4-byte Spill
	xorl	%r9d, %r9d
	cmpq	$0, 1256(%rsp)                  ## 8-byte Folded Reload
	sete	%r9b
	xorl	%edi, %edi
	cmpq	$0, 712(%rsp)                   ## 8-byte Folded Reload
	sete	%dil
	shlq	$34, %rdi
	orq	464(%rsp), %rdi                 ## 8-byte Folded Reload
	orq	48(%rsp), %rdi                  ## 8-byte Folded Reload
	orq	432(%rsp), %rdi                 ## 8-byte Folded Reload
	orq	448(%rsp), %rdi                 ## 8-byte Folded Reload
	orq	%r12, %rdi
	orq	%r11, %rdi
	orq	304(%rsp), %rdi                 ## 8-byte Folded Reload
	orq	%r10, %rdi
	orq	%r8, %rdi
	orq	%rsi, %rdi
	orq	%rdx, %rdi
	orq	%rcx, %rdi
	orq	%rax, %rdi
	vmovd	736(%rsp), %xmm0                ## 4-byte Folded Reload
                                        ## xmm0 = mem[0],zero,zero,zero
	vpinsrb	$4, 56(%rsp), %xmm0, %xmm0      ## 4-byte Folded Reload
	vpinsrb	$8, %r9d, %xmm0, %xmm0
	orq	256(%rsp), %rdi                 ## 8-byte Folded Reload
	vpinsrb	$12, 64(%rsp), %xmm0, %xmm0     ## 4-byte Folded Reload
	vmovd	144(%rsp), %xmm1                ## 4-byte Folded Reload
                                        ## xmm1 = mem[0],zero,zero,zero
	vpinsrb	$4, 104(%rsp), %xmm1, %xmm1     ## 4-byte Folded Reload
	vpinsrb	$8, 160(%rsp), %xmm1, %xmm1     ## 4-byte Folded Reload
	orq	%r13, %rdi
	vpinsrb	$12, 112(%rsp), %xmm1, %xmm1    ## 4-byte Folded Reload
	vmovd	480(%rsp), %xmm2                ## 4-byte Folded Reload
                                        ## xmm2 = mem[0],zero,zero,zero
	vpinsrb	$4, 176(%rsp), %xmm2, %xmm2     ## 4-byte Folded Reload
	vpinsrb	$8, 416(%rsp), %xmm2, %xmm2     ## 4-byte Folded Reload
	orq	288(%rsp), %rdi                 ## 8-byte Folded Reload
	vpinsrb	$12, 224(%rsp), %xmm2, %xmm2    ## 4-byte Folded Reload
	vmovd	320(%rsp), %xmm3                ## 4-byte Folded Reload
                                        ## xmm3 = mem[0],zero,zero,zero
	vpinsrb	$4, 400(%rsp), %xmm3, %xmm3     ## 4-byte Folded Reload
	vpinsrb	$8, 384(%rsp), %xmm3, %xmm3     ## 4-byte Folded Reload
	orq	544(%rsp), %rdi                 ## 8-byte Folded Reload
	vpinsrb	$12, 1152(%rsp), %xmm3, %xmm3   ## 4-byte Folded Reload
	vpslld	$31, %xmm0, %xmm0
	vpsrad	$31, %xmm0, %xmm0
	vpmovsxdq	%xmm0, %ymm0
	vpand	LCPI0_32(%rip), %ymm0, %ymm0
	orq	1216(%rsp), %rdi                ## 8-byte Folded Reload
	vpslld	$31, %xmm1, %xmm1
	vpsrad	$31, %xmm1, %xmm1
	vpmovzxdq	%xmm1, %ymm1            ## ymm1 = xmm1[0],zero,xmm1[1],zero,xmm1[2],zero,xmm1[3],zero
	vpand	LCPI0_33(%rip), %ymm1, %ymm1
	vpor	%ymm0, %ymm1, %ymm0
	vpslld	$31, %xmm2, %xmm1
	vpsrad	$31, %xmm1, %xmm1
	vpmovsxdq	%xmm1, %ymm1
	vpslld	$31, %xmm3, %xmm2
	vpmovsxdq	%xmm2, %ymm2
	vmovapd	LCPI0_1(%rip), %xmm3            ## xmm3 = [9223372036854775808,0]
	vblendvpd	%ymm2, LCPI0_35(%rip), %ymm3, %ymm2
	vpand	LCPI0_34(%rip), %ymm1, %ymm1
	vorpd	%ymm0, %ymm2, %ymm0
	vpor	%ymm0, %ymm1, %ymm0
	vextracti128	$1, %ymm0, %xmm1
	vpor	%xmm1, %xmm0, %xmm0
	vpshufd	$238, %xmm0, %xmm1              ## xmm1 = xmm0[2,3,2,3]
	vpor	%xmm1, %xmm0, %xmm0
	vmovq	%xmm0, %rax
	orq	%rdi, %rax
	tzcntq	%rax, %rax
	cmpl	$34, %eax
	jbe	LBB0_165
## %bb.61:                              ## %"for squashed_head1_filter.s0.n.preheader"
	movq	336(%rsp), %r8                  ## 8-byte Reload
	shlq	$2, %r8
	shlq	$2, %rbx
	leaq	3168(%rsp), %rax
	xorl	%ecx, %ecx
	vbroadcastss	LCPI0_36(%rip), %ymm15  ## ymm15 = [-1.44269502E+0,-1.44269502E+0,-1.44269502E+0,-1.44269502E+0,-1.44269502E+0,-1.44269502E+0,-1.44269502E+0,-1.44269502E+0]
	vbroadcastss	LCPI0_37(%rip), %ymm12  ## ymm12 = [6.93145751E-1,6.93145751E-1,6.93145751E-1,6.93145751E-1,6.93145751E-1,6.93145751E-1,6.93145751E-1,6.93145751E-1]
	vbroadcastss	LCPI0_38(%rip), %ymm3   ## ymm3 = [1.42860677E-6,1.42860677E-6,1.42860677E-6,1.42860677E-6,1.42860677E-6,1.42860677E-6,1.42860677E-6,1.42860677E-6]
	vpbroadcastd	LCPI0_39(%rip), %ymm4   ## ymm4 = [4294967169,4294967169,4294967169,4294967169,4294967169,4294967169,4294967169,4294967169]
	vpbroadcastd	LCPI0_40(%rip), %ymm6   ## ymm6 = [128,128,128,128,128,128,128,128]
	vbroadcastss	LCPI0_41(%rip), %ymm14  ## ymm14 = [-3.19659332E-4,-3.19659332E-4,-3.19659332E-4,-3.19659332E-4,-3.19659332E-4,-3.19659332E-4,-3.19659332E-4,-3.19659332E-4]
	vbroadcastss	LCPI0_42(%rip), %ymm7   ## ymm7 = [-8.48988629E-3,-8.48988629E-3,-8.48988629E-3,-8.48988629E-3,-8.48988629E-3,-8.48988629E-3,-8.48988629E-3,-8.48988629E-3]
	vbroadcastss	LCPI0_43(%rip), %ymm9   ## ymm9 = [-1.66679844E-1,-1.66679844E-1,-1.66679844E-1,-1.66679844E-1,-1.66679844E-1,-1.66679844E-1,-1.66679844E-1,-1.66679844E-1]
	vbroadcastss	LCPI0_44(%rip), %ymm0   ## ymm0 = [-1.0E+0,-1.0E+0,-1.0E+0,-1.0E+0,-1.0E+0,-1.0E+0,-1.0E+0,-1.0E+0]
	vmovaps	%ymm0, 2592(%rsp)               ## 32-byte Spill
	vbroadcastss	LCPI0_45(%rip), %ymm0   ## ymm0 = [1.0E+0,1.0E+0,1.0E+0,1.0E+0,1.0E+0,1.0E+0,1.0E+0,1.0E+0]
	vmovaps	%ymm0, 2432(%rsp)               ## 32-byte Spill
	vbroadcastss	LCPI0_46(%rip), %ymm0   ## ymm0 = [1.19156833E-3,1.19156833E-3,1.19156833E-3,1.19156833E-3,1.19156833E-3,1.19156833E-3,1.19156833E-3,1.19156833E-3]
	vmovaps	%ymm0, 544(%rsp)                ## 32-byte Spill
	vbroadcastss	LCPI0_47(%rip), %ymm0   ## ymm0 = [4.16018814E-2,4.16018814E-2,4.16018814E-2,4.16018814E-2,4.16018814E-2,4.16018814E-2,4.16018814E-2,4.16018814E-2]
	vmovaps	%ymm0, 1216(%rsp)               ## 32-byte Spill
	vbroadcastss	LCPI0_48(%rip), %ymm0   ## ymm0 = [4.99998987E-1,4.99998987E-1,4.99998987E-1,4.99998987E-1,4.99998987E-1,4.99998987E-1,4.99998987E-1,4.99998987E-1]
	vmovaps	%ymm0, 256(%rsp)                ## 32-byte Spill
	vbroadcastss	LCPI0_45(%rip), %ymm0   ## ymm0 = [1.0E+0,1.0E+0,1.0E+0,1.0E+0,1.0E+0,1.0E+0,1.0E+0,1.0E+0]
	vmovaps	%ymm0, 2944(%rsp)               ## 32-byte Spill
	movq	192(%rsp), %r12                 ## 8-byte Reload
	movq	352(%rsp), %rdi                 ## 8-byte Reload
	vmovaps	2432(%rsp), %ymm1               ## 32-byte Reload
	vmovdqa	2944(%rsp), %ymm2               ## 32-byte Reload
	vmovaps	544(%rsp), %ymm0                ## 32-byte Reload
	.p2align	4, 0x90
LBB0_62:                                ## %"for squashed_head1_filter.s0.n"
                                        ## =>This Loop Header: Depth=1
                                        ##     Child Loop BB0_63 Depth 2
	movq	%rdi, %rdx
	xorl	%esi, %esi
	.p2align	4, 0x90
LBB0_63:                                ## %"for squashed_head1_filter.s0.s"
                                        ##   Parent Loop BB0_62 Depth=1
                                        ## =>  This Inner Loop Header: Depth=2
	vmovups	(%rdx), %ymm10
	vmulps	%ymm15, %ymm10, %ymm11
	vroundps	$1, %ymm11, %ymm11
	vfmadd231ps	%ymm12, %ymm11, %ymm10  ## ymm10 = (ymm11 * ymm12) + ymm10
	vfmadd231ps	%ymm11, %ymm3, %ymm10   ## ymm10 = (ymm3 * ymm11) + ymm10
	vmovaps	%ymm3, %ymm5
	vmovaps	%ymm12, %ymm3
	vmulps	%ymm10, %ymm10, %ymm12
	vmovaps	%ymm14, %ymm13
	vfmadd213ps	%ymm7, %ymm12, %ymm13   ## ymm13 = (ymm12 * ymm13) + ymm7
	vfmadd213ps	%ymm9, %ymm12, %ymm13   ## ymm13 = (ymm12 * ymm13) + ymm9
	vfmadd213ps	2592(%rsp), %ymm12, %ymm13 ## 32-byte Folded Reload
                                        ## ymm13 = (ymm12 * ymm13) + mem
	vmovaps	%ymm7, %ymm8
	vmovaps	%ymm14, %ymm7
	vmovaps	%ymm0, %ymm14
	vfmadd213ps	1216(%rsp), %ymm12, %ymm14 ## 32-byte Folded Reload
                                        ## ymm14 = (ymm12 * ymm14) + mem
	vfmadd213ps	256(%rsp), %ymm12, %ymm14 ## 32-byte Folded Reload
                                        ## ymm14 = (ymm12 * ymm14) + mem
	vfmadd213ps	%ymm1, %ymm12, %ymm14   ## ymm14 = (ymm12 * ymm14) + ymm1
	vfmadd231ps	%ymm13, %ymm10, %ymm14  ## ymm14 = (ymm10 * ymm13) + ymm14
	vcvttps2dq	%ymm11, %ymm10
	vpslld	$23, %ymm10, %ymm11
	vpaddd	%ymm2, %ymm11, %ymm11
	vfmadd213ps	%ymm1, %ymm14, %ymm11   ## ymm11 = (ymm14 * ymm11) + ymm1
	vmovaps	%ymm7, %ymm14
	vmovaps	%ymm8, %ymm7
	vdivps	%ymm11, %ymm1, %ymm11
	vpcmpgtd	%ymm10, %ymm6, %ymm12
	vpand	%ymm11, %ymm12, %ymm11
	vmovaps	%ymm3, %ymm12
	vmovaps	%ymm5, %ymm3
	vpcmpgtd	%ymm4, %ymm10, %ymm10
	vblendvps	%ymm10, %ymm11, %ymm1, %ymm10
	vmovaps	%ymm10, (%rax,%rsi)
	addq	$32, %rsi
	addq	%rbx, %rdx
	cmpq	$1280, %rsi                     ## imm = 0x500
	jne	LBB0_63
## %bb.64:                              ## %"end for squashed_head1_filter.s0.s"
                                        ##   in Loop: Header=BB0_62 Depth=1
	incq	%rcx
	addq	$1280, %rax                     ## imm = 0x500
	addq	%r8, %rdi
	cmpq	$7, %rcx
	jne	LBB0_62
## %bb.65:                              ## %"end for squashed_head1_filter.s0.n"
	vmovdqa	%ymm4, 3040(%rsp)               ## 32-byte Spill
	leal	-1(%r12), %edx
	movl	%edx, %eax
	sarl	$2, %eax
	movl	$-1, %ecx
	cmovnsl	%eax, %ecx
	leal	4(,%rcx,4), %eax
	cmpl	$16777216, %eax                 ## imm = 0x1000000
	jae	LBB0_167
## %bb.66:                              ## %"assert succeeded162"
	movl	%edx, 608(%rsp)                 ## 4-byte Spill
	movl	%eax, %esi
	shlq	$7, %rsi
	orq	$12, %rsi
	xorl	%edi, %edi
	vzeroupper
	callq	_halide_malloc
	testq	%rax, %rax
	je	LBB0_168
## %bb.67:                              ## %"assert succeeded164"
	movq	%rax, %rsi
	movl	%r12d, %ebx
	testl	%r12d, %r12d
	movq	%rsi, 88(%rsp)                  ## 8-byte Spill
	movq	%rbx, 512(%rsp)                 ## 8-byte Spill
	jle	LBB0_81
## %bb.68:                              ## %"for conv1_stage1.s0.w.preheader"
	movq	80(%rsp), %rax                  ## 8-byte Reload
	vmovups	(%rax), %ymm0
	vmovups	32(%rax), %ymm1
	vmovups	64(%rax), %ymm2
	vmovups	96(%rax), %ymm3
	leaq	-1(%rbx), %rcx
	movl	%ebx, %eax
	andl	$7, %eax
	cmpq	$7, %rcx
	jae	LBB0_70
## %bb.69:
	xorl	%ecx, %ecx
	jmp	LBB0_72
LBB0_70:                                ## %"for conv1_stage1.s0.w.preheader.new"
	movl	%ebx, %edx
	andl	$-8, %edx
	addq	$992, %rsi                      ## imm = 0x3E0
	xorl	%ecx, %ecx
	.p2align	4, 0x90
LBB0_71:                                ## %"for conv1_stage1.s0.w"
                                        ## =>This Inner Loop Header: Depth=1
	vmovaps	%ymm0, -992(%rsi)
	vmovaps	%ymm1, -960(%rsi)
	vmovaps	%ymm2, -928(%rsi)
	vmovaps	%ymm3, -896(%rsi)
	vmovaps	%ymm0, -864(%rsi)
	vmovaps	%ymm1, -832(%rsi)
	vmovaps	%ymm2, -800(%rsi)
	vmovaps	%ymm3, -768(%rsi)
	vmovaps	%ymm0, -736(%rsi)
	vmovaps	%ymm1, -704(%rsi)
	vmovaps	%ymm2, -672(%rsi)
	vmovaps	%ymm3, -640(%rsi)
	vmovaps	%ymm0, -608(%rsi)
	vmovaps	%ymm1, -576(%rsi)
	vmovaps	%ymm2, -544(%rsi)
	vmovaps	%ymm3, -512(%rsi)
	vmovaps	%ymm0, -480(%rsi)
	vmovaps	%ymm1, -448(%rsi)
	vmovaps	%ymm2, -416(%rsi)
	vmovaps	%ymm3, -384(%rsi)
	vmovaps	%ymm0, -352(%rsi)
	vmovaps	%ymm1, -320(%rsi)
	vmovaps	%ymm2, -288(%rsi)
	vmovaps	%ymm3, -256(%rsi)
	vmovaps	%ymm0, -224(%rsi)
	vmovaps	%ymm1, -192(%rsi)
	vmovaps	%ymm2, -160(%rsi)
	vmovaps	%ymm3, -128(%rsi)
	vmovaps	%ymm0, -96(%rsi)
	vmovaps	%ymm1, -64(%rsi)
	vmovaps	%ymm2, -32(%rsi)
	vmovaps	%ymm3, (%rsi)
	addq	$8, %rcx
	addq	$1024, %rsi                     ## imm = 0x400
	cmpq	%rcx, %rdx
	jne	LBB0_71
LBB0_72:                                ## %"for conv1_stage1.s1.w.preheader.unr-lcssa"
	testq	%rax, %rax
	movq	600(%rsp), %rsi                 ## 8-byte Reload
	je	LBB0_75
## %bb.73:                              ## %"for conv1_stage1.s0.w.epil.preheader"
	shlq	$7, %rcx
	movq	88(%rsp), %rdx                  ## 8-byte Reload
	addq	%rdx, %rcx
	addq	$96, %rcx
	shlq	$7, %rax
	xorl	%edx, %edx
	.p2align	4, 0x90
LBB0_74:                                ## %"for conv1_stage1.s0.w.epil"
                                        ## =>This Inner Loop Header: Depth=1
	vmovaps	%ymm0, -96(%rcx,%rdx)
	vmovaps	%ymm1, -64(%rcx,%rdx)
	vmovaps	%ymm2, -32(%rcx,%rdx)
	vmovaps	%ymm3, (%rcx,%rdx)
	subq	$-128, %rdx
	cmpq	%rdx, %rax
	jne	LBB0_74
LBB0_75:                                ## %"for conv1_stage1.s1.w.preheader"
	movq	40(%rsp), %rax                  ## 8-byte Reload
	movl	%eax, %edx
	movq	72(%rsp), %rcx                  ## 8-byte Reload
	imull	%ecx, %edx
	movl	%edx, 1920(%rsp)                ## 4-byte Spill
	movl	$1, %edx
	subl	%eax, %edx
	imull	%ecx, %edx
	movq	%rdx, 2496(%rsp)                ## 8-byte Spill
	movl	$2, %edx
	subl	%eax, %edx
	imull	%ecx, %edx
	movq	%rdx, 2016(%rsp)                ## 8-byte Spill
	movl	$3, %edx
	subl	%eax, %edx
	imull	%ecx, %edx
	movq	%rdx, 1984(%rsp)                ## 8-byte Spill
	movl	$4, %edx
	subl	%eax, %edx
	imull	%ecx, %edx
	movq	%rdx, 1952(%rsp)                ## 8-byte Spill
	movl	$5, %edx
	subl	%eax, %edx
	imull	%ecx, %edx
	movq	%rdx, 2464(%rsp)                ## 8-byte Spill
	movl	$6, %edx
	subl	%eax, %edx
	imull	%ecx, %edx
	movl	%edx, 1536(%rsp)                ## 4-byte Spill
	leaq	(,%rsi,4), %rdx
	xorl	%ecx, %ecx
	vxorps	%xmm13, %xmm13, %xmm13
	.p2align	4, 0x90
LBB0_76:                                ## %"for conv1_stage1.s1.w"
                                        ## =>This Loop Header: Depth=1
                                        ##     Child Loop BB0_77 Depth 2
                                        ##       Child Loop BB0_78 Depth 3
	movq	%rcx, %r9
	shlq	$5, %r9
	movq	%rcx, %r14
                                        ## kill: def $ecx killed $ecx killed $rcx def $rcx
	subl	2528(%rsp), %ecx                ## 4-byte Folded Reload
	imull	2368(%rsp), %ecx                ## 4-byte Folded Reload
	subl	2560(%rsp), %ecx                ## 4-byte Folded Reload
	movl	%ecx, %eax
	subl	1920(%rsp), %eax                ## 4-byte Folded Reload
	cltq
	movq	2496(%rsp), %rsi                ## 8-byte Reload
	addl	%ecx, %esi
	movslq	%esi, %rdi
	movq	2016(%rsp), %rsi                ## 8-byte Reload
	leal	(%rcx,%rsi), %esi
	movslq	%esi, %rsi
	movq	1984(%rsp), %rbx                ## 8-byte Reload
	addl	%ecx, %ebx
	movslq	%ebx, %r12
	movq	1952(%rsp), %rbx                ## 8-byte Reload
	addl	%ecx, %ebx
	movslq	%ebx, %r13
	movq	2464(%rsp), %rbx                ## 8-byte Reload
	addl	%ecx, %ebx
	movslq	%ebx, %r10
	addl	1536(%rsp), %ecx                ## 4-byte Folded Reload
	movslq	%ecx, %r8
	movq	2400(%rsp), %rcx                ## 8-byte Reload
	vmovups	(%rcx,%rax,4), %xmm5
	vmovups	16(%rcx,%rax,4), %xmm6
	vmovups	32(%rcx,%rax,4), %xmm1
	vmovaps	%xmm1, 1216(%rsp)               ## 16-byte Spill
	vmovups	48(%rcx,%rax,4), %xmm1
	vmovaps	%xmm1, 256(%rsp)                ## 16-byte Spill
	vmovups	64(%rcx,%rax,4), %xmm7
	vmovups	80(%rcx,%rax,4), %xmm1
	vmovups	96(%rcx,%rax,4), %xmm0
	vmovups	112(%rcx,%rax,4), %xmm10
	vmovups	128(%rcx,%rax,4), %xmm2
	vmovaps	%xmm2, 544(%rsp)                ## 16-byte Spill
	vmovss	144(%rcx,%rax,4), %xmm2         ## xmm2 = mem[0],zero,zero,zero
	vmovss	%xmm2, 32(%rsp)                 ## 4-byte Spill
	vmovss	148(%rcx,%rax,4), %xmm2         ## xmm2 = mem[0],zero,zero,zero
	vmovss	%xmm2, 40(%rsp)                 ## 4-byte Spill
	vmovss	152(%rcx,%rax,4), %xmm2         ## xmm2 = mem[0],zero,zero,zero
	vmovss	%xmm2, 80(%rsp)                 ## 4-byte Spill
	vmovss	156(%rcx,%rax,4), %xmm2         ## xmm2 = mem[0],zero,zero,zero
	vmovss	%xmm2, 72(%rsp)                 ## 4-byte Spill
	movq	%r9, %rax
	vmovups	(%rcx,%rdi,4), %xmm2
	vmovaps	%xmm2, 352(%rsp)                ## 16-byte Spill
	vmovups	16(%rcx,%rdi,4), %xmm2
	vmovaps	%xmm2, 336(%rsp)                ## 16-byte Spill
	vmovups	32(%rcx,%rdi,4), %xmm2
	vmovaps	%xmm2, 240(%rsp)                ## 16-byte Spill
	movq	728(%rsp), %r11                 ## 8-byte Reload
	xorl	%r9d, %r9d
	vmovups	48(%rcx,%rdi,4), %xmm2
	vmovaps	%xmm2, 144(%rsp)                ## 16-byte Spill
	vmovups	64(%rcx,%rdi,4), %xmm2
	vmovaps	%xmm2, 176(%rsp)                ## 16-byte Spill
	vmovups	80(%rcx,%rdi,4), %xmm2
	vmovaps	%xmm2, 160(%rsp)                ## 16-byte Spill
	vmovups	96(%rcx,%rdi,4), %xmm2
	vmovaps	%xmm2, 224(%rsp)                ## 16-byte Spill
	vmovups	112(%rcx,%rdi,4), %xmm2
	vmovaps	%xmm2, 304(%rsp)                ## 16-byte Spill
	vmovups	128(%rcx,%rdi,4), %xmm2
	vmovaps	%xmm2, 288(%rsp)                ## 16-byte Spill
	vmovss	144(%rcx,%rdi,4), %xmm2         ## xmm2 = mem[0],zero,zero,zero
	vmovss	%xmm2, 736(%rsp)                ## 4-byte Spill
	vmovss	148(%rcx,%rdi,4), %xmm2         ## xmm2 = mem[0],zero,zero,zero
	vmovss	%xmm2, 64(%rsp)                 ## 4-byte Spill
	vmovss	152(%rcx,%rdi,4), %xmm2         ## xmm2 = mem[0],zero,zero,zero
	vmovss	%xmm2, 56(%rsp)                 ## 4-byte Spill
	vmovss	156(%rcx,%rdi,4), %xmm2         ## xmm2 = mem[0],zero,zero,zero
	vmovss	%xmm2, 48(%rsp)                 ## 4-byte Spill
	vmovups	(%rcx,%rsi,4), %xmm2
	vmovaps	%xmm2, 320(%rsp)                ## 16-byte Spill
	vmovups	16(%rcx,%rsi,4), %xmm2
	vmovaps	%xmm2, 400(%rsp)                ## 16-byte Spill
	vmovups	32(%rcx,%rsi,4), %xmm2
	vmovaps	%xmm2, 384(%rsp)                ## 16-byte Spill
	vmovups	48(%rcx,%rsi,4), %xmm2
	vmovaps	%xmm2, 1152(%rsp)               ## 16-byte Spill
	vmovups	64(%rcx,%rsi,4), %xmm2
	vmovaps	%xmm2, 464(%rsp)                ## 16-byte Spill
	vmovups	80(%rcx,%rsi,4), %xmm2
	vmovaps	%xmm2, 448(%rsp)                ## 16-byte Spill
	vmovups	96(%rcx,%rsi,4), %xmm2
	vmovaps	%xmm2, 432(%rsp)                ## 16-byte Spill
	vmovups	112(%rcx,%rsi,4), %xmm2
	vmovaps	%xmm2, 416(%rsp)                ## 16-byte Spill
	vmovups	128(%rcx,%rsi,4), %xmm2
	vmovaps	%xmm2, 480(%rsp)                ## 16-byte Spill
	vmovss	144(%rcx,%rsi,4), %xmm2         ## xmm2 = mem[0],zero,zero,zero
	vmovss	%xmm2, 112(%rsp)                ## 4-byte Spill
	vmovss	148(%rcx,%rsi,4), %xmm2         ## xmm2 = mem[0],zero,zero,zero
	vmovss	%xmm2, 104(%rsp)                ## 4-byte Spill
	vmovss	152(%rcx,%rsi,4), %xmm2         ## xmm2 = mem[0],zero,zero,zero
	vmovss	%xmm2, 128(%rsp)                ## 4-byte Spill
	vmovss	156(%rcx,%rsi,4), %xmm2         ## xmm2 = mem[0],zero,zero,zero
	vmovss	%xmm2, 120(%rsp)                ## 4-byte Spill
	movq	88(%rsp), %rsi                  ## 8-byte Reload
	vmovups	(%rcx,%r12,4), %xmm2
	vmovaps	%xmm2, 640(%rsp)                ## 16-byte Spill
	vmovups	16(%rcx,%r12,4), %xmm2
	vmovaps	%xmm2, 912(%rsp)                ## 16-byte Spill
	vmovups	32(%rcx,%r12,4), %xmm2
	vmovaps	%xmm2, 896(%rsp)                ## 16-byte Spill
	vmovups	48(%rcx,%r12,4), %xmm2
	vmovaps	%xmm2, 880(%rsp)                ## 16-byte Spill
	vmovups	64(%rcx,%r12,4), %xmm2
	vmovaps	%xmm2, 864(%rsp)                ## 16-byte Spill
	vmovups	80(%rcx,%r12,4), %xmm2
	vmovaps	%xmm2, 848(%rsp)                ## 16-byte Spill
	vmovups	96(%rcx,%r12,4), %xmm2
	vmovaps	%xmm2, 832(%rsp)                ## 16-byte Spill
	vmovups	112(%rcx,%r12,4), %xmm2
	vmovaps	%xmm2, 816(%rsp)                ## 16-byte Spill
	vmovups	128(%rcx,%r12,4), %xmm2
	vmovaps	%xmm2, 1328(%rsp)               ## 16-byte Spill
	vmovss	144(%rcx,%r12,4), %xmm2         ## xmm2 = mem[0],zero,zero,zero
	vmovss	%xmm2, 1696(%rsp)               ## 4-byte Spill
	vmovss	148(%rcx,%r12,4), %xmm2         ## xmm2 = mem[0],zero,zero,zero
	vmovss	%xmm2, 1344(%rsp)               ## 4-byte Spill
	vmovss	152(%rcx,%r12,4), %xmm2         ## xmm2 = mem[0],zero,zero,zero
	vmovss	%xmm2, 208(%rsp)                ## 4-byte Spill
	vmovss	156(%rcx,%r12,4), %xmm2         ## xmm2 = mem[0],zero,zero,zero
	vmovss	%xmm2, 200(%rsp)                ## 4-byte Spill
	vmovups	(%rcx,%r13,4), %xmm2
	vmovaps	%xmm2, 688(%rsp)                ## 16-byte Spill
	vmovups	16(%rcx,%r13,4), %xmm2
	vmovaps	%xmm2, 672(%rsp)                ## 16-byte Spill
	vmovups	32(%rcx,%r13,4), %xmm2
	vmovaps	%xmm2, 656(%rsp)                ## 16-byte Spill
	vmovups	48(%rcx,%r13,4), %xmm2
	vmovaps	%xmm2, 800(%rsp)                ## 16-byte Spill
	vmovups	64(%rcx,%r13,4), %xmm2
	vmovaps	%xmm2, 784(%rsp)                ## 16-byte Spill
	vmovups	80(%rcx,%r13,4), %xmm2
	vmovaps	%xmm2, 768(%rsp)                ## 16-byte Spill
	vmovups	96(%rcx,%r13,4), %xmm2
	vmovaps	%xmm2, 1200(%rsp)               ## 16-byte Spill
	vmovups	112(%rcx,%r13,4), %xmm2
	vmovaps	%xmm2, 2208(%rsp)               ## 16-byte Spill
	vmovups	128(%rcx,%r13,4), %xmm2
	vmovaps	%xmm2, 1664(%rsp)               ## 16-byte Spill
	vmovss	144(%rcx,%r13,4), %xmm2         ## xmm2 = mem[0],zero,zero,zero
	vmovss	%xmm2, 1632(%rsp)               ## 4-byte Spill
	vmovss	148(%rcx,%r13,4), %xmm2         ## xmm2 = mem[0],zero,zero,zero
	vmovss	%xmm2, 2176(%rsp)               ## 4-byte Spill
	vmovss	152(%rcx,%r13,4), %xmm2         ## xmm2 = mem[0],zero,zero,zero
	vmovss	%xmm2, 2144(%rsp)               ## 4-byte Spill
	vmovss	156(%rcx,%r13,4), %xmm2         ## xmm2 = mem[0],zero,zero,zero
	vmovss	%xmm2, 2112(%rsp)               ## 4-byte Spill
	vmovups	(%rcx,%r10,4), %xmm2
	vmovaps	%xmm2, 2080(%rsp)               ## 16-byte Spill
	vmovups	16(%rcx,%r10,4), %xmm2
	vmovaps	%xmm2, 2048(%rsp)               ## 16-byte Spill
	vmovups	32(%rcx,%r10,4), %xmm2
	vmovaps	%xmm2, 1600(%rsp)               ## 16-byte Spill
	vmovups	48(%rcx,%r10,4), %xmm2
	vmovaps	%xmm2, 1568(%rsp)               ## 16-byte Spill
	vmovups	64(%rcx,%r10,4), %xmm2
	vmovaps	%xmm2, 1184(%rsp)               ## 16-byte Spill
	vmovups	80(%rcx,%r10,4), %xmm2
	vmovaps	%xmm2, 1824(%rsp)               ## 16-byte Spill
	vmovups	96(%rcx,%r10,4), %xmm2
	vmovaps	%xmm2, 1792(%rsp)               ## 16-byte Spill
	vmovups	112(%rcx,%r10,4), %xmm2
	vmovaps	%xmm2, 1760(%rsp)               ## 16-byte Spill
	vmovups	128(%rcx,%r10,4), %xmm2
	vmovaps	%xmm2, 1728(%rsp)               ## 16-byte Spill
	vmovss	144(%rcx,%r10,4), %xmm2         ## xmm2 = mem[0],zero,zero,zero
	vmovss	%xmm2, 536(%rsp)                ## 4-byte Spill
	vmovss	148(%rcx,%r10,4), %xmm2         ## xmm2 = mem[0],zero,zero,zero
	vmovss	%xmm2, 528(%rsp)                ## 4-byte Spill
	vmovss	152(%rcx,%r10,4), %xmm2         ## xmm2 = mem[0],zero,zero,zero
	vmovss	%xmm2, 520(%rsp)                ## 4-byte Spill
	vmovss	156(%rcx,%r10,4), %xmm2         ## xmm2 = mem[0],zero,zero,zero
	vmovss	%xmm2, 632(%rsp)                ## 4-byte Spill
	vmovups	(%rcx,%r8,4), %xmm2
	vmovaps	%xmm2, 1312(%rsp)               ## 16-byte Spill
	vmovups	16(%rcx,%r8,4), %xmm2
	vmovaps	%xmm2, 1296(%rsp)               ## 16-byte Spill
	vmovups	32(%rcx,%r8,4), %xmm2
	vmovaps	%xmm2, 1376(%rsp)               ## 16-byte Spill
	vmovups	48(%rcx,%r8,4), %xmm2
	vmovaps	%xmm2, 2752(%rsp)               ## 16-byte Spill
	vmovups	64(%rcx,%r8,4), %xmm2
	vmovaps	%xmm2, 2720(%rsp)               ## 16-byte Spill
	vmovups	80(%rcx,%r8,4), %xmm2
	vmovaps	%xmm2, 2688(%rsp)               ## 16-byte Spill
	vmovups	96(%rcx,%r8,4), %xmm2
	vmovaps	%xmm2, 2656(%rsp)               ## 16-byte Spill
	vmovups	112(%rcx,%r8,4), %xmm2
	vmovaps	%xmm2, 2624(%rsp)               ## 16-byte Spill
	vmovups	128(%rcx,%r8,4), %xmm12
	vmovss	144(%rcx,%r8,4), %xmm8          ## xmm8 = mem[0],zero,zero,zero
	vmovss	148(%rcx,%r8,4), %xmm14         ## xmm14 = mem[0],zero,zero,zero
	vmovss	152(%rcx,%r8,4), %xmm15         ## xmm15 = mem[0],zero,zero,zero
	vmovss	156(%rcx,%r8,4), %xmm11         ## xmm11 = mem[0],zero,zero,zero
	.p2align	4, 0x90
LBB0_77:                                ## %"for conv1_stage1.s1.c"
                                        ##   Parent Loop BB0_76 Depth=1
                                        ## =>  This Loop Header: Depth=2
                                        ##       Child Loop BB0_78 Depth 3
	leaq	(%r9,%rax), %r10
	vmovss	(%rsi,%r10,4), %xmm9            ## xmm9 = mem[0],zero,zero,zero
	movq	%r11, %r8
	xorl	%edi, %edi
	.p2align	4, 0x90
LBB0_78:                                ## %"for conv1_stage1.s1.r54$x"
                                        ##   Parent Loop BB0_76 Depth=1
                                        ##     Parent Loop BB0_77 Depth=2
                                        ## =>    This Inner Loop Header: Depth=3
	vmovaps	%xmm10, %xmm3
	vmovups	3264(%rsp,%rdi,4), %xmm10
	vunpcklpd	3232(%rsp,%rdi,4), %xmm10, %xmm2 ## xmm2 = xmm10[0],mem[0]
	vmovaps	%xmm3, %xmm10
	vmovups	3168(%rsp,%rdi,4), %xmm3
	vunpcklps	3200(%rsp,%rdi,4), %xmm3, %xmm3 ## xmm3 = xmm3[0],mem[0],xmm3[1],mem[1]
	vmovss	(%r15,%rdi,4), %xmm4            ## xmm4 = mem[0],zero,zero,zero
	vshufps	$36, %xmm2, %xmm3, %xmm2        ## xmm2 = xmm3[0,1],xmm2[2,0]
	vmovups	3392(%rsp,%rdi,4), %xmm3
	vunpcklpd	3360(%rsp,%rdi,4), %xmm3, %xmm3 ## xmm3 = xmm3[0],mem[0]
	vfmadd213ps	%xmm4, %xmm5, %xmm2     ## xmm2 = (xmm5 * xmm2) + xmm4
	vmovups	3296(%rsp,%rdi,4), %xmm4
	vunpcklps	3328(%rsp,%rdi,4), %xmm4, %xmm4 ## xmm4 = xmm4[0],mem[0],xmm4[1],mem[1]
	vshufps	$36, %xmm3, %xmm4, %xmm3        ## xmm3 = xmm4[0,1],xmm3[2,0]
	vmovups	3520(%rsp,%rdi,4), %xmm4
	vunpcklpd	3488(%rsp,%rdi,4), %xmm4, %xmm4 ## xmm4 = xmm4[0],mem[0]
	vfmadd213ps	%xmm2, %xmm6, %xmm3     ## xmm3 = (xmm6 * xmm3) + xmm2
	vmovups	3424(%rsp,%rdi,4), %xmm2
	vunpcklps	3456(%rsp,%rdi,4), %xmm2, %xmm2 ## xmm2 = xmm2[0],mem[0],xmm2[1],mem[1]
	vshufps	$36, %xmm4, %xmm2, %xmm2        ## xmm2 = xmm2[0,1],xmm4[2,0]
	vmovups	3648(%rsp,%rdi,4), %xmm4
	vunpcklpd	3616(%rsp,%rdi,4), %xmm4, %xmm4 ## xmm4 = xmm4[0],mem[0]
	vfmadd132ps	1216(%rsp), %xmm3, %xmm2 ## 16-byte Folded Reload
                                        ## xmm2 = (xmm2 * mem) + xmm3
	vmovups	3552(%rsp,%rdi,4), %xmm3
	vunpcklps	3584(%rsp,%rdi,4), %xmm3, %xmm3 ## xmm3 = xmm3[0],mem[0],xmm3[1],mem[1]
	vshufps	$36, %xmm4, %xmm3, %xmm3        ## xmm3 = xmm3[0,1],xmm4[2,0]
	vmovups	3776(%rsp,%rdi,4), %xmm4
	vunpcklpd	3744(%rsp,%rdi,4), %xmm4, %xmm4 ## xmm4 = xmm4[0],mem[0]
	vfmadd132ps	256(%rsp), %xmm2, %xmm3 ## 16-byte Folded Reload
                                        ## xmm3 = (xmm3 * mem) + xmm2
	vmovups	3680(%rsp,%rdi,4), %xmm2
	vunpcklps	3712(%rsp,%rdi,4), %xmm2, %xmm2 ## xmm2 = xmm2[0],mem[0],xmm2[1],mem[1]
	vshufps	$36, %xmm4, %xmm2, %xmm2        ## xmm2 = xmm2[0,1],xmm4[2,0]
	vmovups	3904(%rsp,%rdi,4), %xmm4
	vunpcklpd	3872(%rsp,%rdi,4), %xmm4, %xmm4 ## xmm4 = xmm4[0],mem[0]
	vfmadd213ps	%xmm3, %xmm7, %xmm2     ## xmm2 = (xmm7 * xmm2) + xmm3
	vmovups	3808(%rsp,%rdi,4), %xmm3
	vunpcklps	3840(%rsp,%rdi,4), %xmm3, %xmm3 ## xmm3 = xmm3[0],mem[0],xmm3[1],mem[1]
	vshufps	$36, %xmm4, %xmm3, %xmm3        ## xmm3 = xmm3[0,1],xmm4[2,0]
	vmovups	4032(%rsp,%rdi,4), %xmm4
	vunpcklpd	4000(%rsp,%rdi,4), %xmm4, %xmm4 ## xmm4 = xmm4[0],mem[0]
	vfmadd213ps	%xmm2, %xmm1, %xmm3     ## xmm3 = (xmm1 * xmm3) + xmm2
	vmovups	3936(%rsp,%rdi,4), %xmm2
	vunpcklps	3968(%rsp,%rdi,4), %xmm2, %xmm2 ## xmm2 = xmm2[0],mem[0],xmm2[1],mem[1]
	vshufps	$36, %xmm4, %xmm2, %xmm2        ## xmm2 = xmm2[0,1],xmm4[2,0]
	vmovups	4160(%rsp,%rdi,4), %xmm4
	vunpcklpd	4128(%rsp,%rdi,4), %xmm4, %xmm4 ## xmm4 = xmm4[0],mem[0]
	vfmadd213ps	%xmm3, %xmm0, %xmm2     ## xmm2 = (xmm0 * xmm2) + xmm3
	vmovups	4064(%rsp,%rdi,4), %xmm3
	vunpcklps	4096(%rsp,%rdi,4), %xmm3, %xmm3 ## xmm3 = xmm3[0],mem[0],xmm3[1],mem[1]
	vshufps	$36, %xmm4, %xmm3, %xmm3        ## xmm3 = xmm3[0,1],xmm4[2,0]
	vmovups	4288(%rsp,%rdi,4), %xmm4
	vunpcklpd	4256(%rsp,%rdi,4), %xmm4, %xmm4 ## xmm4 = xmm4[0],mem[0]
	vfmadd213ps	%xmm2, %xmm10, %xmm3    ## xmm3 = (xmm10 * xmm3) + xmm2
	vmovups	4192(%rsp,%rdi,4), %xmm2
	vunpcklps	4224(%rsp,%rdi,4), %xmm2, %xmm2 ## xmm2 = xmm2[0],mem[0],xmm2[1],mem[1]
	vshufps	$36, %xmm4, %xmm2, %xmm2        ## xmm2 = xmm2[0,1],xmm4[2,0]
	vfmadd132ps	544(%rsp), %xmm3, %xmm2 ## 16-byte Folded Reload
                                        ## xmm2 = (xmm2 * mem) + xmm3
	vpermilpd	$1, %xmm2, %xmm3        ## xmm3 = xmm2[1,0]
	vaddps	%xmm3, %xmm2, %xmm2
	vmovshdup	%xmm2, %xmm3            ## xmm3 = xmm2[1,1,3,3]
	vaddss	%xmm3, %xmm2, %xmm2
	vmovss	32(%rsp), %xmm3                 ## 4-byte Reload
                                        ## xmm3 = mem[0],zero,zero,zero
	vfmadd231ss	4320(%rsp,%rdi,4), %xmm3, %xmm2 ## xmm2 = (xmm3 * mem) + xmm2
	vmovss	40(%rsp), %xmm3                 ## 4-byte Reload
                                        ## xmm3 = mem[0],zero,zero,zero
	vfmadd231ss	4352(%rsp,%rdi,4), %xmm3, %xmm2 ## xmm2 = (xmm3 * mem) + xmm2
	vmovss	80(%rsp), %xmm3                 ## 4-byte Reload
                                        ## xmm3 = mem[0],zero,zero,zero
	vfmadd231ss	4384(%rsp,%rdi,4), %xmm3, %xmm2 ## xmm2 = (xmm3 * mem) + xmm2
	vmovss	72(%rsp), %xmm3                 ## 4-byte Reload
                                        ## xmm3 = mem[0],zero,zero,zero
	vfmadd231ss	4416(%rsp,%rdi,4), %xmm3, %xmm2 ## xmm2 = (xmm3 * mem) + xmm2
	vmovups	4544(%rsp,%rdi,4), %xmm3
	vunpcklpd	4512(%rsp,%rdi,4), %xmm3, %xmm3 ## xmm3 = xmm3[0],mem[0]
	vmovups	4448(%rsp,%rdi,4), %xmm4
	vblendps	$1, %xmm2, %xmm13, %xmm2        ## xmm2 = xmm2[0],xmm13[1,2,3]
	vunpcklps	4480(%rsp,%rdi,4), %xmm4, %xmm4 ## xmm4 = xmm4[0],mem[0],xmm4[1],mem[1]
	vshufps	$36, %xmm3, %xmm4, %xmm3        ## xmm3 = xmm4[0,1],xmm3[2,0]
	vfmadd132ps	352(%rsp), %xmm2, %xmm3 ## 16-byte Folded Reload
                                        ## xmm3 = (xmm3 * mem) + xmm2
	vmovups	4672(%rsp,%rdi,4), %xmm2
	vunpcklpd	4640(%rsp,%rdi,4), %xmm2, %xmm2 ## xmm2 = xmm2[0],mem[0]
	vmovups	4576(%rsp,%rdi,4), %xmm4
	vunpcklps	4608(%rsp,%rdi,4), %xmm4, %xmm4 ## xmm4 = xmm4[0],mem[0],xmm4[1],mem[1]
	vshufps	$36, %xmm2, %xmm4, %xmm2        ## xmm2 = xmm4[0,1],xmm2[2,0]
	vfmadd132ps	336(%rsp), %xmm3, %xmm2 ## 16-byte Folded Reload
                                        ## xmm2 = (xmm2 * mem) + xmm3
	vmovups	4800(%rsp,%rdi,4), %xmm3
	vunpcklpd	4768(%rsp,%rdi,4), %xmm3, %xmm3 ## xmm3 = xmm3[0],mem[0]
	vmovups	4704(%rsp,%rdi,4), %xmm4
	vunpcklps	4736(%rsp,%rdi,4), %xmm4, %xmm4 ## xmm4 = xmm4[0],mem[0],xmm4[1],mem[1]
	vshufps	$36, %xmm3, %xmm4, %xmm3        ## xmm3 = xmm4[0,1],xmm3[2,0]
	vfmadd132ps	240(%rsp), %xmm2, %xmm3 ## 16-byte Folded Reload
                                        ## xmm3 = (xmm3 * mem) + xmm2
	vmovups	4928(%rsp,%rdi,4), %xmm2
	vunpcklpd	4896(%rsp,%rdi,4), %xmm2, %xmm2 ## xmm2 = xmm2[0],mem[0]
	vmovups	4832(%rsp,%rdi,4), %xmm4
	vunpcklps	4864(%rsp,%rdi,4), %xmm4, %xmm4 ## xmm4 = xmm4[0],mem[0],xmm4[1],mem[1]
	vshufps	$36, %xmm2, %xmm4, %xmm2        ## xmm2 = xmm4[0,1],xmm2[2,0]
	vfmadd132ps	144(%rsp), %xmm3, %xmm2 ## 16-byte Folded Reload
                                        ## xmm2 = (xmm2 * mem) + xmm3
	vmovups	5056(%rsp,%rdi,4), %xmm3
	vunpcklpd	5024(%rsp,%rdi,4), %xmm3, %xmm3 ## xmm3 = xmm3[0],mem[0]
	vmovups	4960(%rsp,%rdi,4), %xmm4
	vunpcklps	4992(%rsp,%rdi,4), %xmm4, %xmm4 ## xmm4 = xmm4[0],mem[0],xmm4[1],mem[1]
	vshufps	$36, %xmm3, %xmm4, %xmm3        ## xmm3 = xmm4[0,1],xmm3[2,0]
	vfmadd132ps	176(%rsp), %xmm2, %xmm3 ## 16-byte Folded Reload
                                        ## xmm3 = (xmm3 * mem) + xmm2
	vmovups	5184(%rsp,%rdi,4), %xmm2
	vunpcklpd	5152(%rsp,%rdi,4), %xmm2, %xmm2 ## xmm2 = xmm2[0],mem[0]
	vmovups	5088(%rsp,%rdi,4), %xmm4
	vunpcklps	5120(%rsp,%rdi,4), %xmm4, %xmm4 ## xmm4 = xmm4[0],mem[0],xmm4[1],mem[1]
	vshufps	$36, %xmm2, %xmm4, %xmm2        ## xmm2 = xmm4[0,1],xmm2[2,0]
	vfmadd132ps	160(%rsp), %xmm3, %xmm2 ## 16-byte Folded Reload
                                        ## xmm2 = (xmm2 * mem) + xmm3
	vmovups	5312(%rsp,%rdi,4), %xmm3
	vunpcklpd	5280(%rsp,%rdi,4), %xmm3, %xmm3 ## xmm3 = xmm3[0],mem[0]
	vmovups	5216(%rsp,%rdi,4), %xmm4
	vunpcklps	5248(%rsp,%rdi,4), %xmm4, %xmm4 ## xmm4 = xmm4[0],mem[0],xmm4[1],mem[1]
	vshufps	$36, %xmm3, %xmm4, %xmm3        ## xmm3 = xmm4[0,1],xmm3[2,0]
	vfmadd132ps	224(%rsp), %xmm2, %xmm3 ## 16-byte Folded Reload
                                        ## xmm3 = (xmm3 * mem) + xmm2
	vmovups	5440(%rsp,%rdi,4), %xmm2
	vunpcklpd	5408(%rsp,%rdi,4), %xmm2, %xmm2 ## xmm2 = xmm2[0],mem[0]
	vmovups	5344(%rsp,%rdi,4), %xmm4
	vunpcklps	5376(%rsp,%rdi,4), %xmm4, %xmm4 ## xmm4 = xmm4[0],mem[0],xmm4[1],mem[1]
	vshufps	$36, %xmm2, %xmm4, %xmm2        ## xmm2 = xmm4[0,1],xmm2[2,0]
	vfmadd132ps	304(%rsp), %xmm3, %xmm2 ## 16-byte Folded Reload
                                        ## xmm2 = (xmm2 * mem) + xmm3
	vmovups	5568(%rsp,%rdi,4), %xmm3
	vunpcklpd	5536(%rsp,%rdi,4), %xmm3, %xmm3 ## xmm3 = xmm3[0],mem[0]
	vmovups	5472(%rsp,%rdi,4), %xmm4
	vunpcklps	5504(%rsp,%rdi,4), %xmm4, %xmm4 ## xmm4 = xmm4[0],mem[0],xmm4[1],mem[1]
	vshufps	$36, %xmm3, %xmm4, %xmm3        ## xmm3 = xmm4[0,1],xmm3[2,0]
	vfmadd132ps	288(%rsp), %xmm2, %xmm3 ## 16-byte Folded Reload
                                        ## xmm3 = (xmm3 * mem) + xmm2
	vpermilpd	$1, %xmm3, %xmm2        ## xmm2 = xmm3[1,0]
	vaddps	%xmm2, %xmm3, %xmm2
	vmovshdup	%xmm2, %xmm3            ## xmm3 = xmm2[1,1,3,3]
	vaddss	%xmm3, %xmm2, %xmm2
	vmovss	736(%rsp), %xmm3                ## 4-byte Reload
                                        ## xmm3 = mem[0],zero,zero,zero
	vfmadd231ss	5600(%rsp,%rdi,4), %xmm3, %xmm2 ## xmm2 = (xmm3 * mem) + xmm2
	vmovss	64(%rsp), %xmm3                 ## 4-byte Reload
                                        ## xmm3 = mem[0],zero,zero,zero
	vfmadd231ss	5632(%rsp,%rdi,4), %xmm3, %xmm2 ## xmm2 = (xmm3 * mem) + xmm2
	vmovss	56(%rsp), %xmm3                 ## 4-byte Reload
                                        ## xmm3 = mem[0],zero,zero,zero
	vfmadd231ss	5664(%rsp,%rdi,4), %xmm3, %xmm2 ## xmm2 = (xmm3 * mem) + xmm2
	vmovss	48(%rsp), %xmm3                 ## 4-byte Reload
                                        ## xmm3 = mem[0],zero,zero,zero
	vfmadd231ss	5696(%rsp,%rdi,4), %xmm3, %xmm2 ## xmm2 = (xmm3 * mem) + xmm2
	vmovups	5824(%rsp,%rdi,4), %xmm3
	vunpcklpd	5792(%rsp,%rdi,4), %xmm3, %xmm3 ## xmm3 = xmm3[0],mem[0]
	vmovups	5728(%rsp,%rdi,4), %xmm4
	vunpcklps	5760(%rsp,%rdi,4), %xmm4, %xmm4 ## xmm4 = xmm4[0],mem[0],xmm4[1],mem[1]
	vshufps	$36, %xmm3, %xmm4, %xmm3        ## xmm3 = xmm4[0,1],xmm3[2,0]
	vmovups	5952(%rsp,%rdi,4), %xmm4
	vunpcklpd	5920(%rsp,%rdi,4), %xmm4, %xmm4 ## xmm4 = xmm4[0],mem[0]
	vblendps	$1, %xmm2, %xmm13, %xmm2        ## xmm2 = xmm2[0],xmm13[1,2,3]
	vfmadd132ps	320(%rsp), %xmm2, %xmm3 ## 16-byte Folded Reload
                                        ## xmm3 = (xmm3 * mem) + xmm2
	vmovups	5856(%rsp,%rdi,4), %xmm2
	vunpcklps	5888(%rsp,%rdi,4), %xmm2, %xmm2 ## xmm2 = xmm2[0],mem[0],xmm2[1],mem[1]
	vshufps	$36, %xmm4, %xmm2, %xmm2        ## xmm2 = xmm2[0,1],xmm4[2,0]
	vmovups	6080(%rsp,%rdi,4), %xmm4
	vunpcklpd	6048(%rsp,%rdi,4), %xmm4, %xmm4 ## xmm4 = xmm4[0],mem[0]
	vfmadd132ps	400(%rsp), %xmm3, %xmm2 ## 16-byte Folded Reload
                                        ## xmm2 = (xmm2 * mem) + xmm3
	vmovups	5984(%rsp,%rdi,4), %xmm3
	vunpcklps	6016(%rsp,%rdi,4), %xmm3, %xmm3 ## xmm3 = xmm3[0],mem[0],xmm3[1],mem[1]
	vshufps	$36, %xmm4, %xmm3, %xmm3        ## xmm3 = xmm3[0,1],xmm4[2,0]
	vmovups	6208(%rsp,%rdi,4), %xmm4
	vunpcklpd	6176(%rsp,%rdi,4), %xmm4, %xmm4 ## xmm4 = xmm4[0],mem[0]
	vfmadd132ps	384(%rsp), %xmm2, %xmm3 ## 16-byte Folded Reload
                                        ## xmm3 = (xmm3 * mem) + xmm2
	vmovups	6112(%rsp,%rdi,4), %xmm2
	vunpcklps	6144(%rsp,%rdi,4), %xmm2, %xmm2 ## xmm2 = xmm2[0],mem[0],xmm2[1],mem[1]
	vshufps	$36, %xmm4, %xmm2, %xmm2        ## xmm2 = xmm2[0,1],xmm4[2,0]
	vmovups	6336(%rsp,%rdi,4), %xmm4
	vunpcklpd	6304(%rsp,%rdi,4), %xmm4, %xmm4 ## xmm4 = xmm4[0],mem[0]
	vfmadd132ps	1152(%rsp), %xmm3, %xmm2 ## 16-byte Folded Reload
                                        ## xmm2 = (xmm2 * mem) + xmm3
	vmovups	6240(%rsp,%rdi,4), %xmm3
	vunpcklps	6272(%rsp,%rdi,4), %xmm3, %xmm3 ## xmm3 = xmm3[0],mem[0],xmm3[1],mem[1]
	vshufps	$36, %xmm4, %xmm3, %xmm3        ## xmm3 = xmm3[0,1],xmm4[2,0]
	vmovups	6464(%rsp,%rdi,4), %xmm4
	vunpcklpd	6432(%rsp,%rdi,4), %xmm4, %xmm4 ## xmm4 = xmm4[0],mem[0]
	vfmadd132ps	464(%rsp), %xmm2, %xmm3 ## 16-byte Folded Reload
                                        ## xmm3 = (xmm3 * mem) + xmm2
	vmovups	6368(%rsp,%rdi,4), %xmm2
	vunpcklps	6400(%rsp,%rdi,4), %xmm2, %xmm2 ## xmm2 = xmm2[0],mem[0],xmm2[1],mem[1]
	vshufps	$36, %xmm4, %xmm2, %xmm2        ## xmm2 = xmm2[0,1],xmm4[2,0]
	vmovups	6592(%rsp,%rdi,4), %xmm4
	vunpcklpd	6560(%rsp,%rdi,4), %xmm4, %xmm4 ## xmm4 = xmm4[0],mem[0]
	vfmadd132ps	448(%rsp), %xmm3, %xmm2 ## 16-byte Folded Reload
                                        ## xmm2 = (xmm2 * mem) + xmm3
	vmovups	6496(%rsp,%rdi,4), %xmm3
	vunpcklps	6528(%rsp,%rdi,4), %xmm3, %xmm3 ## xmm3 = xmm3[0],mem[0],xmm3[1],mem[1]
	vshufps	$36, %xmm4, %xmm3, %xmm3        ## xmm3 = xmm3[0,1],xmm4[2,0]
	vmovups	6720(%rsp,%rdi,4), %xmm4
	vunpcklpd	6688(%rsp,%rdi,4), %xmm4, %xmm4 ## xmm4 = xmm4[0],mem[0]
	vfmadd132ps	432(%rsp), %xmm2, %xmm3 ## 16-byte Folded Reload
                                        ## xmm3 = (xmm3 * mem) + xmm2
	vmovups	6624(%rsp,%rdi,4), %xmm2
	vunpcklps	6656(%rsp,%rdi,4), %xmm2, %xmm2 ## xmm2 = xmm2[0],mem[0],xmm2[1],mem[1]
	vshufps	$36, %xmm4, %xmm2, %xmm2        ## xmm2 = xmm2[0,1],xmm4[2,0]
	vmovups	6848(%rsp,%rdi,4), %xmm4
	vunpcklpd	6816(%rsp,%rdi,4), %xmm4, %xmm4 ## xmm4 = xmm4[0],mem[0]
	vfmadd132ps	416(%rsp), %xmm3, %xmm2 ## 16-byte Folded Reload
                                        ## xmm2 = (xmm2 * mem) + xmm3
	vmovups	6752(%rsp,%rdi,4), %xmm3
	vunpcklps	6784(%rsp,%rdi,4), %xmm3, %xmm3 ## xmm3 = xmm3[0],mem[0],xmm3[1],mem[1]
	vshufps	$36, %xmm4, %xmm3, %xmm3        ## xmm3 = xmm3[0,1],xmm4[2,0]
	vfmadd132ps	480(%rsp), %xmm2, %xmm3 ## 16-byte Folded Reload
                                        ## xmm3 = (xmm3 * mem) + xmm2
	vpermilpd	$1, %xmm3, %xmm2        ## xmm2 = xmm3[1,0]
	vaddps	%xmm2, %xmm3, %xmm2
	vmovshdup	%xmm2, %xmm3            ## xmm3 = xmm2[1,1,3,3]
	vaddss	%xmm3, %xmm2, %xmm2
	vmovss	112(%rsp), %xmm3                ## 4-byte Reload
                                        ## xmm3 = mem[0],zero,zero,zero
	vfmadd231ss	6880(%rsp,%rdi,4), %xmm3, %xmm2 ## xmm2 = (xmm3 * mem) + xmm2
	vmovss	104(%rsp), %xmm3                ## 4-byte Reload
                                        ## xmm3 = mem[0],zero,zero,zero
	vfmadd231ss	6912(%rsp,%rdi,4), %xmm3, %xmm2 ## xmm2 = (xmm3 * mem) + xmm2
	vmovss	128(%rsp), %xmm3                ## 4-byte Reload
                                        ## xmm3 = mem[0],zero,zero,zero
	vfmadd231ss	6944(%rsp,%rdi,4), %xmm3, %xmm2 ## xmm2 = (xmm3 * mem) + xmm2
	vmovss	120(%rsp), %xmm3                ## 4-byte Reload
                                        ## xmm3 = mem[0],zero,zero,zero
	vfmadd231ss	6976(%rsp,%rdi,4), %xmm3, %xmm2 ## xmm2 = (xmm3 * mem) + xmm2
	vmovups	7104(%rsp,%rdi,4), %xmm3
	vunpcklpd	7072(%rsp,%rdi,4), %xmm3, %xmm3 ## xmm3 = xmm3[0],mem[0]
	vmovups	7008(%rsp,%rdi,4), %xmm4
	vblendps	$1, %xmm2, %xmm13, %xmm2        ## xmm2 = xmm2[0],xmm13[1,2,3]
	vunpcklps	7040(%rsp,%rdi,4), %xmm4, %xmm4 ## xmm4 = xmm4[0],mem[0],xmm4[1],mem[1]
	vshufps	$36, %xmm3, %xmm4, %xmm3        ## xmm3 = xmm4[0,1],xmm3[2,0]
	vfmadd132ps	640(%rsp), %xmm2, %xmm3 ## 16-byte Folded Reload
                                        ## xmm3 = (xmm3 * mem) + xmm2
	vmovups	7232(%rsp,%rdi,4), %xmm2
	vunpcklpd	7200(%rsp,%rdi,4), %xmm2, %xmm2 ## xmm2 = xmm2[0],mem[0]
	vmovups	7136(%rsp,%rdi,4), %xmm4
	vunpcklps	7168(%rsp,%rdi,4), %xmm4, %xmm4 ## xmm4 = xmm4[0],mem[0],xmm4[1],mem[1]
	vshufps	$36, %xmm2, %xmm4, %xmm2        ## xmm2 = xmm4[0,1],xmm2[2,0]
	vfmadd132ps	912(%rsp), %xmm3, %xmm2 ## 16-byte Folded Reload
                                        ## xmm2 = (xmm2 * mem) + xmm3
	vmovups	7360(%rsp,%rdi,4), %xmm3
	vunpcklpd	7328(%rsp,%rdi,4), %xmm3, %xmm3 ## xmm3 = xmm3[0],mem[0]
	vmovups	7264(%rsp,%rdi,4), %xmm4
	vunpcklps	7296(%rsp,%rdi,4), %xmm4, %xmm4 ## xmm4 = xmm4[0],mem[0],xmm4[1],mem[1]
	vshufps	$36, %xmm3, %xmm4, %xmm3        ## xmm3 = xmm4[0,1],xmm3[2,0]
	vfmadd132ps	896(%rsp), %xmm2, %xmm3 ## 16-byte Folded Reload
                                        ## xmm3 = (xmm3 * mem) + xmm2
	vmovups	7488(%rsp,%rdi,4), %xmm2
	vunpcklpd	7456(%rsp,%rdi,4), %xmm2, %xmm2 ## xmm2 = xmm2[0],mem[0]
	vmovups	7392(%rsp,%rdi,4), %xmm4
	vunpcklps	7424(%rsp,%rdi,4), %xmm4, %xmm4 ## xmm4 = xmm4[0],mem[0],xmm4[1],mem[1]
	vshufps	$36, %xmm2, %xmm4, %xmm2        ## xmm2 = xmm4[0,1],xmm2[2,0]
	vfmadd132ps	880(%rsp), %xmm3, %xmm2 ## 16-byte Folded Reload
                                        ## xmm2 = (xmm2 * mem) + xmm3
	vmovups	7616(%rsp,%rdi,4), %xmm3
	vunpcklpd	7584(%rsp,%rdi,4), %xmm3, %xmm3 ## xmm3 = xmm3[0],mem[0]
	vmovups	7520(%rsp,%rdi,4), %xmm4
	vunpcklps	7552(%rsp,%rdi,4), %xmm4, %xmm4 ## xmm4 = xmm4[0],mem[0],xmm4[1],mem[1]
	vshufps	$36, %xmm3, %xmm4, %xmm3        ## xmm3 = xmm4[0,1],xmm3[2,0]
	vfmadd132ps	864(%rsp), %xmm2, %xmm3 ## 16-byte Folded Reload
                                        ## xmm3 = (xmm3 * mem) + xmm2
	vmovups	7744(%rsp,%rdi,4), %xmm2
	vunpcklpd	7712(%rsp,%rdi,4), %xmm2, %xmm2 ## xmm2 = xmm2[0],mem[0]
	vmovups	7648(%rsp,%rdi,4), %xmm4
	vunpcklps	7680(%rsp,%rdi,4), %xmm4, %xmm4 ## xmm4 = xmm4[0],mem[0],xmm4[1],mem[1]
	vshufps	$36, %xmm2, %xmm4, %xmm2        ## xmm2 = xmm4[0,1],xmm2[2,0]
	vfmadd132ps	848(%rsp), %xmm3, %xmm2 ## 16-byte Folded Reload
                                        ## xmm2 = (xmm2 * mem) + xmm3
	vmovups	7872(%rsp,%rdi,4), %xmm3
	vunpcklpd	7840(%rsp,%rdi,4), %xmm3, %xmm3 ## xmm3 = xmm3[0],mem[0]
	vmovups	7776(%rsp,%rdi,4), %xmm4
	vunpcklps	7808(%rsp,%rdi,4), %xmm4, %xmm4 ## xmm4 = xmm4[0],mem[0],xmm4[1],mem[1]
	vshufps	$36, %xmm3, %xmm4, %xmm3        ## xmm3 = xmm4[0,1],xmm3[2,0]
	vfmadd132ps	832(%rsp), %xmm2, %xmm3 ## 16-byte Folded Reload
                                        ## xmm3 = (xmm3 * mem) + xmm2
	vmovups	8000(%rsp,%rdi,4), %xmm2
	vunpcklpd	7968(%rsp,%rdi,4), %xmm2, %xmm2 ## xmm2 = xmm2[0],mem[0]
	vmovups	7904(%rsp,%rdi,4), %xmm4
	vunpcklps	7936(%rsp,%rdi,4), %xmm4, %xmm4 ## xmm4 = xmm4[0],mem[0],xmm4[1],mem[1]
	vshufps	$36, %xmm2, %xmm4, %xmm2        ## xmm2 = xmm4[0,1],xmm2[2,0]
	vfmadd132ps	816(%rsp), %xmm3, %xmm2 ## 16-byte Folded Reload
                                        ## xmm2 = (xmm2 * mem) + xmm3
	vmovups	8128(%rsp,%rdi,4), %xmm3
	vunpcklpd	8096(%rsp,%rdi,4), %xmm3, %xmm3 ## xmm3 = xmm3[0],mem[0]
	vmovups	8032(%rsp,%rdi,4), %xmm4
	vunpcklps	8064(%rsp,%rdi,4), %xmm4, %xmm4 ## xmm4 = xmm4[0],mem[0],xmm4[1],mem[1]
	vshufps	$36, %xmm3, %xmm4, %xmm3        ## xmm3 = xmm4[0,1],xmm3[2,0]
	vfmadd132ps	1328(%rsp), %xmm2, %xmm3 ## 16-byte Folded Reload
                                        ## xmm3 = (xmm3 * mem) + xmm2
	vpermilpd	$1, %xmm3, %xmm2        ## xmm2 = xmm3[1,0]
	vaddps	%xmm2, %xmm3, %xmm2
	vmovshdup	%xmm2, %xmm3            ## xmm3 = xmm2[1,1,3,3]
	vaddss	%xmm3, %xmm2, %xmm2
	vmovss	1696(%rsp), %xmm3               ## 4-byte Reload
                                        ## xmm3 = mem[0],zero,zero,zero
	vfmadd231ss	8160(%rsp,%rdi,4), %xmm3, %xmm2 ## xmm2 = (xmm3 * mem) + xmm2
	vmovss	1344(%rsp), %xmm3               ## 4-byte Reload
                                        ## xmm3 = mem[0],zero,zero,zero
	vfmadd231ss	8192(%rsp,%rdi,4), %xmm3, %xmm2 ## xmm2 = (xmm3 * mem) + xmm2
	vmovss	208(%rsp), %xmm3                ## 4-byte Reload
                                        ## xmm3 = mem[0],zero,zero,zero
	vfmadd231ss	8224(%rsp,%rdi,4), %xmm3, %xmm2 ## xmm2 = (xmm3 * mem) + xmm2
	vmovss	200(%rsp), %xmm3                ## 4-byte Reload
                                        ## xmm3 = mem[0],zero,zero,zero
	vfmadd231ss	8256(%rsp,%rdi,4), %xmm3, %xmm2 ## xmm2 = (xmm3 * mem) + xmm2
	vmovups	8384(%rsp,%rdi,4), %xmm3
	vunpcklpd	8352(%rsp,%rdi,4), %xmm3, %xmm3 ## xmm3 = xmm3[0],mem[0]
	vmovups	8288(%rsp,%rdi,4), %xmm4
	vunpcklps	8320(%rsp,%rdi,4), %xmm4, %xmm4 ## xmm4 = xmm4[0],mem[0],xmm4[1],mem[1]
	vshufps	$36, %xmm3, %xmm4, %xmm3        ## xmm3 = xmm4[0,1],xmm3[2,0]
	vmovups	8512(%rsp,%rdi,4), %xmm4
	vunpcklpd	8480(%rsp,%rdi,4), %xmm4, %xmm4 ## xmm4 = xmm4[0],mem[0]
	vblendps	$1, %xmm2, %xmm13, %xmm2        ## xmm2 = xmm2[0],xmm13[1,2,3]
	vfmadd132ps	688(%rsp), %xmm2, %xmm3 ## 16-byte Folded Reload
                                        ## xmm3 = (xmm3 * mem) + xmm2
	vmovups	8416(%rsp,%rdi,4), %xmm2
	vunpcklps	8448(%rsp,%rdi,4), %xmm2, %xmm2 ## xmm2 = xmm2[0],mem[0],xmm2[1],mem[1]
	vshufps	$36, %xmm4, %xmm2, %xmm2        ## xmm2 = xmm2[0,1],xmm4[2,0]
	vmovups	8640(%rsp,%rdi,4), %xmm4
	vunpcklpd	8608(%rsp,%rdi,4), %xmm4, %xmm4 ## xmm4 = xmm4[0],mem[0]
	vfmadd132ps	672(%rsp), %xmm3, %xmm2 ## 16-byte Folded Reload
                                        ## xmm2 = (xmm2 * mem) + xmm3
	vmovups	8544(%rsp,%rdi,4), %xmm3
	vunpcklps	8576(%rsp,%rdi,4), %xmm3, %xmm3 ## xmm3 = xmm3[0],mem[0],xmm3[1],mem[1]
	vshufps	$36, %xmm4, %xmm3, %xmm3        ## xmm3 = xmm3[0,1],xmm4[2,0]
	vmovups	8768(%rsp,%rdi,4), %xmm4
	vunpcklpd	8736(%rsp,%rdi,4), %xmm4, %xmm4 ## xmm4 = xmm4[0],mem[0]
	vfmadd132ps	656(%rsp), %xmm2, %xmm3 ## 16-byte Folded Reload
                                        ## xmm3 = (xmm3 * mem) + xmm2
	vmovups	8672(%rsp,%rdi,4), %xmm2
	vunpcklps	8704(%rsp,%rdi,4), %xmm2, %xmm2 ## xmm2 = xmm2[0],mem[0],xmm2[1],mem[1]
	vshufps	$36, %xmm4, %xmm2, %xmm2        ## xmm2 = xmm2[0,1],xmm4[2,0]
	vmovups	8896(%rsp,%rdi,4), %xmm4
	vunpcklpd	8864(%rsp,%rdi,4), %xmm4, %xmm4 ## xmm4 = xmm4[0],mem[0]
	vfmadd132ps	800(%rsp), %xmm3, %xmm2 ## 16-byte Folded Reload
                                        ## xmm2 = (xmm2 * mem) + xmm3
	vmovups	8800(%rsp,%rdi,4), %xmm3
	vunpcklps	8832(%rsp,%rdi,4), %xmm3, %xmm3 ## xmm3 = xmm3[0],mem[0],xmm3[1],mem[1]
	vshufps	$36, %xmm4, %xmm3, %xmm3        ## xmm3 = xmm3[0,1],xmm4[2,0]
	vmovups	9024(%rsp,%rdi,4), %xmm4
	vunpcklpd	8992(%rsp,%rdi,4), %xmm4, %xmm4 ## xmm4 = xmm4[0],mem[0]
	vfmadd132ps	784(%rsp), %xmm2, %xmm3 ## 16-byte Folded Reload
                                        ## xmm3 = (xmm3 * mem) + xmm2
	vmovups	8928(%rsp,%rdi,4), %xmm2
	vunpcklps	8960(%rsp,%rdi,4), %xmm2, %xmm2 ## xmm2 = xmm2[0],mem[0],xmm2[1],mem[1]
	vshufps	$36, %xmm4, %xmm2, %xmm2        ## xmm2 = xmm2[0,1],xmm4[2,0]
	vmovups	9152(%rsp,%rdi,4), %xmm4
	vunpcklpd	9120(%rsp,%rdi,4), %xmm4, %xmm4 ## xmm4 = xmm4[0],mem[0]
	vfmadd132ps	768(%rsp), %xmm3, %xmm2 ## 16-byte Folded Reload
                                        ## xmm2 = (xmm2 * mem) + xmm3
	vmovups	9056(%rsp,%rdi,4), %xmm3
	vunpcklps	9088(%rsp,%rdi,4), %xmm3, %xmm3 ## xmm3 = xmm3[0],mem[0],xmm3[1],mem[1]
	vshufps	$36, %xmm4, %xmm3, %xmm3        ## xmm3 = xmm3[0,1],xmm4[2,0]
	vmovups	9280(%rsp,%rdi,4), %xmm4
	vunpcklpd	9248(%rsp,%rdi,4), %xmm4, %xmm4 ## xmm4 = xmm4[0],mem[0]
	vfmadd132ps	1200(%rsp), %xmm2, %xmm3 ## 16-byte Folded Reload
                                        ## xmm3 = (xmm3 * mem) + xmm2
	vmovups	9184(%rsp,%rdi,4), %xmm2
	vunpcklps	9216(%rsp,%rdi,4), %xmm2, %xmm2 ## xmm2 = xmm2[0],mem[0],xmm2[1],mem[1]
	vshufps	$36, %xmm4, %xmm2, %xmm2        ## xmm2 = xmm2[0,1],xmm4[2,0]
	vmovups	9408(%rsp,%rdi,4), %xmm4
	vunpcklpd	9376(%rsp,%rdi,4), %xmm4, %xmm4 ## xmm4 = xmm4[0],mem[0]
	vfmadd132ps	2208(%rsp), %xmm3, %xmm2 ## 16-byte Folded Reload
                                        ## xmm2 = (xmm2 * mem) + xmm3
	vmovups	9312(%rsp,%rdi,4), %xmm3
	vunpcklps	9344(%rsp,%rdi,4), %xmm3, %xmm3 ## xmm3 = xmm3[0],mem[0],xmm3[1],mem[1]
	vshufps	$36, %xmm4, %xmm3, %xmm3        ## xmm3 = xmm3[0,1],xmm4[2,0]
	vfmadd132ps	1664(%rsp), %xmm2, %xmm3 ## 16-byte Folded Reload
                                        ## xmm3 = (xmm3 * mem) + xmm2
	vpermilpd	$1, %xmm3, %xmm2        ## xmm2 = xmm3[1,0]
	vaddps	%xmm2, %xmm3, %xmm2
	vmovshdup	%xmm2, %xmm3            ## xmm3 = xmm2[1,1,3,3]
	vaddss	%xmm3, %xmm2, %xmm2
	vmovss	1632(%rsp), %xmm3               ## 4-byte Reload
                                        ## xmm3 = mem[0],zero,zero,zero
	vfmadd231ss	9440(%rsp,%rdi,4), %xmm3, %xmm2 ## xmm2 = (xmm3 * mem) + xmm2
	vmovss	2176(%rsp), %xmm3               ## 4-byte Reload
                                        ## xmm3 = mem[0],zero,zero,zero
	vfmadd231ss	9472(%rsp,%rdi,4), %xmm3, %xmm2 ## xmm2 = (xmm3 * mem) + xmm2
	vmovss	2144(%rsp), %xmm3               ## 4-byte Reload
                                        ## xmm3 = mem[0],zero,zero,zero
	vfmadd231ss	9504(%rsp,%rdi,4), %xmm3, %xmm2 ## xmm2 = (xmm3 * mem) + xmm2
	vmovss	2112(%rsp), %xmm3               ## 4-byte Reload
                                        ## xmm3 = mem[0],zero,zero,zero
	vfmadd231ss	9536(%rsp,%rdi,4), %xmm3, %xmm2 ## xmm2 = (xmm3 * mem) + xmm2
	vmovups	9664(%rsp,%rdi,4), %xmm3
	vunpcklpd	9632(%rsp,%rdi,4), %xmm3, %xmm3 ## xmm3 = xmm3[0],mem[0]
	vmovups	9568(%rsp,%rdi,4), %xmm4
	vblendps	$1, %xmm2, %xmm13, %xmm2        ## xmm2 = xmm2[0],xmm13[1,2,3]
	vunpcklps	9600(%rsp,%rdi,4), %xmm4, %xmm4 ## xmm4 = xmm4[0],mem[0],xmm4[1],mem[1]
	vshufps	$36, %xmm3, %xmm4, %xmm3        ## xmm3 = xmm4[0,1],xmm3[2,0]
	vfmadd132ps	2080(%rsp), %xmm2, %xmm3 ## 16-byte Folded Reload
                                        ## xmm3 = (xmm3 * mem) + xmm2
	vmovups	9792(%rsp,%rdi,4), %xmm2
	vunpcklpd	9760(%rsp,%rdi,4), %xmm2, %xmm2 ## xmm2 = xmm2[0],mem[0]
	vmovups	9696(%rsp,%rdi,4), %xmm4
	vunpcklps	9728(%rsp,%rdi,4), %xmm4, %xmm4 ## xmm4 = xmm4[0],mem[0],xmm4[1],mem[1]
	vshufps	$36, %xmm2, %xmm4, %xmm2        ## xmm2 = xmm4[0,1],xmm2[2,0]
	vfmadd132ps	2048(%rsp), %xmm3, %xmm2 ## 16-byte Folded Reload
                                        ## xmm2 = (xmm2 * mem) + xmm3
	vmovups	9920(%rsp,%rdi,4), %xmm3
	vunpcklpd	9888(%rsp,%rdi,4), %xmm3, %xmm3 ## xmm3 = xmm3[0],mem[0]
	vmovups	9824(%rsp,%rdi,4), %xmm4
	vunpcklps	9856(%rsp,%rdi,4), %xmm4, %xmm4 ## xmm4 = xmm4[0],mem[0],xmm4[1],mem[1]
	vshufps	$36, %xmm3, %xmm4, %xmm3        ## xmm3 = xmm4[0,1],xmm3[2,0]
	vfmadd132ps	1600(%rsp), %xmm2, %xmm3 ## 16-byte Folded Reload
                                        ## xmm3 = (xmm3 * mem) + xmm2
	vmovups	10048(%rsp,%rdi,4), %xmm2
	vunpcklpd	10016(%rsp,%rdi,4), %xmm2, %xmm2 ## xmm2 = xmm2[0],mem[0]
	vmovups	9952(%rsp,%rdi,4), %xmm4
	vunpcklps	9984(%rsp,%rdi,4), %xmm4, %xmm4 ## xmm4 = xmm4[0],mem[0],xmm4[1],mem[1]
	vshufps	$36, %xmm2, %xmm4, %xmm2        ## xmm2 = xmm4[0,1],xmm2[2,0]
	vfmadd132ps	1568(%rsp), %xmm3, %xmm2 ## 16-byte Folded Reload
                                        ## xmm2 = (xmm2 * mem) + xmm3
	vmovups	10176(%rsp,%rdi,4), %xmm3
	vunpcklpd	10144(%rsp,%rdi,4), %xmm3, %xmm3 ## xmm3 = xmm3[0],mem[0]
	vmovups	10080(%rsp,%rdi,4), %xmm4
	vunpcklps	10112(%rsp,%rdi,4), %xmm4, %xmm4 ## xmm4 = xmm4[0],mem[0],xmm4[1],mem[1]
	vshufps	$36, %xmm3, %xmm4, %xmm3        ## xmm3 = xmm4[0,1],xmm3[2,0]
	vfmadd132ps	1184(%rsp), %xmm2, %xmm3 ## 16-byte Folded Reload
                                        ## xmm3 = (xmm3 * mem) + xmm2
	vmovups	10304(%rsp,%rdi,4), %xmm2
	vunpcklpd	10272(%rsp,%rdi,4), %xmm2, %xmm2 ## xmm2 = xmm2[0],mem[0]
	vmovups	10208(%rsp,%rdi,4), %xmm4
	vunpcklps	10240(%rsp,%rdi,4), %xmm4, %xmm4 ## xmm4 = xmm4[0],mem[0],xmm4[1],mem[1]
	vshufps	$36, %xmm2, %xmm4, %xmm2        ## xmm2 = xmm4[0,1],xmm2[2,0]
	vfmadd132ps	1824(%rsp), %xmm3, %xmm2 ## 16-byte Folded Reload
                                        ## xmm2 = (xmm2 * mem) + xmm3
	vmovups	10432(%rsp,%rdi,4), %xmm3
	vunpcklpd	10400(%rsp,%rdi,4), %xmm3, %xmm3 ## xmm3 = xmm3[0],mem[0]
	vmovups	10336(%rsp,%rdi,4), %xmm4
	vunpcklps	10368(%rsp,%rdi,4), %xmm4, %xmm4 ## xmm4 = xmm4[0],mem[0],xmm4[1],mem[1]
	vshufps	$36, %xmm3, %xmm4, %xmm3        ## xmm3 = xmm4[0,1],xmm3[2,0]
	vfmadd132ps	1792(%rsp), %xmm2, %xmm3 ## 16-byte Folded Reload
                                        ## xmm3 = (xmm3 * mem) + xmm2
	vmovups	10560(%rsp,%rdi,4), %xmm2
	vunpcklpd	10528(%rsp,%rdi,4), %xmm2, %xmm2 ## xmm2 = xmm2[0],mem[0]
	vmovups	10464(%rsp,%rdi,4), %xmm4
	vunpcklps	10496(%rsp,%rdi,4), %xmm4, %xmm4 ## xmm4 = xmm4[0],mem[0],xmm4[1],mem[1]
	vshufps	$36, %xmm2, %xmm4, %xmm2        ## xmm2 = xmm4[0,1],xmm2[2,0]
	vfmadd132ps	1760(%rsp), %xmm3, %xmm2 ## 16-byte Folded Reload
                                        ## xmm2 = (xmm2 * mem) + xmm3
	vmovups	10688(%rsp,%rdi,4), %xmm3
	vunpcklpd	10656(%rsp,%rdi,4), %xmm3, %xmm3 ## xmm3 = xmm3[0],mem[0]
	vmovups	10592(%rsp,%rdi,4), %xmm4
	vunpcklps	10624(%rsp,%rdi,4), %xmm4, %xmm4 ## xmm4 = xmm4[0],mem[0],xmm4[1],mem[1]
	vshufps	$36, %xmm3, %xmm4, %xmm3        ## xmm3 = xmm4[0,1],xmm3[2,0]
	vfmadd132ps	1728(%rsp), %xmm2, %xmm3 ## 16-byte Folded Reload
                                        ## xmm3 = (xmm3 * mem) + xmm2
	vpermilpd	$1, %xmm3, %xmm2        ## xmm2 = xmm3[1,0]
	vaddps	%xmm2, %xmm3, %xmm2
	vmovshdup	%xmm2, %xmm3            ## xmm3 = xmm2[1,1,3,3]
	vaddss	%xmm3, %xmm2, %xmm2
	vmovss	536(%rsp), %xmm3                ## 4-byte Reload
                                        ## xmm3 = mem[0],zero,zero,zero
	vfmadd231ss	10720(%rsp,%rdi,4), %xmm3, %xmm2 ## xmm2 = (xmm3 * mem) + xmm2
	vmovss	528(%rsp), %xmm3                ## 4-byte Reload
                                        ## xmm3 = mem[0],zero,zero,zero
	vfmadd231ss	10752(%rsp,%rdi,4), %xmm3, %xmm2 ## xmm2 = (xmm3 * mem) + xmm2
	vmovss	520(%rsp), %xmm3                ## 4-byte Reload
                                        ## xmm3 = mem[0],zero,zero,zero
	vfmadd231ss	10784(%rsp,%rdi,4), %xmm3, %xmm2 ## xmm2 = (xmm3 * mem) + xmm2
	vmovss	632(%rsp), %xmm3                ## 4-byte Reload
                                        ## xmm3 = mem[0],zero,zero,zero
	vfmadd231ss	10816(%rsp,%rdi,4), %xmm3, %xmm2 ## xmm2 = (xmm3 * mem) + xmm2
	vmovups	10944(%rsp,%rdi,4), %xmm3
	vunpcklpd	10912(%rsp,%rdi,4), %xmm3, %xmm3 ## xmm3 = xmm3[0],mem[0]
	vmovups	10848(%rsp,%rdi,4), %xmm4
	vunpcklps	10880(%rsp,%rdi,4), %xmm4, %xmm4 ## xmm4 = xmm4[0],mem[0],xmm4[1],mem[1]
	vshufps	$36, %xmm3, %xmm4, %xmm3        ## xmm3 = xmm4[0,1],xmm3[2,0]
	vmovups	11072(%rsp,%rdi,4), %xmm4
	vunpcklpd	11040(%rsp,%rdi,4), %xmm4, %xmm4 ## xmm4 = xmm4[0],mem[0]
	vblendps	$1, %xmm2, %xmm13, %xmm2        ## xmm2 = xmm2[0],xmm13[1,2,3]
	vfmadd132ps	1312(%rsp), %xmm2, %xmm3 ## 16-byte Folded Reload
                                        ## xmm3 = (xmm3 * mem) + xmm2
	vmovups	10976(%rsp,%rdi,4), %xmm2
	vunpcklps	11008(%rsp,%rdi,4), %xmm2, %xmm2 ## xmm2 = xmm2[0],mem[0],xmm2[1],mem[1]
	vshufps	$36, %xmm4, %xmm2, %xmm2        ## xmm2 = xmm2[0,1],xmm4[2,0]
	vmovups	11200(%rsp,%rdi,4), %xmm4
	vunpcklpd	11168(%rsp,%rdi,4), %xmm4, %xmm4 ## xmm4 = xmm4[0],mem[0]
	vfmadd132ps	1296(%rsp), %xmm3, %xmm2 ## 16-byte Folded Reload
                                        ## xmm2 = (xmm2 * mem) + xmm3
	vmovups	11104(%rsp,%rdi,4), %xmm3
	vunpcklps	11136(%rsp,%rdi,4), %xmm3, %xmm3 ## xmm3 = xmm3[0],mem[0],xmm3[1],mem[1]
	vshufps	$36, %xmm4, %xmm3, %xmm3        ## xmm3 = xmm3[0,1],xmm4[2,0]
	vmovups	11328(%rsp,%rdi,4), %xmm4
	vunpcklpd	11296(%rsp,%rdi,4), %xmm4, %xmm4 ## xmm4 = xmm4[0],mem[0]
	vfmadd132ps	1376(%rsp), %xmm2, %xmm3 ## 16-byte Folded Reload
                                        ## xmm3 = (xmm3 * mem) + xmm2
	vmovups	11232(%rsp,%rdi,4), %xmm2
	vunpcklps	11264(%rsp,%rdi,4), %xmm2, %xmm2 ## xmm2 = xmm2[0],mem[0],xmm2[1],mem[1]
	vshufps	$36, %xmm4, %xmm2, %xmm2        ## xmm2 = xmm2[0,1],xmm4[2,0]
	vmovups	11456(%rsp,%rdi,4), %xmm4
	vunpcklpd	11424(%rsp,%rdi,4), %xmm4, %xmm4 ## xmm4 = xmm4[0],mem[0]
	vfmadd132ps	2752(%rsp), %xmm3, %xmm2 ## 16-byte Folded Reload
                                        ## xmm2 = (xmm2 * mem) + xmm3
	vmovups	11360(%rsp,%rdi,4), %xmm3
	vunpcklps	11392(%rsp,%rdi,4), %xmm3, %xmm3 ## xmm3 = xmm3[0],mem[0],xmm3[1],mem[1]
	vshufps	$36, %xmm4, %xmm3, %xmm3        ## xmm3 = xmm3[0,1],xmm4[2,0]
	vmovups	11584(%rsp,%rdi,4), %xmm4
	vunpcklpd	11552(%rsp,%rdi,4), %xmm4, %xmm4 ## xmm4 = xmm4[0],mem[0]
	vfmadd132ps	2720(%rsp), %xmm2, %xmm3 ## 16-byte Folded Reload
                                        ## xmm3 = (xmm3 * mem) + xmm2
	vmovups	11488(%rsp,%rdi,4), %xmm2
	vunpcklps	11520(%rsp,%rdi,4), %xmm2, %xmm2 ## xmm2 = xmm2[0],mem[0],xmm2[1],mem[1]
	vshufps	$36, %xmm4, %xmm2, %xmm2        ## xmm2 = xmm2[0,1],xmm4[2,0]
	vmovups	11712(%rsp,%rdi,4), %xmm4
	vunpcklpd	11680(%rsp,%rdi,4), %xmm4, %xmm4 ## xmm4 = xmm4[0],mem[0]
	vfmadd132ps	2688(%rsp), %xmm3, %xmm2 ## 16-byte Folded Reload
                                        ## xmm2 = (xmm2 * mem) + xmm3
	vmovups	11616(%rsp,%rdi,4), %xmm3
	vunpcklps	11648(%rsp,%rdi,4), %xmm3, %xmm3 ## xmm3 = xmm3[0],mem[0],xmm3[1],mem[1]
	vshufps	$36, %xmm4, %xmm3, %xmm3        ## xmm3 = xmm3[0,1],xmm4[2,0]
	vmovups	11840(%rsp,%rdi,4), %xmm4
	vunpcklpd	11808(%rsp,%rdi,4), %xmm4, %xmm4 ## xmm4 = xmm4[0],mem[0]
	vfmadd132ps	2656(%rsp), %xmm2, %xmm3 ## 16-byte Folded Reload
                                        ## xmm3 = (xmm3 * mem) + xmm2
	vmovups	11744(%rsp,%rdi,4), %xmm2
	vunpcklps	11776(%rsp,%rdi,4), %xmm2, %xmm2 ## xmm2 = xmm2[0],mem[0],xmm2[1],mem[1]
	vshufps	$36, %xmm4, %xmm2, %xmm2        ## xmm2 = xmm2[0,1],xmm4[2,0]
	vmovups	11968(%rsp,%rdi,4), %xmm4
	vunpcklpd	11936(%rsp,%rdi,4), %xmm4, %xmm4 ## xmm4 = xmm4[0],mem[0]
	vfmadd132ps	2624(%rsp), %xmm3, %xmm2 ## 16-byte Folded Reload
                                        ## xmm2 = (xmm2 * mem) + xmm3
	vmovups	11872(%rsp,%rdi,4), %xmm3
	vunpcklps	11904(%rsp,%rdi,4), %xmm3, %xmm3 ## xmm3 = xmm3[0],mem[0],xmm3[1],mem[1]
	vshufps	$36, %xmm4, %xmm3, %xmm3        ## xmm3 = xmm3[0,1],xmm4[2,0]
	vfmadd213ps	%xmm2, %xmm12, %xmm3    ## xmm3 = (xmm12 * xmm3) + xmm2
	vpermilpd	$1, %xmm3, %xmm2        ## xmm2 = xmm3[1,0]
	vaddps	%xmm2, %xmm3, %xmm2
	vmovshdup	%xmm2, %xmm3            ## xmm3 = xmm2[1,1,3,3]
	vaddss	%xmm3, %xmm2, %xmm2
	vfmadd231ss	12000(%rsp,%rdi,4), %xmm8, %xmm2 ## xmm2 = (xmm8 * mem) + xmm2
	vfmadd231ss	12032(%rsp,%rdi,4), %xmm14, %xmm2 ## xmm2 = (xmm14 * mem) + xmm2
	vfmadd231ss	12064(%rsp,%rdi,4), %xmm15, %xmm2 ## xmm2 = (xmm15 * mem) + xmm2
	vfmadd231ss	12096(%rsp,%rdi,4), %xmm11, %xmm2 ## xmm2 = (xmm11 * mem) + xmm2
	vfmadd231ss	(%r8), %xmm2, %xmm9     ## xmm9 = (xmm2 * mem) + xmm9
	incq	%rdi
	addq	%rdx, %r8
	cmpq	$8, %rdi
	jne	LBB0_78
## %bb.79:                              ## %"end for conv1_stage1.s1.r54$x"
                                        ##   in Loop: Header=BB0_77 Depth=2
	vmovss	%xmm9, (%rsi,%r10,4)
	incq	%r9
	addq	$4, %r11
	cmpq	$32, %r9
	jne	LBB0_77
## %bb.80:                              ## %"end for conv1_stage1.s1.c"
                                        ##   in Loop: Header=BB0_76 Depth=1
	movq	%r14, %rcx
	incq	%rcx
	movq	512(%rsp), %rbx                 ## 8-byte Reload
	cmpq	%rbx, %rcx
	jne	LBB0_76
LBB0_81:                                ## %"end for conv1_stage1.s1.w"
	cmpl	$0, 616(%rsp)                   ## 4-byte Folded Reload
	movq	1504(%rsp), %r8                 ## 8-byte Reload
	movl	2976(%rsp), %eax                ## 4-byte Reload
	js	LBB0_159
## %bb.82:                              ## %"end for conv1_stage1.s1.w"
	cmpl	%r8d, %eax
	jg	LBB0_159
## %bb.83:                              ## %"consume conv1_stage1"
	movq	192(%rsp), %rax                 ## 8-byte Reload
	leal	3(%rax), %r14d
	sarl	$2, %r14d
	cmpl	$8, %r8d
	movq	728(%rsp), %rcx                 ## 8-byte Reload
	movq	712(%rsp), %r11                 ## 8-byte Reload
	movq	1272(%rsp), %rdi                ## 8-byte Reload
	movq	80(%rbp), %r9
	movq	32(%rbp), %r10
	jge	LBB0_136
## %bb.84:                              ## %then_bb168
	testl	%r8d, %r8d
	jle	LBB0_138
## %bb.85:                              ## %"for prediction_output.s0.n.v7.preheader"
	movl	608(%rsp), %eax                 ## 4-byte Reload
	andl	$-4, %eax
	cmpl	$-4, %eax
	movl	$-4, %ecx
	cmovgl	%eax, %ecx
	addl	$4, %ecx
	imulq	$156, %rcx, %rdx
	cmpq	$2147483647, %rdx               ## imm = 0x7FFFFFFF
	ja	LBB0_169
## %bb.86:                              ## %"for prediction_output.s0.n.v7.preheader420"
	movq	504(%rsp), %rax                 ## 8-byte Reload
	imull	140(%rsp), %eax                 ## 4-byte Folded Reload
	movq	2336(%rsp), %rbx                ## 8-byte Reload
	imull	%edi, %ebx
	addl	624(%rsp), %ebx                 ## 4-byte Folded Reload
	addl	%eax, %ebx
	vxorps	%xmm15, %xmm15, %xmm15
	vcvtsi2ssl	1112(%rsp), %xmm15, %xmm0 ## 4-byte Folded Reload
	orq	$12, %rdx
	movq	%rdx, 2328(%rsp)                ## 8-byte Spill
	movq	%rcx, %rax
	shlq	$5, %rax
	leaq	(%rax,%rax,2), %rax
	movq	%rax, 1432(%rsp)                ## 8-byte Spill
	orq	$12, %rax
	movq	%rax, 2312(%rsp)                ## 8-byte Spill
	movq	%rcx, 2320(%rsp)                ## 8-byte Spill
	shlq	$7, %rcx
	movq	%rcx, 1400(%rsp)                ## 8-byte Spill
	movl	%edi, %eax
	subl	%ebx, %eax
	movl	%eax, 1216(%rsp)                ## 4-byte Spill
	leal	(%rdi,%rdi,8), %eax
	leal	(%rdi,%rax,2), %edx
	leal	(%rax,%rax,2), %r8d
                                        ## kill: def $eax killed $eax killed $rax
	subl	%ebx, %eax
	movl	%eax, 256(%rsp)                 ## 4-byte Spill
	leal	(%rdi,%rdi), %eax
	leal	(%rax,%rax,4), %ecx
	subl	%ebx, %ecx
	movl	%ecx, 544(%rsp)                 ## 4-byte Spill
	leal	(%rdi,%rdi,4), %ecx
	leal	(%rdi,%rcx,2), %esi
	subl	%ebx, %esi
	movl	%esi, 32(%rsp)                  ## 4-byte Spill
	leal	(,%rdi,4), %esi
	leal	(%rsi,%rsi,2), %esi
	subl	%ebx, %esi
	movl	%esi, 40(%rsp)                  ## 4-byte Spill
	movl	%edi, %esi
	shll	$4, %esi
	addl	%edi, %esi
	subl	%ebx, %esi
	leal	(%rax,%rax,8), %eax
	subl	%ebx, %eax
	movl	%eax, 72(%rsp)                  ## 4-byte Spill
	subl	%ebx, %edx
	movl	%edx, 80(%rsp)                  ## 4-byte Spill
	leal	(%rdi,%rcx,4), %r15d
	leal	(%rdi,%r15), %eax
	subl	%ebx, %r15d
	subl	%ebx, %eax
	movl	%eax, 352(%rsp)                 ## 4-byte Spill
	leal	(,%rdi,8), %eax
	leal	(%rax,%rax,2), %eax
	subl	%ebx, %eax
	movl	%eax, 336(%rsp)                 ## 4-byte Spill
	leal	(%rcx,%rcx,4), %r9d
	movl	%r9d, %eax
	subl	%ebx, %eax
	movl	%eax, 240(%rsp)                 ## 4-byte Spill
	addl	%edi, %r9d
	subl	%ebx, %r9d
	movl	%r8d, %eax
	subl	%ebx, %eax
	movl	%eax, 144(%rsp)                 ## 4-byte Spill
	addl	%edi, %r8d
	leal	(%rdi,%r8), %eax
	subl	%ebx, %r8d
	subl	%ebx, %eax
	movl	%eax, 176(%rsp)                 ## 4-byte Spill
	movl	%edi, %r12d
	shll	$5, %r12d
	movl	%r12d, %eax
	leal	(%rdi,%r12), %r10d
	leal	(%r12,%rdi,2), %r11d
                                        ## kill: def $r12d killed $r12d killed $r12
	subl	%edi, %r12d
	movl	%r12d, %edx
	subl	%edi, %edx
	subl	%ebx, %edx
	subl	%ebx, %r12d
	subl	%ebx, %eax
	movl	%eax, 160(%rsp)                 ## 4-byte Spill
	subl	%ebx, %r10d
	subl	%ebx, %r11d
	movslq	%ebx, %r13
	movq	1136(%rsp), %rbx                ## 8-byte Reload
	movq	%rbx, %rax
	shlq	$4, %rax
	movq	%rax, 616(%rsp)                 ## 8-byte Spill
	cmpl	$31, 192(%rsp)                  ## 4-byte Folded Reload
	seta	224(%rsp)                       ## 1-byte Folded Spill
	cmpl	$1, 140(%rsp)                   ## 4-byte Folded Reload
	sete	%al
	leaq	(,%r13,4), %rcx
	movl	$96, %edi
	subq	%rcx, %rdi
	movq	%rdi, 1200(%rsp)                ## 8-byte Spill
	andb	224(%rsp), %al                  ## 1-byte Folded Reload
	movb	%al, 103(%rsp)                  ## 1-byte Spill
	movl	%r14d, %eax
	movq	%rax, 1328(%rsp)                ## 8-byte Spill
	movslq	%r11d, %r14
	movslq	%r10d, %rax
	movq	%rax, 208(%rsp)                 ## 8-byte Spill
	movslq	160(%rsp), %rax                 ## 4-byte Folded Reload
	movq	%rax, 912(%rsp)                 ## 8-byte Spill
	movslq	%r12d, %rax
	movq	%rax, 896(%rsp)                 ## 8-byte Spill
	movslq	%edx, %rax
	movq	%rax, 200(%rsp)                 ## 8-byte Spill
	movslq	176(%rsp), %rax                 ## 4-byte Folded Reload
	movq	%rax, 688(%rsp)                 ## 8-byte Spill
	movslq	%r8d, %rax
	movq	%rax, 880(%rsp)                 ## 8-byte Spill
	movslq	144(%rsp), %rax                 ## 4-byte Folded Reload
	movq	%rax, 864(%rsp)                 ## 8-byte Spill
	movslq	%r9d, %rax
	movq	%rax, 848(%rsp)                 ## 8-byte Spill
	movslq	240(%rsp), %r10                 ## 4-byte Folded Reload
	movslq	336(%rsp), %r8                  ## 4-byte Folded Reload
	movslq	352(%rsp), %r9                  ## 4-byte Folded Reload
	movslq	%r15d, %rax
	movq	%rax, 504(%rsp)                 ## 8-byte Spill
	movslq	80(%rsp), %rax                  ## 4-byte Folded Reload
	movq	%rax, 832(%rsp)                 ## 8-byte Spill
	movslq	72(%rsp), %rax                  ## 4-byte Folded Reload
	movq	%rax, 816(%rsp)                 ## 8-byte Spill
	movslq	%esi, %r11
	movslq	40(%rsp), %r12                  ## 4-byte Folded Reload
	movslq	32(%rsp), %rax                  ## 4-byte Folded Reload
	movq	%rax, 672(%rsp)                 ## 8-byte Spill
	movslq	544(%rsp), %rsi                 ## 4-byte Folded Reload
	movslq	256(%rsp), %rdx                 ## 4-byte Folded Reload
	movslq	1216(%rsp), %rdi                ## 4-byte Folded Reload
	movl	1504(%rsp), %eax                ## 4-byte Reload
	movq	%rax, 2296(%rsp)                ## 8-byte Spill
	vmovaps	3168(%rsp), %ymm1
	vmovaps	%ymm1, 1888(%rsp)               ## 32-byte Spill
	vmovaps	3200(%rsp), %ymm1
	vmovaps	%ymm1, 1440(%rsp)               ## 32-byte Spill
	vmovaps	3232(%rsp), %ymm1
	vmovaps	%ymm1, 1856(%rsp)               ## 32-byte Spill
	vmovaps	3264(%rsp), %ymm1
	vmovaps	%ymm1, 1472(%rsp)               ## 32-byte Spill
	movq	512(%rsp), %rax                 ## 8-byte Reload
                                        ## kill: def $eax killed $eax killed $rax def $rax
	andl	$-32, %eax
	movq	%rax, 1424(%rsp)                ## 8-byte Spill
	vmovaps	%xmm0, 2784(%rsp)               ## 16-byte Spill
	vbroadcastss	%xmm0, %ymm0
	vmovaps	%ymm0, 2976(%rsp)               ## 32-byte Spill
	movq	%r13, 2304(%rsp)                ## 8-byte Spill
	negq	%r13
	movq	%r13, 1184(%rsp)                ## 8-byte Spill
	movq	600(%rsp), %rcx                 ## 8-byte Reload
	leaq	(,%rcx,4), %rax
	leaq	(%rax,%rax,8), %r15
	shlq	$3, %rcx
	movq	%rcx, 600(%rsp)                 ## 8-byte Spill
	movq	1416(%rsp), %rcx                ## 8-byte Reload
	movq	%rcx, %rax
	shlq	$7, %rax
	movq	%rax, 608(%rsp)                 ## 8-byte Spill
	vbroadcastss	LCPI0_49(%rip), %ymm0   ## ymm0 = [2155872255,2155872255,2155872255,2155872255,2155872255,2155872255,2155872255,2155872255]
	vmovaps	%ymm0, 3136(%rsp)               ## 32-byte Spill
	movq	1400(%rsp), %rax                ## 8-byte Reload
	addq	$12, %rax
	movq	%rax, 2288(%rsp)                ## 8-byte Spill
	leaq	(,%rbx,8), %rax
	movq	%rax, 1288(%rsp)                ## 8-byte Spill
	leaq	(%rax,%rax,2), %rax
	movq	%rax, 1280(%rsp)                ## 8-byte Spill
	leaq	(,%rbx,4), %rax
	movq	%rax, 520(%rsp)                 ## 8-byte Spill
	movq	376(%rsp), %r13                 ## 8-byte Reload
	leaq	(,%r13,8), %rax
	movq	%rax, 1216(%rsp)                ## 8-byte Spill
	movq	1144(%rsp), %rax                ## 8-byte Reload
	leaq	32(%rax), %rbx
	movq	%rbx, 632(%rsp)                 ## 8-byte Spill
	leaq	64(%rax), %rax
	movq	%rax, 1312(%rsp)                ## 8-byte Spill
	movq	728(%rsp), %rax                 ## 8-byte Reload
	leaq	32(%rax), %rbx
	movq	%rbx, 2280(%rsp)                ## 8-byte Spill
	leaq	64(%rax), %rbx
	movq	%rbx, 1296(%rsp)                ## 8-byte Spill
	addq	$96, %rax
	movq	%rax, 1376(%rsp)                ## 8-byte Spill
	leaq	(,%rcx,4), %rax
	movq	%rax, 2272(%rsp)                ## 8-byte Spill
	xorl	%eax, %eax
	movq	%rax, 720(%rsp)                 ## 8-byte Spill
	movq	%r8, 656(%rsp)                  ## 8-byte Spill
	movq	%r8, 1104(%rsp)                 ## 8-byte Spill
	movq	%r9, 1120(%rsp)                 ## 8-byte Spill
	movq	%r9, 1096(%rsp)                 ## 8-byte Spill
	movq	%r10, 1128(%rsp)                ## 8-byte Spill
	movq	%r10, 1088(%rsp)                ## 8-byte Spill
	movq	%rdx, 768(%rsp)                 ## 8-byte Spill
	movq	%rdx, 1080(%rsp)                ## 8-byte Spill
	movq	%rsi, 784(%rsp)                 ## 8-byte Spill
	movq	%rsi, 1072(%rsp)                ## 8-byte Spill
	movq	200(%rsp), %rax                 ## 8-byte Reload
	movq	%rax, 1064(%rsp)                ## 8-byte Spill
	movq	912(%rsp), %rax                 ## 8-byte Reload
	movq	%rax, 1056(%rsp)                ## 8-byte Spill
	movq	896(%rsp), %rax                 ## 8-byte Reload
	movq	%rax, 1048(%rsp)                ## 8-byte Spill
	movq	%rdi, 1112(%rsp)                ## 8-byte Spill
	movq	%rdi, 1040(%rsp)                ## 8-byte Spill
	movq	504(%rsp), %rax                 ## 8-byte Reload
	movq	%rax, 1032(%rsp)                ## 8-byte Spill
	movq	%r11, 528(%rsp)                 ## 8-byte Spill
	movq	%r11, 1024(%rsp)                ## 8-byte Spill
	movq	%r12, 800(%rsp)                 ## 8-byte Spill
	movq	%r12, 1016(%rsp)                ## 8-byte Spill
	movq	688(%rsp), %rax                 ## 8-byte Reload
	movq	%rax, 1008(%rsp)                ## 8-byte Spill
	movq	672(%rsp), %rax                 ## 8-byte Reload
	movq	%rax, 1000(%rsp)                ## 8-byte Spill
	movq	%r14, 536(%rsp)                 ## 8-byte Spill
	movq	%r14, 992(%rsp)                 ## 8-byte Spill
	movq	208(%rsp), %rax                 ## 8-byte Reload
	movq	%rax, 984(%rsp)                 ## 8-byte Spill
	movq	864(%rsp), %rax                 ## 8-byte Reload
	movq	%rax, 976(%rsp)                 ## 8-byte Spill
	movq	880(%rsp), %rax                 ## 8-byte Reload
	movq	%rax, 968(%rsp)                 ## 8-byte Spill
	movq	848(%rsp), %rax                 ## 8-byte Reload
	movq	%rax, 960(%rsp)                 ## 8-byte Spill
	movq	832(%rsp), %rax                 ## 8-byte Reload
	movq	%rax, 952(%rsp)                 ## 8-byte Spill
	movq	816(%rsp), %rax                 ## 8-byte Reload
	movq	%rax, 944(%rsp)                 ## 8-byte Spill
	movq	712(%rsp), %r12                 ## 8-byte Reload
	movq	%r12, 936(%rsp)                 ## 8-byte Spill
	movq	%r15, 2264(%rsp)                ## 8-byte Spill
	.p2align	4, 0x90
LBB0_87:                                ## %"for prediction_output.s0.n.v7"
                                        ## =>This Loop Header: Depth=1
                                        ##     Child Loop BB0_90 Depth 2
                                        ##       Child Loop BB0_94 Depth 3
                                        ##     Child Loop BB0_103 Depth 2
                                        ##       Child Loop BB0_104 Depth 3
                                        ##       Child Loop BB0_107 Depth 3
                                        ##       Child Loop BB0_110 Depth 3
                                        ##     Child Loop BB0_113 Depth 2
                                        ##       Child Loop BB0_114 Depth 3
                                        ##       Child Loop BB0_116 Depth 3
                                        ##       Child Loop BB0_118 Depth 3
                                        ##       Child Loop BB0_120 Depth 3
                                        ##     Child Loop BB0_125 Depth 2
                                        ##     Child Loop BB0_132 Depth 2
	xorl	%edi, %edi
	movq	2328(%rsp), %rsi                ## 8-byte Reload
	vzeroupper
	callq	_halide_malloc
	movq	%rax, 32(%rsp)                  ## 8-byte Spill
	testq	%rax, %rax
	je	LBB0_146
## %bb.88:                              ## %"assert succeeded173"
                                        ##   in Loop: Header=BB0_87 Depth=1
	cmpl	$0, 192(%rsp)                   ## 4-byte Folded Reload
	movq	1272(%rsp), %r11                ## 8-byte Reload
	vmovaps	2432(%rsp), %ymm13              ## 32-byte Reload
	vmovdqa	2944(%rsp), %ymm14              ## 32-byte Reload
	vmovaps	3136(%rsp), %ymm15              ## 32-byte Reload
	vmovss	LCPI0_45(%rip), %xmm4           ## xmm4 = mem[0],zero,zero,zero
	vmovss	LCPI0_44(%rip), %xmm11          ## xmm11 = mem[0],zero,zero,zero
	vmovss	LCPI0_51(%rip), %xmm12          ## xmm12 = mem[0],zero,zero,zero
	vmovss	LCPI0_52(%rip), %xmm7           ## xmm7 = mem[0],zero,zero,zero
	vmovss	LCPI0_53(%rip), %xmm8           ## xmm8 = mem[0],zero,zero,zero
	vmovss	LCPI0_57(%rip), %xmm9           ## xmm9 = mem[0],zero,zero,zero
	vmovss	LCPI0_55(%rip), %xmm5           ## xmm5 = mem[0],zero,zero,zero
	vmovss	LCPI0_56(%rip), %xmm6           ## xmm6 = mem[0],zero,zero,zero
	vmovss	LCPI0_50(%rip), %xmm10          ## xmm10 = mem[0],zero,zero,zero
	jle	LBB0_96
## %bb.89:                              ## %"for normalized_schedule_features.s0.s.preheader"
                                        ##   in Loop: Header=BB0_87 Depth=1
	movq	720(%rsp), %r14                 ## 8-byte Reload
	subq	2304(%rsp), %r14                ## 8-byte Folded Reload
	xorl	%r9d, %r9d
	movq	32(%rsp), %r8                   ## 8-byte Reload
	xorl	%r10d, %r10d
	.p2align	4, 0x90
LBB0_90:                                ## %"for normalized_schedule_features.s0.s"
                                        ##   Parent Loop BB0_87 Depth=1
                                        ## =>  This Loop Header: Depth=2
                                        ##       Child Loop BB0_94 Depth 3
	cmpl	$1, %r11d
	jne	LBB0_92
## %bb.91:                              ## %vector.body935
                                        ##   in Loop: Header=BB0_90 Depth=2
	imulq	$39, %r10, %rdi
	movl	%r10d, %eax
	imull	140(%rsp), %eax                 ## 4-byte Folded Reload
	movslq	%eax, %rbx
	addq	%r14, %rbx
	vaddps	(%r12,%rbx,4), %ymm13, %ymm0
	vandps	%ymm0, %ymm15, %ymm1
	vpsrad	$22, %ymm1, %ymm2
	vpslld	$23, %ymm2, %ymm3
	vpsubd	%ymm3, %ymm1, %ymm1
	vpaddd	%ymm1, %ymm14, %ymm1
	vmovaps	2592(%rsp), %ymm12              ## 32-byte Reload
	vaddps	%ymm1, %ymm12, %ymm5
	vmulps	%ymm5, %ymm5, %ymm7
	vpsrad	$23, %ymm0, %ymm0
	vmovdqa	3040(%rsp), %ymm11              ## 32-byte Reload
	vpaddd	%ymm0, %ymm11, %ymm0
	vpaddd	%ymm0, %ymm2, %ymm0
	vcvtdq2ps	%ymm0, %ymm8
	vbroadcastss	LCPI0_50(%rip), %ymm0   ## ymm0 = [6.93147182E-1,6.93147182E-1,6.93147182E-1,6.93147182E-1,6.93147182E-1,6.93147182E-1,6.93147182E-1,6.93147182E-1]
	vbroadcastss	LCPI0_51(%rip), %ymm1   ## ymm1 = [7.64031857E-2,7.64031857E-2,7.64031857E-2,7.64031857E-2,7.64031857E-2,7.64031857E-2,7.64031857E-2,7.64031857E-2]
	vbroadcastss	LCPI0_52(%rip), %ymm3   ## ymm3 = [2.06252187E-1,2.06252187E-1,2.06252187E-1,2.06252187E-1,2.06252187E-1,2.06252187E-1,2.06252187E-1,2.06252187E-1]
	vmovaps	%ymm1, %ymm2
	vfmadd213ps	%ymm3, %ymm7, %ymm2     ## ymm2 = (ymm7 * ymm2) + ymm3
	vbroadcastss	LCPI0_53(%rip), %ymm4   ## ymm4 = [3.33204657E-1,3.33204657E-1,3.33204657E-1,3.33204657E-1,3.33204657E-1,3.33204657E-1,3.33204657E-1,3.33204657E-1]
	vfmadd213ps	%ymm4, %ymm7, %ymm2     ## ymm2 = (ymm7 * ymm2) + ymm4
	vfmadd213ps	%ymm13, %ymm7, %ymm2    ## ymm2 = (ymm7 * ymm2) + ymm13
	vmulps	%ymm2, %ymm5, %ymm9
	vbroadcastss	LCPI0_54(%rip), %ymm2   ## ymm2 = [1.62529618E-1,1.62529618E-1,1.62529618E-1,1.62529618E-1,1.62529618E-1,1.62529618E-1,1.62529618E-1,1.62529618E-1]
	vbroadcastss	LCPI0_55(%rip), %ymm5   ## ymm5 = [-2.51102597E-1,-2.51102597E-1,-2.51102597E-1,-2.51102597E-1,-2.51102597E-1,-2.51102597E-1,-2.51102597E-1,-2.51102597E-1]
	vmovaps	%ymm2, %ymm10
	vfmsub213ps	%ymm5, %ymm7, %ymm10    ## ymm10 = (ymm7 * ymm10) - ymm5
	vbroadcastss	LCPI0_56(%rip), %ymm6   ## ymm6 = [-4.99975145E-1,-4.99975145E-1,-4.99975145E-1,-4.99975145E-1,-4.99975145E-1,-4.99975145E-1,-4.99975145E-1,-4.99975145E-1]
	vfmsub213ps	%ymm6, %ymm7, %ymm10    ## ymm10 = (ymm7 * ymm10) - ymm6
	vfmsub213ps	%ymm9, %ymm7, %ymm10    ## ymm10 = (ymm7 * ymm10) - ymm9
	vfmsub231ps	%ymm8, %ymm0, %ymm10    ## ymm10 = (ymm0 * ymm8) - ymm10
	movq	32(%rsp), %rcx                  ## 8-byte Reload
	vmovups	%ymm10, (%rcx,%rdi,4)
	movq	1288(%rsp), %rax                ## 8-byte Reload
	leaq	(%rax,%rbx), %rax
	vaddps	(%r12,%rax,4), %ymm13, %ymm7
	vandps	%ymm7, %ymm15, %ymm8
	vpsrad	$22, %ymm8, %ymm9
	vpslld	$23, %ymm9, %ymm10
	vpsubd	%ymm10, %ymm8, %ymm8
	vpaddd	%ymm14, %ymm8, %ymm8
	vaddps	%ymm12, %ymm8, %ymm8
	vmulps	%ymm8, %ymm8, %ymm10
	vpsrad	$23, %ymm7, %ymm7
	vpaddd	%ymm7, %ymm11, %ymm7
	vpaddd	%ymm7, %ymm9, %ymm7
	vcvtdq2ps	%ymm7, %ymm7
	vmovaps	%ymm1, %ymm9
	vfmadd213ps	%ymm3, %ymm10, %ymm9    ## ymm9 = (ymm10 * ymm9) + ymm3
	vfmadd213ps	%ymm4, %ymm10, %ymm9    ## ymm9 = (ymm10 * ymm9) + ymm4
	vfmadd213ps	%ymm13, %ymm10, %ymm9   ## ymm9 = (ymm10 * ymm9) + ymm13
	vmulps	%ymm9, %ymm8, %ymm8
	vmovaps	%ymm2, %ymm9
	vfmsub213ps	%ymm5, %ymm10, %ymm9    ## ymm9 = (ymm10 * ymm9) - ymm5
	vfmsub213ps	%ymm6, %ymm10, %ymm9    ## ymm9 = (ymm10 * ymm9) - ymm6
	vfmsub213ps	%ymm8, %ymm10, %ymm9    ## ymm9 = (ymm10 * ymm9) - ymm8
	vfmsub231ps	%ymm7, %ymm0, %ymm9     ## ymm9 = (ymm0 * ymm7) - ymm9
	vmovups	%ymm9, 32(%rcx,%rdi,4)
	movq	616(%rsp), %rax                 ## 8-byte Reload
	leaq	(%rax,%rbx), %rax
	vaddps	(%r12,%rax,4), %ymm13, %ymm7
	vandps	%ymm7, %ymm15, %ymm8
	vpsrad	$22, %ymm8, %ymm9
	vpslld	$23, %ymm9, %ymm10
	vpsubd	%ymm10, %ymm8, %ymm8
	vpaddd	%ymm14, %ymm8, %ymm8
	vaddps	%ymm12, %ymm8, %ymm8
	vmulps	%ymm8, %ymm8, %ymm10
	vpsrad	$23, %ymm7, %ymm7
	vpaddd	%ymm7, %ymm11, %ymm7
	vpaddd	%ymm7, %ymm9, %ymm7
	vcvtdq2ps	%ymm7, %ymm7
	vmovaps	%ymm1, %ymm9
	vfmadd213ps	%ymm3, %ymm10, %ymm9    ## ymm9 = (ymm10 * ymm9) + ymm3
	vfmadd213ps	%ymm4, %ymm10, %ymm9    ## ymm9 = (ymm10 * ymm9) + ymm4
	vfmadd213ps	%ymm13, %ymm10, %ymm9   ## ymm9 = (ymm10 * ymm9) + ymm13
	vmulps	%ymm9, %ymm8, %ymm8
	vmovaps	%ymm2, %ymm9
	vfmsub213ps	%ymm5, %ymm10, %ymm9    ## ymm9 = (ymm10 * ymm9) - ymm5
	vfmsub213ps	%ymm6, %ymm10, %ymm9    ## ymm9 = (ymm10 * ymm9) - ymm6
	vfmsub213ps	%ymm8, %ymm10, %ymm9    ## ymm9 = (ymm10 * ymm9) - ymm8
	vfmsub231ps	%ymm7, %ymm0, %ymm9     ## ymm9 = (ymm0 * ymm7) - ymm9
	vmovups	%ymm9, 64(%rcx,%rdi,4)
	addq	1280(%rsp), %rbx                ## 8-byte Folded Reload
	vaddps	(%r12,%rbx,4), %ymm13, %ymm7
	vandps	%ymm7, %ymm15, %ymm8
	vpsrad	$22, %ymm8, %ymm9
	vpslld	$23, %ymm9, %ymm10
	vpsubd	%ymm10, %ymm8, %ymm8
	vpaddd	%ymm14, %ymm8, %ymm8
	vaddps	%ymm12, %ymm8, %ymm8
	vmulps	%ymm8, %ymm8, %ymm10
	vpsrad	$23, %ymm7, %ymm7
	vpaddd	%ymm7, %ymm11, %ymm7
	vpaddd	%ymm7, %ymm9, %ymm7
	vmovss	LCPI0_57(%rip), %xmm9           ## xmm9 = mem[0],zero,zero,zero
	vcvtdq2ps	%ymm7, %ymm7
	vfmadd213ps	%ymm3, %ymm10, %ymm1    ## ymm1 = (ymm10 * ymm1) + ymm3
	vfmadd213ps	%ymm4, %ymm10, %ymm1    ## ymm1 = (ymm10 * ymm1) + ymm4
	vmovss	LCPI0_45(%rip), %xmm4           ## xmm4 = mem[0],zero,zero,zero
	vfmadd213ps	%ymm13, %ymm10, %ymm1   ## ymm1 = (ymm10 * ymm1) + ymm13
	vmulps	%ymm1, %ymm8, %ymm1
	vmovss	LCPI0_53(%rip), %xmm8           ## xmm8 = mem[0],zero,zero,zero
	vfmsub213ps	%ymm5, %ymm10, %ymm2    ## ymm2 = (ymm10 * ymm2) - ymm5
	vmovss	LCPI0_44(%rip), %xmm11          ## xmm11 = mem[0],zero,zero,zero
	vfmsub213ps	%ymm6, %ymm10, %ymm2    ## ymm2 = (ymm10 * ymm2) - ymm6
	vmovss	LCPI0_51(%rip), %xmm12          ## xmm12 = mem[0],zero,zero,zero
	vfmsub213ps	%ymm1, %ymm10, %ymm2    ## ymm2 = (ymm10 * ymm2) - ymm1
	vmovss	LCPI0_50(%rip), %xmm10          ## xmm10 = mem[0],zero,zero,zero
	vmovss	LCPI0_56(%rip), %xmm6           ## xmm6 = mem[0],zero,zero,zero
	vmovss	LCPI0_55(%rip), %xmm5           ## xmm5 = mem[0],zero,zero,zero
	vfmsub231ps	%ymm7, %ymm0, %ymm2     ## ymm2 = (ymm0 * ymm7) - ymm2
	vmovss	LCPI0_52(%rip), %xmm7           ## xmm7 = mem[0],zero,zero,zero
	vmovups	%ymm2, 96(%rcx,%rdi,4)
	movl	$32, %edi
	jmp	LBB0_93
	.p2align	4, 0x90
LBB0_92:                                ##   in Loop: Header=BB0_90 Depth=2
	xorl	%edi, %edi
LBB0_93:                                ## %"for normalized_schedule_features.s0.c.preheader"
                                        ##   in Loop: Header=BB0_90 Depth=2
	movq	520(%rsp), %rdx                 ## 8-byte Reload
	movslq	%r9d, %rbx
	movq	1136(%rsp), %rax                ## 8-byte Reload
	imulq	%rdi, %rax
	addq	1184(%rsp), %rax                ## 8-byte Folded Reload
	addq	%rbx, %rax
	leaq	(%r12,%rax,4), %rbx
	.p2align	4, 0x90
LBB0_94:                                ## %"for normalized_schedule_features.s0.c"
                                        ##   Parent Loop BB0_87 Depth=1
                                        ##     Parent Loop BB0_90 Depth=2
                                        ## =>    This Inner Loop Header: Depth=3
	vaddss	(%rbx), %xmm4, %xmm0
	vmovd	%xmm0, %eax
	movl	%eax, %esi
	andl	$-2139095041, %esi              ## imm = 0x807FFFFF
	movl	%esi, %ecx
	sarl	$22, %ecx
	sarl	$23, %eax
	addl	%ecx, %eax
	addl	$-127, %eax
                                        ## kill: def $ecx killed $ecx killed $rcx def $rcx
	shll	$23, %ecx
	negl	%ecx
	addl	%esi, %ecx
	addl	$1065353216, %ecx               ## imm = 0x3F800000
	vmovd	%ecx, %xmm0
	vaddss	%xmm0, %xmm11, %xmm0
	vmulss	%xmm0, %xmm0, %xmm1
	vmovaps	%xmm12, %xmm2
	vfmadd213ss	%xmm7, %xmm1, %xmm2     ## xmm2 = (xmm1 * xmm2) + xmm7
	vfmadd213ss	%xmm8, %xmm1, %xmm2     ## xmm2 = (xmm1 * xmm2) + xmm8
	vfmadd213ss	%xmm4, %xmm1, %xmm2     ## xmm2 = (xmm1 * xmm2) + xmm4
	vmovaps	%xmm9, %xmm3
	vmulss	%xmm2, %xmm0, %xmm0
	vfmadd213ss	%xmm5, %xmm1, %xmm3     ## xmm3 = (xmm1 * xmm3) + xmm5
	vfmadd213ss	%xmm6, %xmm1, %xmm3     ## xmm3 = (xmm1 * xmm3) + xmm6
	vcvtsi2ss	%eax, %xmm13, %xmm2
	vfmadd213ss	%xmm0, %xmm1, %xmm3     ## xmm3 = (xmm1 * xmm3) + xmm0
	vfmadd231ss	%xmm10, %xmm2, %xmm3    ## xmm3 = (xmm2 * xmm10) + xmm3
	vmovss	%xmm3, (%r8,%rdi,4)
	incq	%rdi
	addq	%rdx, %rbx
	cmpq	$39, %rdi
	jne	LBB0_94
## %bb.95:                              ## %"end for normalized_schedule_features.s0.c"
                                        ##   in Loop: Header=BB0_90 Depth=2
	incq	%r10
	addq	$156, %r8
	addl	140(%rsp), %r9d                 ## 4-byte Folded Reload
	cmpq	512(%rsp), %r10                 ## 8-byte Folded Reload
	movq	376(%rsp), %r13                 ## 8-byte Reload
	jne	LBB0_90
LBB0_96:                                ## %"end for normalized_schedule_features.s0.s"
                                        ##   in Loop: Header=BB0_87 Depth=1
	movl	$2147483648, %eax               ## imm = 0x80000000
	cmpq	%rax, 1432(%rsp)                ## 8-byte Folded Reload
	jae	LBB0_148
## %bb.97:                              ## %"assert succeeded175"
                                        ##   in Loop: Header=BB0_87 Depth=1
	xorl	%edi, %edi
	movq	2312(%rsp), %rsi                ## 8-byte Reload
	vzeroupper
	callq	_halide_malloc
	movq	%rax, 256(%rsp)                 ## 8-byte Spill
	testq	%rax, %rax
	je	LBB0_149
## %bb.98:                              ## %"assert succeeded177"
                                        ##   in Loop: Header=BB0_87 Depth=1
	cmpl	$16777216, 2320(%rsp)           ## 4-byte Folded Reload
                                        ## imm = 0x1000000
	jae	LBB0_151
## %bb.99:                              ## %"assert succeeded179"
                                        ##   in Loop: Header=BB0_87 Depth=1
	xorl	%edi, %edi
	movq	2288(%rsp), %rsi                ## 8-byte Reload
	callq	_halide_malloc
	testq	%rax, %rax
	je	LBB0_152
## %bb.100:                             ## %"assert succeeded181"
                                        ##   in Loop: Header=BB0_87 Depth=1
	movq	%rax, %r12
	cmpl	$0, 192(%rsp)                   ## 4-byte Folded Reload
	movq	1216(%rsp), %rbx                ## 8-byte Reload
	vxorps	%xmm12, %xmm12, %xmm12
	jle	LBB0_134
## %bb.101:                             ## %"for head2_relu.s0.w.w.preheader"
                                        ##   in Loop: Header=BB0_87 Depth=1
	movq	1264(%rsp), %rax                ## 8-byte Reload
	vmovups	(%rax), %ymm0
	vmovups	32(%rax), %ymm1
	vmovups	64(%rax), %ymm2
	movq	32(%rsp), %rax                  ## 8-byte Reload
	addq	$472, %rax                      ## imm = 0x1D8
	xorl	%ecx, %ecx
	jmp	LBB0_103
	.p2align	4, 0x90
LBB0_102:                               ## %"for head2_relu.s0.w.v9.preheader.2"
                                        ##   in Loop: Header=BB0_103 Depth=2
	vmaxps	%ymm12, %ymm10, %ymm3
	orq	$64, %rcx
	movq	256(%rsp), %rdx                 ## 8-byte Reload
	vmovaps	%ymm3, (%rdx,%rcx)
	vmaxps	%ymm12, %ymm9, %ymm3
	vmovaps	%ymm3, 64(%r10,%rdx)
	vmaxps	%ymm12, %ymm8, %ymm3
	vmovaps	%ymm3, 64(%r9,%rdx)
	vmaxps	%ymm12, %ymm7, %ymm3
	shlq	$5, %r11
	leaq	(%r11,%r11,2), %rcx
	orq	$64, %rcx
	vmovaps	%ymm3, (%rdx,%rcx)
	movq	544(%rsp), %rcx                 ## 8-byte Reload
	incq	%rcx
	addq	$624, %rax                      ## imm = 0x270
	cmpq	1328(%rsp), %rcx                ## 8-byte Folded Reload
	je	LBB0_112
LBB0_103:                               ## %"for head2_relu.s0.w.w"
                                        ##   Parent Loop BB0_87 Depth=1
                                        ## =>  This Loop Header: Depth=2
                                        ##       Child Loop BB0_104 Depth 3
                                        ##       Child Loop BB0_107 Depth 3
                                        ##       Child Loop BB0_110 Depth 3
	leal	(,%rcx,4), %r8d
	movq	$-38, %rdx
	movq	1144(%rsp), %rsi                ## 8-byte Reload
	vmovaps	%ymm0, %ymm4
	vmovaps	%ymm0, %ymm5
	vmovaps	%ymm0, %ymm6
	vmovaps	%ymm0, %ymm7
	.p2align	4, 0x90
LBB0_104:                               ## %"for head2_conv.s1.r40$x"
                                        ##   Parent Loop BB0_87 Depth=1
                                        ##     Parent Loop BB0_103 Depth=2
                                        ## =>    This Inner Loop Header: Depth=3
	vmovups	(%rsi), %ymm11
	vbroadcastss	-320(%rax,%rdx,4), %ymm10
	vfmadd213ps	%ymm7, %ymm11, %ymm10   ## ymm10 = (ymm11 * ymm10) + ymm7
	vbroadcastss	-164(%rax,%rdx,4), %ymm9
	vfmadd213ps	%ymm6, %ymm11, %ymm9    ## ymm9 = (ymm11 * ymm9) + ymm6
	vbroadcastss	-8(%rax,%rdx,4), %ymm8
	vfmadd213ps	%ymm5, %ymm11, %ymm8    ## ymm8 = (ymm11 * ymm8) + ymm5
	vbroadcastss	148(%rax,%rdx,4), %ymm3
	vfmadd213ps	%ymm4, %ymm11, %ymm3    ## ymm3 = (ymm11 * ymm3) + ymm4
	testq	%rdx, %rdx
	je	LBB0_106
## %bb.105:                             ## %"for head2_conv.s1.r40$x.11076"
                                        ##   in Loop: Header=BB0_104 Depth=3
	vmovups	(%rsi,%r13,4), %ymm11
	vbroadcastss	-316(%rax,%rdx,4), %ymm7
	vfmadd213ps	%ymm10, %ymm11, %ymm7   ## ymm7 = (ymm11 * ymm7) + ymm10
	vbroadcastss	-160(%rax,%rdx,4), %ymm6
	vfmadd213ps	%ymm9, %ymm11, %ymm6    ## ymm6 = (ymm11 * ymm6) + ymm9
	vbroadcastss	-4(%rax,%rdx,4), %ymm5
	vfmadd213ps	%ymm8, %ymm11, %ymm5    ## ymm5 = (ymm11 * ymm5) + ymm8
	vbroadcastss	152(%rax,%rdx,4), %ymm4
	vfmadd213ps	%ymm3, %ymm11, %ymm4    ## ymm4 = (ymm11 * ymm4) + ymm3
	addq	$2, %rdx
	addq	%rbx, %rsi
	jmp	LBB0_104
	.p2align	4, 0x90
LBB0_106:                               ## %"for head2_relu.s0.w.v9.preheader"
                                        ##   in Loop: Header=BB0_103 Depth=2
	movq	%rcx, 544(%rsp)                 ## 8-byte Spill
	vmaxps	%ymm12, %ymm10, %ymm4
	leaq	(%r8,%r8,2), %rcx
	shlq	$5, %rcx
	movq	256(%rsp), %rsi                 ## 8-byte Reload
	vmovaps	%ymm4, (%rsi,%rcx)
	vmaxps	%ymm12, %ymm9, %ymm4
	movq	%r8, %rcx
	orq	$1, %rcx
	leaq	(%rcx,%rcx,2), %r10
	shlq	$5, %r10
	vmovaps	%ymm4, (%rsi,%r10)
	vmaxps	%ymm12, %ymm8, %ymm4
	movq	%r8, %rbx
	orq	$2, %rbx
	leaq	(%rbx,%rbx,2), %r9
	shlq	$5, %r9
	vmovaps	%ymm4, (%rsi,%r9)
	vmaxps	%ymm12, %ymm3, %ymm3
	movq	%r8, %r11
	orq	$3, %r11
	leaq	(%r11,%r11,2), %rdi
	shlq	$5, %rdi
	vmovaps	%ymm3, (%rsi,%rdi)
	movq	$-38, %rsi
	movq	632(%rsp), %rcx                 ## 8-byte Reload
	vmovaps	%ymm1, %ymm6
	vmovaps	%ymm1, %ymm5
	vmovaps	%ymm1, %ymm4
	vmovaps	%ymm1, %ymm3
	.p2align	4, 0x90
LBB0_107:                               ## %"for head2_conv.s1.r40$x.1"
                                        ##   Parent Loop BB0_87 Depth=1
                                        ##     Parent Loop BB0_103 Depth=2
                                        ## =>    This Inner Loop Header: Depth=3
	vmovups	(%rcx), %ymm11
	vbroadcastss	-320(%rax,%rsi,4), %ymm10
	vfmadd213ps	%ymm3, %ymm11, %ymm10   ## ymm10 = (ymm11 * ymm10) + ymm3
	vbroadcastss	-164(%rax,%rsi,4), %ymm9
	vfmadd213ps	%ymm4, %ymm11, %ymm9    ## ymm9 = (ymm11 * ymm9) + ymm4
	vbroadcastss	-8(%rax,%rsi,4), %ymm8
	vfmadd213ps	%ymm5, %ymm11, %ymm8    ## ymm8 = (ymm11 * ymm8) + ymm5
	vbroadcastss	148(%rax,%rsi,4), %ymm7
	vfmadd213ps	%ymm6, %ymm11, %ymm7    ## ymm7 = (ymm11 * ymm7) + ymm6
	testq	%rsi, %rsi
	je	LBB0_109
## %bb.108:                             ## %"for head2_conv.s1.r40$x.1.1"
                                        ##   in Loop: Header=BB0_107 Depth=3
	movq	376(%rsp), %r14                 ## 8-byte Reload
	vmovups	(%rcx,%r14,4), %ymm11
	vbroadcastss	-316(%rax,%rsi,4), %ymm3
	vfmadd213ps	%ymm10, %ymm11, %ymm3   ## ymm3 = (ymm11 * ymm3) + ymm10
	vbroadcastss	-160(%rax,%rsi,4), %ymm4
	vfmadd213ps	%ymm9, %ymm11, %ymm4    ## ymm4 = (ymm11 * ymm4) + ymm9
	vbroadcastss	-4(%rax,%rsi,4), %ymm5
	vfmadd213ps	%ymm8, %ymm11, %ymm5    ## ymm5 = (ymm11 * ymm5) + ymm8
	vbroadcastss	152(%rax,%rsi,4), %ymm6
	vfmadd213ps	%ymm7, %ymm11, %ymm6    ## ymm6 = (ymm11 * ymm6) + ymm7
	addq	$2, %rsi
	addq	1216(%rsp), %rcx                ## 8-byte Folded Reload
	jmp	LBB0_107
	.p2align	4, 0x90
LBB0_109:                               ## %"for head2_relu.s0.w.v9.preheader.1"
                                        ##   in Loop: Header=BB0_103 Depth=2
	vmaxps	%ymm12, %ymm10, %ymm3
	shlq	$5, %r8
	leaq	(%r8,%r8,2), %rcx
	movq	%rcx, %rsi
	orq	$32, %rsi
	movq	256(%rsp), %rdx                 ## 8-byte Reload
	vmovaps	%ymm3, (%rdx,%rsi)
	vmaxps	%ymm12, %ymm9, %ymm3
	vmovaps	%ymm3, 32(%r10,%rdx)
	vmaxps	%ymm12, %ymm8, %ymm3
	shlq	$5, %rbx
	leaq	(%rbx,%rbx,2), %rsi
	orq	$32, %rsi
	vmovaps	%ymm3, (%rdx,%rsi)
	vmaxps	%ymm12, %ymm7, %ymm3
	vmovaps	%ymm3, 32(%rdi,%rdx)
	movq	$-38, %rsi
	movq	1312(%rsp), %rdi                ## 8-byte Reload
	vmovaps	%ymm2, %ymm6
	vmovaps	%ymm2, %ymm5
	vmovaps	%ymm2, %ymm4
	vmovaps	%ymm2, %ymm3
	movq	376(%rsp), %r13                 ## 8-byte Reload
	movq	1216(%rsp), %rbx                ## 8-byte Reload
	.p2align	4, 0x90
LBB0_110:                               ## %"for head2_conv.s1.r40$x.2"
                                        ##   Parent Loop BB0_87 Depth=1
                                        ##     Parent Loop BB0_103 Depth=2
                                        ## =>    This Inner Loop Header: Depth=3
	vmovups	(%rdi), %ymm11
	vbroadcastss	-320(%rax,%rsi,4), %ymm10
	vfmadd213ps	%ymm3, %ymm11, %ymm10   ## ymm10 = (ymm11 * ymm10) + ymm3
	vbroadcastss	-164(%rax,%rsi,4), %ymm9
	vfmadd213ps	%ymm4, %ymm11, %ymm9    ## ymm9 = (ymm11 * ymm9) + ymm4
	vbroadcastss	-8(%rax,%rsi,4), %ymm8
	vfmadd213ps	%ymm5, %ymm11, %ymm8    ## ymm8 = (ymm11 * ymm8) + ymm5
	vbroadcastss	148(%rax,%rsi,4), %ymm7
	vfmadd213ps	%ymm6, %ymm11, %ymm7    ## ymm7 = (ymm11 * ymm7) + ymm6
	testq	%rsi, %rsi
	je	LBB0_102
## %bb.111:                             ## %"for head2_conv.s1.r40$x.2.1"
                                        ##   in Loop: Header=BB0_110 Depth=3
	vmovups	(%rdi,%r13,4), %ymm11
	vbroadcastss	-316(%rax,%rsi,4), %ymm3
	vfmadd213ps	%ymm10, %ymm11, %ymm3   ## ymm3 = (ymm11 * ymm3) + ymm10
	vbroadcastss	-160(%rax,%rsi,4), %ymm4
	vfmadd213ps	%ymm9, %ymm11, %ymm4    ## ymm4 = (ymm11 * ymm4) + ymm9
	vbroadcastss	-4(%rax,%rsi,4), %ymm5
	vfmadd213ps	%ymm8, %ymm11, %ymm5    ## ymm5 = (ymm11 * ymm5) + ymm8
	vbroadcastss	152(%rax,%rsi,4), %ymm6
	vfmadd213ps	%ymm7, %ymm11, %ymm6    ## ymm6 = (ymm11 * ymm6) + ymm7
	addq	$2, %rsi
	addq	%rbx, %rdi
	jmp	LBB0_110
	.p2align	4, 0x90
LBB0_112:                               ## %"for relu1.s0.w.w.preheader"
                                        ##   in Loop: Header=BB0_87 Depth=1
	xorl	%edi, %edi
	movq	32(%rsp), %rsi                  ## 8-byte Reload
	vzeroupper
	callq	_halide_free
	vxorps	%xmm9, %xmm9, %xmm9
	movq	256(%rsp), %rax                 ## 8-byte Reload
	addq	$292, %rax                      ## imm = 0x124
	xorl	%r8d, %r8d
	movq	728(%rsp), %r10                 ## 8-byte Reload
	movq	600(%rsp), %rdx                 ## 8-byte Reload
	movq	88(%rsp), %rsi                  ## 8-byte Reload
	movq	2280(%rsp), %r13                ## 8-byte Reload
	.p2align	4, 0x90
LBB0_113:                               ## %"for relu1.s0.w.w"
                                        ##   Parent Loop BB0_87 Depth=1
                                        ## =>  This Loop Header: Depth=2
                                        ##       Child Loop BB0_114 Depth 3
                                        ##       Child Loop BB0_116 Depth 3
                                        ##       Child Loop BB0_118 Depth 3
                                        ##       Child Loop BB0_120 Depth 3
	movq	%r8, %r14
	shlq	$7, %r14
	leal	(,%r8,4), %r11d
	movq	%r8, %rcx
	shlq	$9, %rcx
	vmovaps	(%rsi,%rcx), %ymm3
	vmovaps	128(%rsi,%rcx), %ymm2
	vmovaps	256(%rsi,%rcx), %ymm1
	vmovaps	384(%rsi,%rcx), %ymm0
	movq	$-96, %rsi
	movq	%r10, %rbx
	.p2align	4, 0x90
LBB0_114:                               ## %"for conv1_stage2.s1.r63$x"
                                        ##   Parent Loop BB0_87 Depth=1
                                        ##     Parent Loop BB0_113 Depth=2
                                        ## =>    This Inner Loop Header: Depth=3
	movq	216(%rsp), %rdi                 ## 8-byte Reload
	vmovups	(%rbx,%rdi), %ymm4
	vbroadcastss	-196(%rax,%rsi), %ymm5
	vfmadd213ps	%ymm3, %ymm4, %ymm5     ## ymm5 = (ymm4 * ymm5) + ymm3
	vbroadcastss	-100(%rax,%rsi), %ymm6
	vfmadd213ps	%ymm2, %ymm4, %ymm6     ## ymm6 = (ymm4 * ymm6) + ymm2
	vbroadcastss	-4(%rax,%rsi), %ymm7
	vfmadd213ps	%ymm1, %ymm4, %ymm7     ## ymm7 = (ymm4 * ymm7) + ymm1
	vbroadcastss	92(%rax,%rsi), %ymm8
	vfmadd213ps	%ymm0, %ymm4, %ymm8     ## ymm8 = (ymm4 * ymm8) + ymm0
	vmovups	(%rbx,%r15), %ymm4
	vbroadcastss	-192(%rax,%rsi), %ymm3
	vfmadd213ps	%ymm5, %ymm4, %ymm3     ## ymm3 = (ymm4 * ymm3) + ymm5
	vbroadcastss	-96(%rax,%rsi), %ymm2
	vfmadd213ps	%ymm6, %ymm4, %ymm2     ## ymm2 = (ymm4 * ymm2) + ymm6
	vbroadcastss	(%rax,%rsi), %ymm1
	vfmadd213ps	%ymm7, %ymm4, %ymm1     ## ymm1 = (ymm4 * ymm1) + ymm7
	vbroadcastss	96(%rax,%rsi), %ymm0
	vfmadd213ps	%ymm8, %ymm4, %ymm0     ## ymm0 = (ymm4 * ymm0) + ymm8
	addq	%rdx, %rbx
	addq	$8, %rsi
	jne	LBB0_114
## %bb.115:                             ## %"for relu1.s0.w.v12.preheader"
                                        ##   in Loop: Header=BB0_113 Depth=2
	vmaxps	%ymm9, %ymm3, %ymm3
	movq	%r11, %r9
	shlq	$5, %r9
	shlq	$7, %r11
	vmovaps	%ymm3, (%r12,%r11)
	vmaxps	%ymm9, %ymm2, %ymm2
	movq	%r11, %rsi
	orq	$128, %rsi
	vmovaps	%ymm2, (%r12,%rsi)
	vmaxps	%ymm9, %ymm1, %ymm1
	movq	%r11, %rsi
	orq	$256, %rsi                      ## imm = 0x100
	vmovaps	%ymm1, (%r12,%rsi)
	vmaxps	%ymm9, %ymm0, %ymm0
	movq	%r11, %rsi
	orq	$384, %rsi                      ## imm = 0x180
	vmovaps	%ymm0, (%r12,%rsi)
	movq	88(%rsp), %rsi                  ## 8-byte Reload
	vmovaps	32(%rsi,%rcx), %ymm3
	vmovaps	160(%rsi,%rcx), %ymm2
	vmovaps	288(%rsi,%rcx), %ymm1
	vmovaps	416(%rsi,%rcx), %ymm0
	movq	$-96, %rbx
	movq	%r13, %rsi
	.p2align	4, 0x90
LBB0_116:                               ## %"for conv1_stage2.s1.r63$x.1"
                                        ##   Parent Loop BB0_87 Depth=1
                                        ##     Parent Loop BB0_113 Depth=2
                                        ## =>    This Inner Loop Header: Depth=3
	movq	216(%rsp), %rdi                 ## 8-byte Reload
	vmovups	(%rsi,%rdi), %ymm4
	vbroadcastss	-196(%rax,%rbx), %ymm5
	vfmadd213ps	%ymm3, %ymm4, %ymm5     ## ymm5 = (ymm4 * ymm5) + ymm3
	vbroadcastss	-100(%rax,%rbx), %ymm6
	vfmadd213ps	%ymm2, %ymm4, %ymm6     ## ymm6 = (ymm4 * ymm6) + ymm2
	vbroadcastss	-4(%rax,%rbx), %ymm7
	vfmadd213ps	%ymm1, %ymm4, %ymm7     ## ymm7 = (ymm4 * ymm7) + ymm1
	vbroadcastss	92(%rax,%rbx), %ymm8
	vfmadd213ps	%ymm0, %ymm4, %ymm8     ## ymm8 = (ymm4 * ymm8) + ymm0
	vmovups	(%rsi,%r15), %ymm4
	vbroadcastss	-192(%rax,%rbx), %ymm3
	vfmadd213ps	%ymm5, %ymm4, %ymm3     ## ymm3 = (ymm4 * ymm3) + ymm5
	vbroadcastss	-96(%rax,%rbx), %ymm2
	vfmadd213ps	%ymm6, %ymm4, %ymm2     ## ymm2 = (ymm4 * ymm2) + ymm6
	vbroadcastss	(%rax,%rbx), %ymm1
	vfmadd213ps	%ymm7, %ymm4, %ymm1     ## ymm1 = (ymm4 * ymm1) + ymm7
	vbroadcastss	96(%rax,%rbx), %ymm0
	vfmadd213ps	%ymm8, %ymm4, %ymm0     ## ymm0 = (ymm4 * ymm0) + ymm8
	addq	%rdx, %rsi
	addq	$8, %rbx
	jne	LBB0_116
## %bb.117:                             ## %"for relu1.s0.w.v12.preheader.1"
                                        ##   in Loop: Header=BB0_113 Depth=2
	vmaxps	%ymm9, %ymm3, %ymm3
	vmovaps	%ymm3, 32(%r12,%r11)
	vmaxps	%ymm9, %ymm2, %ymm2
	movq	%r11, %rsi
	orq	$160, %rsi
	vmovaps	%ymm2, (%r12,%rsi)
	vmaxps	%ymm9, %ymm1, %ymm1
	movq	%r11, %rsi
	orq	$288, %rsi                      ## imm = 0x120
	vmovaps	%ymm1, (%r12,%rsi)
	vmaxps	%ymm9, %ymm0, %ymm0
	movq	%r11, %rsi
	orq	$416, %rsi                      ## imm = 0x1A0
	vmovaps	%ymm0, (%r12,%rsi)
	movq	88(%rsp), %rsi                  ## 8-byte Reload
	vmovaps	64(%rsi,%rcx), %ymm3
	vmovaps	192(%rsi,%rcx), %ymm2
	vmovaps	320(%rsi,%rcx), %ymm1
	vmovaps	448(%rsi,%rcx), %ymm0
	movq	$-96, %rcx
	movq	1296(%rsp), %rbx                ## 8-byte Reload
	.p2align	4, 0x90
LBB0_118:                               ## %"for conv1_stage2.s1.r63$x.2"
                                        ##   Parent Loop BB0_87 Depth=1
                                        ##     Parent Loop BB0_113 Depth=2
                                        ## =>    This Inner Loop Header: Depth=3
	movq	216(%rsp), %rdi                 ## 8-byte Reload
	vmovups	(%rbx,%rdi), %ymm4
	vbroadcastss	-196(%rax,%rcx), %ymm5
	vfmadd213ps	%ymm3, %ymm4, %ymm5     ## ymm5 = (ymm4 * ymm5) + ymm3
	vbroadcastss	-100(%rax,%rcx), %ymm6
	vfmadd213ps	%ymm2, %ymm4, %ymm6     ## ymm6 = (ymm4 * ymm6) + ymm2
	vbroadcastss	-4(%rax,%rcx), %ymm7
	vfmadd213ps	%ymm1, %ymm4, %ymm7     ## ymm7 = (ymm4 * ymm7) + ymm1
	vbroadcastss	92(%rax,%rcx), %ymm8
	vfmadd213ps	%ymm0, %ymm4, %ymm8     ## ymm8 = (ymm4 * ymm8) + ymm0
	vmovups	(%rbx,%r15), %ymm4
	vbroadcastss	-192(%rax,%rcx), %ymm3
	vfmadd213ps	%ymm5, %ymm4, %ymm3     ## ymm3 = (ymm4 * ymm3) + ymm5
	vbroadcastss	-96(%rax,%rcx), %ymm2
	vfmadd213ps	%ymm6, %ymm4, %ymm2     ## ymm2 = (ymm4 * ymm2) + ymm6
	vbroadcastss	(%rax,%rcx), %ymm1
	vfmadd213ps	%ymm7, %ymm4, %ymm1     ## ymm1 = (ymm4 * ymm1) + ymm7
	vbroadcastss	96(%rax,%rcx), %ymm0
	vfmadd213ps	%ymm8, %ymm4, %ymm0     ## ymm0 = (ymm4 * ymm0) + ymm8
	addq	%rdx, %rbx
	addq	$8, %rcx
	jne	LBB0_118
## %bb.119:                             ## %"for relu1.s0.w.v12.preheader.2"
                                        ##   in Loop: Header=BB0_113 Depth=2
	vmaxps	%ymm9, %ymm3, %ymm3
	vmovaps	%ymm3, 64(%r12,%r11)
	vmaxps	%ymm9, %ymm2, %ymm2
	movq	%r11, %rcx
	orq	$192, %rcx
	vmovaps	%ymm2, (%r12,%rcx)
	vmaxps	%ymm9, %ymm1, %ymm1
	movq	%r11, %rcx
	orq	$320, %rcx                      ## imm = 0x140
	vmovaps	%ymm1, (%r12,%rcx)
	vmaxps	%ymm9, %ymm0, %ymm0
	movq	%r11, %rcx
	orq	$448, %rcx                      ## imm = 0x1C0
	vmovaps	%ymm0, (%r12,%rcx)
	shlq	$2, %r14
	orq	$96, %r14
	vmovaps	(%rsi,%r14), %ymm7
	vmovaps	128(%rsi,%r14), %ymm6
	vmovaps	256(%rsi,%r14), %ymm8
	vmovaps	384(%rsi,%r14), %ymm5
	movq	$-96, %rcx
	movq	1376(%rsp), %rdi                ## 8-byte Reload
	.p2align	4, 0x90
LBB0_120:                               ## %"for conv1_stage2.s1.r63$x.3"
                                        ##   Parent Loop BB0_87 Depth=1
                                        ##     Parent Loop BB0_113 Depth=2
                                        ## =>    This Inner Loop Header: Depth=3
	movq	216(%rsp), %rbx                 ## 8-byte Reload
	vmovups	(%rdi,%rbx), %ymm0
	vbroadcastss	-196(%rax,%rcx), %ymm1
	vfmadd213ps	%ymm7, %ymm0, %ymm1     ## ymm1 = (ymm0 * ymm1) + ymm7
	vbroadcastss	-100(%rax,%rcx), %ymm2
	vfmadd213ps	%ymm6, %ymm0, %ymm2     ## ymm2 = (ymm0 * ymm2) + ymm6
	vbroadcastss	-4(%rax,%rcx), %ymm3
	vfmadd213ps	%ymm8, %ymm0, %ymm3     ## ymm3 = (ymm0 * ymm3) + ymm8
	vbroadcastss	92(%rax,%rcx), %ymm4
	vfmadd213ps	%ymm5, %ymm0, %ymm4     ## ymm4 = (ymm0 * ymm4) + ymm5
	vmovups	(%rdi,%r15), %ymm0
	vbroadcastss	-192(%rax,%rcx), %ymm7
	vfmadd213ps	%ymm1, %ymm0, %ymm7     ## ymm7 = (ymm0 * ymm7) + ymm1
	vbroadcastss	-96(%rax,%rcx), %ymm6
	vfmadd213ps	%ymm2, %ymm0, %ymm6     ## ymm6 = (ymm0 * ymm6) + ymm2
	vbroadcastss	(%rax,%rcx), %ymm8
	vfmadd213ps	%ymm3, %ymm0, %ymm8     ## ymm8 = (ymm0 * ymm8) + ymm3
	vbroadcastss	96(%rax,%rcx), %ymm5
	vfmadd213ps	%ymm4, %ymm0, %ymm5     ## ymm5 = (ymm0 * ymm5) + ymm4
	addq	%rdx, %rdi
	addq	$8, %rcx
	jne	LBB0_120
## %bb.121:                             ## %"for relu1.s0.w.v12.preheader.3"
                                        ##   in Loop: Header=BB0_113 Depth=2
	vmaxps	%ymm9, %ymm7, %ymm0
	shlq	$2, %r9
	orq	$96, %r9
	vmovaps	%ymm0, (%r12,%r9)
	vmaxps	%ymm9, %ymm6, %ymm0
	movq	%r11, %rcx
	orq	$224, %rcx
	vmovaps	%ymm0, (%r12,%rcx)
	vmaxps	%ymm9, %ymm8, %ymm0
	movq	%r11, %rcx
	orq	$352, %rcx                      ## imm = 0x160
	vmovaps	%ymm0, (%r12,%rcx)
	vmaxps	%ymm9, %ymm5, %ymm0
	orq	$480, %r11                      ## imm = 0x1E0
	vmovaps	%ymm0, (%r12,%r11)
	incq	%r8
	addq	$384, %rax                      ## imm = 0x180
	cmpq	1328(%rsp), %r8                 ## 8-byte Folded Reload
	jne	LBB0_113
## %bb.122:                             ## %call_destructor.exit317
                                        ##   in Loop: Header=BB0_87 Depth=1
	vmovaps	%ymm8, 1856(%rsp)               ## 32-byte Spill
	vmovaps	%ymm7, 1888(%rsp)               ## 32-byte Spill
	vmovaps	%ymm6, 1440(%rsp)               ## 32-byte Spill
	vmovaps	%ymm5, 1472(%rsp)               ## 32-byte Spill
	xorl	%edi, %edi
	movq	256(%rsp), %rsi                 ## 8-byte Reload
	vzeroupper
	callq	_halide_free
	cmpl	$0, 192(%rsp)                   ## 4-byte Folded Reload
	jle	LBB0_135
## %bb.123:                             ## %"for f1.s1.r79$x.preheader"
                                        ##   in Loop: Header=BB0_87 Depth=1
	cmpb	$0, 103(%rsp)                   ## 1-byte Folded Reload
	je	LBB0_129
## %bb.124:                             ## %vector.body822.preheader
                                        ##   in Loop: Header=BB0_87 Depth=1
	vxorps	%xmm0, %xmm0, %xmm0
	vmovaps	%ymm0, 1824(%rsp)               ## 32-byte Spill
	movq	936(%rsp), %rax                 ## 8-byte Reload
	movq	%rax, 640(%rsp)                 ## 8-byte Spill
	movq	1424(%rsp), %rcx                ## 8-byte Reload
	movq	%rcx, 624(%rsp)                 ## 8-byte Spill
	vmovdqa	LCPI0_59(%rip), %ymm1           ## ymm1 = [0,1,2,3]
	vmovdqa	LCPI0_58(%rip), %ymm13          ## ymm13 = [4,5,6,7]
	vxorps	%xmm2, %xmm2, %xmm2
	vmovaps	%ymm2, 1792(%rsp)               ## 32-byte Spill
	vxorps	%xmm2, %xmm2, %xmm2
	vmovaps	%ymm2, 1760(%rsp)               ## 32-byte Spill
	vxorps	%xmm2, %xmm2, %xmm2
	vmovaps	%ymm2, 1728(%rsp)               ## 32-byte Spill
	.p2align	4, 0x90
LBB0_125:                               ## %vector.body822
                                        ##   Parent Loop BB0_87 Depth=1
                                        ## =>  This Inner Loop Header: Depth=2
	vpbroadcastq	LCPI0_60(%rip), %ymm7   ## ymm7 = [8,8,8,8]
	vpbroadcastq	LCPI0_61(%rip), %ymm8   ## ymm8 = [16,16,16,16]
	vbroadcastsd	LCPI0_62(%rip), %ymm2   ## ymm2 = [24,24,24,24]
	vmovaps	%ymm2, 736(%rsp)                ## 32-byte Spill
	vmovdqa	%ymm1, %ymm6
	vxorps	%xmm4, %xmm4, %xmm4
	vpcmpeqq	%ymm4, %ymm1, %ymm9
	vpsllq	$5, %ymm13, %ymm0
	vpsllq	$5, %ymm1, %ymm1
	vmovq	%xmm1, %r8
	vpextrq	$1, %xmm1, %rax
	vextracti128	$1, %ymm1, %xmm1
	vmovq	%xmm0, %rcx
	vpextrq	$1, %xmm0, %rdx
	vmovss	68(%r12,%rcx,4), %xmm2          ## xmm2 = mem[0],zero,zero,zero
	vinsertps	$16, 68(%r12,%rdx,4), %xmm2, %xmm2 ## xmm2 = xmm2[0],mem[0],xmm2[2,3]
	vmovq	%xmm1, %rsi
	vextracti128	$1, %ymm0, %xmm3
	vmovss	68(%r12,%r8,4), %xmm0           ## xmm0 = mem[0],zero,zero,zero
	vpextrq	$1, %xmm1, %rbx
	vinsertps	$16, 68(%r12,%rax,4), %xmm0, %xmm0 ## xmm0 = xmm0[0],mem[0],xmm0[2,3]
	vpextrq	$1, %xmm3, %rdi
	vmovq	%xmm3, %r9
	vmovss	72(%r12,%rcx,4), %xmm1          ## xmm1 = mem[0],zero,zero,zero
	vinsertps	$32, 68(%r12,%r9,4), %xmm2, %xmm2 ## xmm2 = xmm2[0,1],mem[0],xmm2[3]
	vinsertps	$16, 72(%r12,%rdx,4), %xmm1, %xmm1 ## xmm1 = xmm1[0],mem[0],xmm1[2,3]
	vinsertps	$32, 68(%r12,%rsi,4), %xmm0, %xmm3 ## xmm3 = xmm0[0,1],mem[0],xmm0[3]
	vinsertps	$32, 72(%r12,%r9,4), %xmm1, %xmm1 ## xmm1 = xmm1[0,1],mem[0],xmm1[3]
	vinsertps	$48, 68(%r12,%rdi,4), %xmm2, %xmm0 ## xmm0 = xmm2[0,1,2],mem[0]
	vmovaps	%xmm0, 256(%rsp)                ## 16-byte Spill
	vpcmpeqq	%ymm4, %ymm13, %ymm4
	vmovss	72(%r12,%r8,4), %xmm5           ## xmm5 = mem[0],zero,zero,zero
	vinsertps	$48, 68(%r12,%rbx,4), %xmm3, %xmm14 ## xmm14 = xmm3[0,1,2],mem[0]
	vinsertps	$16, 72(%r12,%rax,4), %xmm5, %xmm3 ## xmm3 = xmm5[0],mem[0],xmm5[2,3]
	vinsertps	$48, 72(%r12,%rdi,4), %xmm1, %xmm1 ## xmm1 = xmm1[0,1,2],mem[0]
	vinsertps	$32, 72(%r12,%rsi,4), %xmm3, %xmm3 ## xmm3 = xmm3[0,1],mem[0],xmm3[3]
	vinsertps	$48, 72(%r12,%rbx,4), %xmm3, %xmm3 ## xmm3 = xmm3[0,1,2],mem[0]
	vmovss	80(%r12,%rcx,4), %xmm5          ## xmm5 = mem[0],zero,zero,zero
	vinsertps	$16, 80(%r12,%rdx,4), %xmm5, %xmm5 ## xmm5 = xmm5[0],mem[0],xmm5[2,3]
	vpaddq	%ymm7, %ymm13, %ymm11
	vperm2i128	$49, %ymm4, %ymm9, %ymm10 ## ymm10 = ymm9[2,3],ymm4[2,3]
	movq	%r9, %r10
	vinsertps	$32, 80(%r12,%r9,4), %xmm5, %xmm5 ## xmm5 = xmm5[0,1],mem[0],xmm5[3]
	vmovdqa	%ymm6, %ymm0
	vmovdqa	%ymm6, 2208(%rsp)               ## 32-byte Spill
	vpaddq	%ymm7, %ymm6, %ymm7
	vinserti128	$1, %xmm4, %ymm9, %ymm9
	movq	%rdi, 384(%rsp)                 ## 8-byte Spill
	vinsertps	$48, 80(%r12,%rdi,4), %xmm5, %xmm6 ## xmm6 = xmm5[0,1,2],mem[0]
	vpaddq	%ymm8, %ymm13, %ymm12
	vmovdqa	%ymm13, 2752(%rsp)              ## 32-byte Spill
	vmovss	80(%r12,%r8,4), %xmm5           ## xmm5 = mem[0],zero,zero,zero
	vinsertps	$16, 80(%r12,%rax,4), %xmm5, %xmm4 ## xmm4 = xmm5[0],mem[0],xmm5[2,3]
	vpaddq	%ymm0, %ymm8, %ymm2
	vpackssdw	%ymm10, %ymm9, %ymm5
	vinsertps	$32, 80(%r12,%rsi,4), %xmm4, %xmm4 ## xmm4 = xmm4[0,1],mem[0],xmm4[3]
	vpxor	%xmm0, %xmm0, %xmm0
	vpcmpeqq	%ymm0, %ymm7, %ymm8
	vpcmpeqq	%ymm0, %ymm11, %ymm9
	movq	%rbx, 40(%rsp)                  ## 8-byte Spill
	vinsertps	$48, 80(%r12,%rbx,4), %xmm4, %xmm10 ## xmm10 = xmm4[0,1,2],mem[0]
	vperm2i128	$49, %ymm9, %ymm8, %ymm0 ## ymm0 = ymm8[2,3],ymm9[2,3]
	vmovdqa	%ymm0, 544(%rsp)                ## 32-byte Spill
	vmovss	84(%r12,%rcx,4), %xmm0          ## xmm0 = mem[0],zero,zero,zero
	vinsertps	$16, 84(%r12,%rdx,4), %xmm0, %xmm0 ## xmm0 = xmm0[0],mem[0],xmm0[2,3]
	vinserti128	$1, %xmm9, %ymm8, %ymm15
	vmovdqa	736(%rsp), %ymm8                ## 32-byte Reload
	vpaddq	%ymm8, %ymm13, %ymm4
	vmovdqa	%ymm4, 1152(%rsp)               ## 32-byte Spill
	vinsertps	$32, 84(%r12,%r9,4), %xmm0, %xmm0 ## xmm0 = xmm0[0,1],mem[0],xmm0[3]
	vinsertf128	$1, 256(%rsp), %ymm14, %ymm14 ## 16-byte Folded Reload
	vpxor	%xmm13, %xmm13, %xmm13
	vpcmpeqq	%ymm13, %ymm2, %ymm9
	vinsertps	$48, 84(%r12,%rdi,4), %xmm0, %xmm0 ## xmm0 = xmm0[0,1,2],mem[0]
	vinsertf128	$1, %xmm1, %ymm3, %ymm3
	vmovss	84(%r12,%r8,4), %xmm1           ## xmm1 = mem[0],zero,zero,zero
	movq	%r8, 288(%rsp)                  ## 8-byte Spill
	vinsertps	$16, 84(%r12,%rax,4), %xmm1, %xmm1 ## xmm1 = xmm1[0],mem[0],xmm1[2,3]
	vinsertf128	$1, %xmm6, %ymm10, %ymm4
	vpcmpeqq	%ymm13, %ymm12, %ymm10
	movq	%rsi, 400(%rsp)                 ## 8-byte Spill
	vinsertps	$32, 84(%r12,%rsi,4), %xmm1, %xmm6 ## xmm6 = xmm1[0,1],mem[0],xmm1[3]
	vpsllq	$5, %ymm11, %ymm1
	vinsertps	$48, 84(%r12,%rbx,4), %xmm6, %xmm6 ## xmm6 = xmm6[0,1,2],mem[0]
	vinsertf128	$1, %xmm0, %ymm6, %ymm0
	vperm2i128	$49, %ymm10, %ymm9, %ymm11 ## ymm11 = ymm9[2,3],ymm10[2,3]
	vpsllq	$5, %ymm7, %ymm7
	vpsllq	$5, %ymm12, %ymm6
	vpsllq	$5, %ymm2, %ymm13
	vmovq	%xmm7, %r9
	movq	%r9, 32(%rsp)                   ## 8-byte Spill
	vpextrq	$1, %xmm7, %rdi
	vblendvps	%ymm5, %ymm14, %ymm3, %ymm2
	vmovaps	%ymm2, 1696(%rsp)               ## 32-byte Spill
	vmovss	(%r12,%rcx,4), %xmm3            ## xmm3 = mem[0],zero,zero,zero
	movq	%rcx, 176(%rsp)                 ## 8-byte Spill
	vinsertps	$16, (%r12,%rdx,4), %xmm3, %xmm3 ## xmm3 = xmm3[0],mem[0],xmm3[2,3]
	movq	%rdx, 160(%rsp)                 ## 8-byte Spill
	vextracti128	$1, %ymm7, %xmm7
	vinsertps	$32, (%r12,%r10,4), %xmm3, %xmm2 ## xmm2 = xmm3[0,1],mem[0],xmm3[3]
	vmovaps	%xmm2, 1664(%rsp)               ## 16-byte Spill
	movq	%r10, 320(%rsp)                 ## 8-byte Spill
	vblendvps	%ymm5, %ymm4, %ymm0, %ymm0
	vmovaps	%ymm0, 2368(%rsp)               ## 32-byte Spill
	vmovss	(%r12,%r8,4), %xmm0             ## xmm0 = mem[0],zero,zero,zero
	movq	%rax, 144(%rsp)                 ## 8-byte Spill
	vinsertps	$16, (%r12,%rax,4), %xmm0, %xmm0 ## xmm0 = xmm0[0],mem[0],xmm0[2,3]
	vmovq	%xmm1, %r8
	vextracti128	$1, %ymm1, %xmm5
	vinsertps	$32, (%r12,%rsi,4), %xmm0, %xmm14 ## xmm14 = xmm0[0,1],mem[0],xmm0[3]
	vpackssdw	544(%rsp), %ymm15, %ymm15 ## 32-byte Folded Reload
	vmovss	4(%r12,%rcx,4), %xmm0           ## xmm0 = mem[0],zero,zero,zero
	vinsertps	$16, 4(%r12,%rdx,4), %xmm0, %xmm0 ## xmm0 = xmm0[0],mem[0],xmm0[2,3]
	vmovq	%xmm7, %r13
	vinsertps	$32, 4(%r12,%r10,4), %xmm0, %xmm12 ## xmm12 = xmm0[0,1],mem[0],xmm0[3]
	vpextrq	$1, %xmm7, 80(%rsp)             ## 8-byte Folded Spill
	vextracti128	$1, %ymm13, %xmm4
	vpextrq	$1, %xmm1, %rax
	vextracti128	$1, %ymm6, %xmm1
	vmovq	%xmm5, %rbx
	vpextrq	$1, %xmm5, %rcx
	vmovss	68(%r12,%r8,4), %xmm5           ## xmm5 = mem[0],zero,zero,zero
	vinsertps	$16, 68(%r12,%rax,4), %xmm5, %xmm5 ## xmm5 = xmm5[0],mem[0],xmm5[2,3]
	movq	%rax, %rsi
	movq	%rax, 544(%rsp)                 ## 8-byte Spill
	vpextrq	$1, %xmm13, %r11
	vmovq	%xmm13, %rdx
	movq	%rdx, 48(%rsp)                  ## 8-byte Spill
	vmovss	68(%r12,%r9,4), %xmm7           ## xmm7 = mem[0],zero,zero,zero
	vinsertps	$32, 68(%r12,%rbx,4), %xmm5, %xmm13 ## xmm13 = xmm5[0,1],mem[0],xmm5[3]
	movq	%rbx, %r9
	movq	%rbx, 336(%rsp)                 ## 8-byte Spill
	movq	%rdi, 256(%rsp)                 ## 8-byte Spill
	vinsertps	$16, 68(%r12,%rdi,4), %xmm7, %xmm7 ## xmm7 = xmm7[0],mem[0],xmm7[2,3]
	vpextrq	$1, %xmm6, %rax
	vmovq	%xmm6, %rbx
	vmovss	68(%r12,%rbx,4), %xmm6          ## xmm6 = mem[0],zero,zero,zero
	movq	%rbx, %r14
	movq	%rbx, 224(%rsp)                 ## 8-byte Spill
	vinsertps	$32, 68(%r12,%r13,4), %xmm7, %xmm7 ## xmm7 = xmm7[0,1],mem[0],xmm7[3]
	movq	%r13, 304(%rsp)                 ## 8-byte Spill
	vinsertps	$16, 68(%r12,%rax,4), %xmm6, %xmm6 ## xmm6 = xmm6[0],mem[0],xmm6[2,3]
	movq	%rax, %r10
	movq	%rax, 56(%rsp)                  ## 8-byte Spill
	vpextrq	$1, %xmm1, %rbx
	vmovq	%xmm1, %rax
	vmovss	68(%r12,%rdx,4), %xmm1          ## xmm1 = mem[0],zero,zero,zero
	vinsertps	$32, 68(%r12,%rax,4), %xmm6, %xmm6 ## xmm6 = xmm6[0,1],mem[0],xmm6[3]
	movq	%rax, %r15
	movq	%rax, 72(%rsp)                  ## 8-byte Spill
	vinsertps	$16, 68(%r12,%r11,4), %xmm1, %xmm1 ## xmm1 = xmm1[0],mem[0],xmm1[2,3]
	movq	%r11, %rdx
	movq	%r11, 480(%rsp)                 ## 8-byte Spill
	vpextrq	$1, %xmm4, %r11
	vmovq	%xmm4, %rax
	vmovss	72(%r12,%r8,4), %xmm4           ## xmm4 = mem[0],zero,zero,zero
	movq	%r8, 352(%rsp)                  ## 8-byte Spill
	vinsertps	$32, 68(%r12,%rax,4), %xmm1, %xmm1 ## xmm1 = xmm1[0,1],mem[0],xmm1[3]
	movq	%rax, 64(%rsp)                  ## 8-byte Spill
	vinsertps	$16, 72(%r12,%rsi,4), %xmm4, %xmm4 ## xmm4 = xmm4[0],mem[0],xmm4[2,3]
	vinsertps	$32, 72(%r12,%r9,4), %xmm4, %xmm4 ## xmm4 = xmm4[0,1],mem[0],xmm4[3]
	vinserti128	$1, %xmm10, %ymm9, %ymm9
	movq	32(%rsp), %rsi                  ## 8-byte Reload
	vmovss	72(%r12,%rsi,4), %xmm5          ## xmm5 = mem[0],zero,zero,zero
	vinsertps	$48, 68(%r12,%rcx,4), %xmm13, %xmm10 ## xmm10 = xmm13[0,1,2],mem[0]
	vinsertps	$16, 72(%r12,%rdi,4), %xmm5, %xmm5 ## xmm5 = xmm5[0],mem[0],xmm5[2,3]
	movq	80(%rsp), %rsi                  ## 8-byte Reload
	vinsertps	$48, 68(%r12,%rsi,4), %xmm7, %xmm7 ## xmm7 = xmm7[0,1,2],mem[0]
	vinsertps	$32, 72(%r12,%r13,4), %xmm5, %xmm5 ## xmm5 = xmm5[0,1],mem[0],xmm5[3]
	vinsertps	$48, 68(%r12,%rbx,4), %xmm6, %xmm13 ## xmm13 = xmm6[0,1,2],mem[0]
	vpackssdw	%ymm11, %ymm9, %ymm9
	vmovss	72(%r12,%r14,4), %xmm6          ## xmm6 = mem[0],zero,zero,zero
	vinsertps	$48, 68(%r12,%r11,4), %xmm1, %xmm1 ## xmm1 = xmm1[0,1,2],mem[0]
	vinsertps	$16, 72(%r12,%r10,4), %xmm6, %xmm6 ## xmm6 = xmm6[0],mem[0],xmm6[2,3]
	vinsertps	$48, 72(%r12,%rcx,4), %xmm4, %xmm4 ## xmm4 = xmm4[0,1,2],mem[0]
	movq	%rcx, %r14
	vinsertps	$32, 72(%r12,%r15,4), %xmm6, %xmm6 ## xmm6 = xmm6[0,1],mem[0],xmm6[3]
	vinsertps	$48, 72(%r12,%rsi,4), %xmm5, %xmm5 ## xmm5 = xmm5[0,1,2],mem[0]
	vpaddq	2208(%rsp), %ymm8, %ymm11       ## 32-byte Folded Reload
	vinsertps	$48, 72(%r12,%rbx,4), %xmm6, %xmm6 ## xmm6 = xmm6[0,1,2],mem[0]
	vinsertf128	$1, %xmm10, %ymm7, %ymm7
	movq	48(%rsp), %r10                  ## 8-byte Reload
	vmovss	72(%r12,%r10,4), %xmm2          ## xmm2 = mem[0],zero,zero,zero
	vinsertps	$16, 72(%r12,%rdx,4), %xmm2, %xmm2 ## xmm2 = xmm2[0],mem[0],xmm2[2,3]
	vinsertf128	$1, %xmm13, %ymm1, %ymm1
	vxorps	%xmm0, %xmm0, %xmm0
	vpcmpeqq	%ymm0, %ymm11, %ymm10
	vinsertps	$32, 72(%r12,%rax,4), %xmm2, %xmm2 ## xmm2 = xmm2[0,1],mem[0],xmm2[3]
	vinsertf128	$1, %xmm4, %ymm5, %ymm4
	vmovdqa	1152(%rsp), %ymm3               ## 32-byte Reload
	vpcmpeqq	%ymm0, %ymm3, %ymm5
	vxorps	%xmm13, %xmm13, %xmm13
	vinsertps	$48, 72(%r12,%r11,4), %xmm2, %xmm2 ## xmm2 = xmm2[0,1,2],mem[0]
	movq	%r11, %r13
	vinsertf128	$1, %xmm6, %ymm2, %ymm2
	movq	288(%rsp), %rsi                 ## 8-byte Reload
	vmovss	4(%r12,%rsi,4), %xmm6           ## xmm6 = mem[0],zero,zero,zero
	movq	144(%rsp), %rdx                 ## 8-byte Reload
	vinsertps	$16, 4(%r12,%rdx,4), %xmm6, %xmm6 ## xmm6 = xmm6[0],mem[0],xmm6[2,3]
	vpsllq	$5, %ymm3, %ymm8
	vpsllq	$5, %ymm11, %ymm11
	vblendvps	%ymm15, %ymm7, %ymm4, %ymm0
	vmovaps	%ymm0, 1984(%rsp)               ## 32-byte Spill
	vextracti128	$1, %ymm11, %xmm7
	vmovq	%xmm11, %r9
	movq	%r9, 112(%rsp)                  ## 8-byte Spill
	vpextrq	$1, %xmm11, %r11
	vextracti128	$1, %ymm8, %xmm4
	vmovq	%xmm8, %rcx
	movq	%rcx, 464(%rsp)                 ## 8-byte Spill
	vpextrq	$1, %xmm8, %r15
	movq	%r15, 736(%rsp)                 ## 8-byte Spill
	vmovss	68(%r12,%rcx,4), %xmm3          ## xmm3 = mem[0],zero,zero,zero
	vinsertps	$16, 68(%r12,%r15,4), %xmm3, %xmm3 ## xmm3 = xmm3[0],mem[0],xmm3[2,3]
	vpextrq	$1, %xmm4, %rdx
	vmovq	%xmm4, %rsi
	movq	%rsi, 448(%rsp)                 ## 8-byte Spill
	vmovss	68(%r12,%r9,4), %xmm4           ## xmm4 = mem[0],zero,zero,zero
	vinsertps	$32, 68(%r12,%rsi,4), %xmm3, %xmm3 ## xmm3 = xmm3[0,1],mem[0],xmm3[3]
	vinsertps	$16, 68(%r12,%r11,4), %xmm4, %xmm4 ## xmm4 = xmm4[0],mem[0],xmm4[2,3]
	movq	%r11, 1152(%rsp)                ## 8-byte Spill
	vpextrq	$1, %xmm7, %rax
	vmovq	%xmm7, %rdi
	vmovss	72(%r12,%rcx,4), %xmm7          ## xmm7 = mem[0],zero,zero,zero
	movq	%rdi, 104(%rsp)                 ## 8-byte Spill
	vinsertps	$32, 68(%r12,%rdi,4), %xmm4, %xmm4 ## xmm4 = xmm4[0,1],mem[0],xmm4[3]
	vinsertps	$16, 72(%r12,%r15,4), %xmm7, %xmm7 ## xmm7 = xmm7[0],mem[0],xmm7[2,3]
	movq	%rdx, 120(%rsp)                 ## 8-byte Spill
	vinsertps	$48, 68(%r12,%rdx,4), %xmm3, %xmm3 ## xmm3 = xmm3[0,1,2],mem[0]
	vinsertps	$32, 72(%r12,%rsi,4), %xmm7, %xmm7 ## xmm7 = xmm7[0,1],mem[0],xmm7[3]
	movq	%rax, 128(%rsp)                 ## 8-byte Spill
	vinsertps	$48, 68(%r12,%rax,4), %xmm4, %xmm4 ## xmm4 = xmm4[0,1,2],mem[0]
	vinsertps	$48, 72(%r12,%rdx,4), %xmm7, %xmm7 ## xmm7 = xmm7[0,1,2],mem[0]
	vblendvps	%ymm9, %ymm1, %ymm2, %ymm0
	vmovaps	%ymm0, 1344(%rsp)               ## 32-byte Spill
	vmovss	72(%r12,%r9,4), %xmm1           ## xmm1 = mem[0],zero,zero,zero
	vinsertps	$16, 72(%r12,%r11,4), %xmm1, %xmm1 ## xmm1 = xmm1[0],mem[0],xmm1[2,3]
	vperm2i128	$49, %ymm5, %ymm10, %ymm2 ## ymm2 = ymm10[2,3],ymm5[2,3]
	vinserti128	$1, %xmm5, %ymm10, %ymm5
	vinsertps	$32, 72(%r12,%rdi,4), %xmm1, %xmm1 ## xmm1 = xmm1[0,1],mem[0],xmm1[3]
	vmovss	80(%r12,%r8,4), %xmm0           ## xmm0 = mem[0],zero,zero,zero
	movq	544(%rsp), %r11                 ## 8-byte Reload
	vinsertps	$16, 80(%r12,%r11,4), %xmm0, %xmm0 ## xmm0 = xmm0[0],mem[0],xmm0[2,3]
	vinsertps	$48, 72(%r12,%rax,4), %xmm1, %xmm8 ## xmm8 = xmm1[0,1,2],mem[0]
	vpackssdw	%ymm2, %ymm5, %ymm1
	movq	336(%rsp), %rax                 ## 8-byte Reload
	vinsertps	$32, 80(%r12,%rax,4), %xmm0, %xmm0 ## xmm0 = xmm0[0,1],mem[0],xmm0[3]
	movq	32(%rsp), %rdi                  ## 8-byte Reload
	vmovss	80(%r12,%rdi,4), %xmm2          ## xmm2 = mem[0],zero,zero,zero
	movq	256(%rsp), %rsi                 ## 8-byte Reload
	vinsertps	$16, 80(%r12,%rsi,4), %xmm2, %xmm2 ## xmm2 = xmm2[0],mem[0],xmm2[2,3]
	movq	%r14, %r8
	movq	%r14, 240(%rsp)                 ## 8-byte Spill
	vinsertps	$48, 80(%r12,%r14,4), %xmm0, %xmm0 ## xmm0 = xmm0[0,1,2],mem[0]
	vinsertf128	$1, %xmm3, %ymm4, %ymm3
	movq	304(%rsp), %r9                  ## 8-byte Reload
	vinsertps	$32, 80(%r12,%r9,4), %xmm2, %xmm2 ## xmm2 = xmm2[0,1],mem[0],xmm2[3]
	movq	224(%rsp), %rdx                 ## 8-byte Reload
	vmovss	80(%r12,%rdx,4), %xmm4          ## xmm4 = mem[0],zero,zero,zero
	movq	56(%rsp), %r14                  ## 8-byte Reload
	vinsertps	$16, 80(%r12,%r14,4), %xmm4, %xmm4 ## xmm4 = xmm4[0],mem[0],xmm4[2,3]
	movq	80(%rsp), %r15                  ## 8-byte Reload
	vinsertps	$48, 80(%r12,%r15,4), %xmm2, %xmm2 ## xmm2 = xmm2[0,1,2],mem[0]
	vinsertf128	$1, %xmm7, %ymm8, %ymm5
	movq	72(%rsp), %rax                  ## 8-byte Reload
	vinsertps	$32, 80(%r12,%rax,4), %xmm4, %xmm4 ## xmm4 = xmm4[0,1],mem[0],xmm4[3]
	movq	%r10, %rcx
	vmovss	80(%r12,%r10,4), %xmm7          ## xmm7 = mem[0],zero,zero,zero
	movq	480(%rsp), %rsi                 ## 8-byte Reload
	vinsertps	$16, 80(%r12,%rsi,4), %xmm7, %xmm7 ## xmm7 = xmm7[0],mem[0],xmm7[2,3]
	movq	%rbx, 432(%rsp)                 ## 8-byte Spill
	vinsertps	$48, 80(%r12,%rbx,4), %xmm4, %xmm4 ## xmm4 = xmm4[0,1,2],mem[0]
	movq	64(%rsp), %rax                  ## 8-byte Reload
	vinsertps	$32, 80(%r12,%rax,4), %xmm7, %xmm7 ## xmm7 = xmm7[0,1],mem[0],xmm7[3]
	movq	%r13, %r10
	movq	%r13, 416(%rsp)                 ## 8-byte Spill
	vinsertps	$48, 80(%r12,%r13,4), %xmm7, %xmm7 ## xmm7 = xmm7[0,1,2],mem[0]
	vinsertf128	$1, %xmm0, %ymm2, %ymm0
	vinsertf128	$1, %xmm4, %ymm7, %ymm2
	vblendvps	%ymm1, %ymm3, %ymm5, %ymm3
	vmovaps	%ymm3, 1568(%rsp)               ## 32-byte Spill
	movq	352(%rsp), %r13                 ## 8-byte Reload
	vmovss	84(%r12,%r13,4), %xmm3          ## xmm3 = mem[0],zero,zero,zero
	vmovss	84(%r12,%rdi,4), %xmm4          ## xmm4 = mem[0],zero,zero,zero
	vinsertps	$16, 84(%r12,%r11,4), %xmm3, %xmm3 ## xmm3 = xmm3[0],mem[0],xmm3[2,3]
	movq	256(%rsp), %rdi                 ## 8-byte Reload
	vinsertps	$16, 84(%r12,%rdi,4), %xmm4, %xmm4 ## xmm4 = xmm4[0],mem[0],xmm4[2,3]
	movq	336(%rsp), %rdi                 ## 8-byte Reload
	vinsertps	$32, 84(%r12,%rdi,4), %xmm3, %xmm3 ## xmm3 = xmm3[0,1],mem[0],xmm3[3]
	vinsertps	$32, 84(%r12,%r9,4), %xmm4, %xmm4 ## xmm4 = xmm4[0,1],mem[0],xmm4[3]
	vinsertps	$48, 84(%r12,%r8,4), %xmm3, %xmm3 ## xmm3 = xmm3[0,1,2],mem[0]
	vinsertps	$48, 84(%r12,%r15,4), %xmm4, %xmm4 ## xmm4 = xmm4[0,1,2],mem[0]
	vinsertf128	$1, %xmm3, %ymm4, %ymm3
	vmovss	84(%r12,%rdx,4), %xmm4          ## xmm4 = mem[0],zero,zero,zero
	vinsertps	$16, 84(%r12,%r14,4), %xmm4, %xmm4 ## xmm4 = xmm4[0],mem[0],xmm4[2,3]
	vblendvps	%ymm15, %ymm0, %ymm3, %ymm0
	vmovaps	%ymm0, 2016(%rsp)               ## 32-byte Spill
	movq	464(%rsp), %r11                 ## 8-byte Reload
	vmovss	80(%r12,%r11,4), %xmm0          ## xmm0 = mem[0],zero,zero,zero
	vmovss	84(%r12,%rcx,4), %xmm3          ## xmm3 = mem[0],zero,zero,zero
	movq	72(%rsp), %rcx                  ## 8-byte Reload
	vinsertps	$32, 84(%r12,%rcx,4), %xmm4, %xmm4 ## xmm4 = xmm4[0,1],mem[0],xmm4[3]
	vinsertps	$16, 84(%r12,%rsi,4), %xmm3, %xmm3 ## xmm3 = xmm3[0],mem[0],xmm3[2,3]
	vinsertps	$48, 84(%r12,%rbx,4), %xmm4, %xmm4 ## xmm4 = xmm4[0,1,2],mem[0]
	vinsertps	$32, 84(%r12,%rax,4), %xmm3, %xmm3 ## xmm3 = xmm3[0,1],mem[0],xmm3[3]
	vinsertps	$48, 84(%r12,%r10,4), %xmm3, %xmm3 ## xmm3 = xmm3[0,1,2],mem[0]
	vinsertf128	$1, %xmm4, %ymm3, %ymm3
	movq	112(%rsp), %rdx                 ## 8-byte Reload
	vmovss	80(%r12,%rdx,4), %xmm4          ## xmm4 = mem[0],zero,zero,zero
	movq	736(%rsp), %rax                 ## 8-byte Reload
	vinsertps	$16, 80(%r12,%rax,4), %xmm0, %xmm0 ## xmm0 = xmm0[0],mem[0],xmm0[2,3]
	movq	1152(%rsp), %rdi                ## 8-byte Reload
	vinsertps	$16, 80(%r12,%rdi,4), %xmm4, %xmm4 ## xmm4 = xmm4[0],mem[0],xmm4[2,3]
	movq	448(%rsp), %rsi                 ## 8-byte Reload
	vinsertps	$32, 80(%r12,%rsi,4), %xmm0, %xmm0 ## xmm0 = xmm0[0,1],mem[0],xmm0[3]
	movq	104(%rsp), %rbx                 ## 8-byte Reload
	vinsertps	$32, 80(%r12,%rbx,4), %xmm4, %xmm4 ## xmm4 = xmm4[0,1],mem[0],xmm4[3]
	vblendvps	%ymm9, %ymm2, %ymm3, %ymm2
	vmovaps	%ymm2, 1600(%rsp)               ## 32-byte Spill
	movq	288(%rsp), %r8                  ## 8-byte Reload
	vmovss	8(%r12,%r8,4), %xmm2            ## xmm2 = mem[0],zero,zero,zero
	vmovss	84(%r12,%r11,4), %xmm3          ## xmm3 = mem[0],zero,zero,zero
	movq	120(%rsp), %rcx                 ## 8-byte Reload
	vinsertps	$48, 80(%r12,%rcx,4), %xmm0, %xmm0 ## xmm0 = xmm0[0,1,2],mem[0]
	vinsertps	$16, 84(%r12,%rax,4), %xmm3, %xmm3 ## xmm3 = xmm3[0],mem[0],xmm3[2,3]
	movq	128(%rsp), %rax                 ## 8-byte Reload
	vinsertps	$48, 80(%r12,%rax,4), %xmm4, %xmm4 ## xmm4 = xmm4[0,1,2],mem[0]
	vinsertf128	$1, %xmm0, %ymm4, %ymm0
	vmovss	84(%r12,%rdx,4), %xmm4          ## xmm4 = mem[0],zero,zero,zero
	vinsertps	$32, 84(%r12,%rsi,4), %xmm3, %xmm3 ## xmm3 = xmm3[0,1],mem[0],xmm3[3]
	vinsertps	$16, 84(%r12,%rdi,4), %xmm4, %xmm4 ## xmm4 = xmm4[0],mem[0],xmm4[2,3]
	movq	640(%rsp), %r14                 ## 8-byte Reload
	vinsertps	$48, 84(%r12,%rcx,4), %xmm3, %xmm3 ## xmm3 = xmm3[0,1,2],mem[0]
	vinsertps	$32, 84(%r12,%rbx,4), %xmm4, %xmm4 ## xmm4 = xmm4[0,1],mem[0],xmm4[3]
	vinsertps	$48, 84(%r12,%rax,4), %xmm4, %xmm4 ## xmm4 = xmm4[0,1,2],mem[0]
	vinsertf128	$1, %xmm3, %ymm4, %ymm3
	movq	176(%rsp), %rax                 ## 8-byte Reload
	vmovss	8(%r12,%rax,4), %xmm4           ## xmm4 = mem[0],zero,zero,zero
	movq	400(%rsp), %rdx                 ## 8-byte Reload
	vinsertps	$32, 4(%r12,%rdx,4), %xmm6, %xmm6 ## xmm6 = xmm6[0,1],mem[0],xmm6[3]
	movq	160(%rsp), %rcx                 ## 8-byte Reload
	vinsertps	$16, 8(%r12,%rcx,4), %xmm4, %xmm4 ## xmm4 = xmm4[0],mem[0],xmm4[2,3]
	movq	384(%rsp), %rbx                 ## 8-byte Reload
	vmovaps	1664(%rsp), %xmm5               ## 16-byte Reload
	vinsertps	$48, (%r12,%rbx,4), %xmm5, %xmm7 ## xmm7 = xmm5[0,1,2],mem[0]
	movq	320(%rsp), %r15                 ## 8-byte Reload
	vinsertps	$32, 8(%r12,%r15,4), %xmm4, %xmm4 ## xmm4 = xmm4[0,1],mem[0],xmm4[3]
	movq	40(%rsp), %rdi                  ## 8-byte Reload
	vinsertps	$48, (%r12,%rdi,4), %xmm14, %xmm8 ## xmm8 = xmm14[0,1,2],mem[0]
	movq	144(%rsp), %rsi                 ## 8-byte Reload
	vinsertps	$16, 8(%r12,%rsi,4), %xmm2, %xmm2 ## xmm2 = xmm2[0],mem[0],xmm2[2,3]
	vinsertps	$48, 4(%r12,%rbx,4), %xmm12, %xmm5 ## xmm5 = xmm12[0,1,2],mem[0]
	vinsertps	$32, 8(%r12,%rdx,4), %xmm2, %xmm2 ## xmm2 = xmm2[0,1],mem[0],xmm2[3]
	vblendvps	%ymm1, %ymm0, %ymm3, %ymm0
	vmovaps	%ymm0, 2400(%rsp)               ## 32-byte Spill
	vmovss	12(%r12,%rax,4), %xmm0          ## xmm0 = mem[0],zero,zero,zero
	vinsertps	$48, 4(%r12,%rdi,4), %xmm6, %xmm1 ## xmm1 = xmm6[0,1,2],mem[0]
	vinsertps	$16, 12(%r12,%rcx,4), %xmm0, %xmm0 ## xmm0 = xmm0[0],mem[0],xmm0[2,3]
	vinsertps	$48, 8(%r12,%rbx,4), %xmm4, %xmm4 ## xmm4 = xmm4[0,1,2],mem[0]
	vinsertps	$32, 12(%r12,%r15,4), %xmm0, %xmm3 ## xmm3 = xmm0[0,1],mem[0],xmm0[3]
	vinsertps	$48, 8(%r12,%rdi,4), %xmm2, %xmm2 ## xmm2 = xmm2[0,1,2],mem[0]
	movq	656(%rsp), %rax                 ## 8-byte Reload
	vmovups	(%r14,%rax,4), %ymm10
	movq	%rax, %r13
	vinsertps	$48, 12(%r12,%rbx,4), %xmm3, %xmm6 ## xmm6 = xmm3[0,1,2],mem[0]
	vinsertf128	$1, %xmm7, %ymm8, %ymm7
	vmovss	12(%r12,%r8,4), %xmm3           ## xmm3 = mem[0],zero,zero,zero
	vinsertps	$16, 12(%r12,%rsi,4), %xmm3, %xmm0 ## xmm0 = xmm3[0],mem[0],xmm3[2,3]
	vinsertf128	$1, %xmm5, %ymm1, %ymm1
	movq	1128(%rsp), %r15                ## 8-byte Reload
	vmovups	(%r14,%r15,4), %ymm9
	vinsertps	$32, 12(%r12,%rdx,4), %xmm0, %xmm0 ## xmm0 = xmm0[0,1],mem[0],xmm0[3]
	vmulps	%ymm1, %ymm9, %ymm1
	vinsertps	$48, 12(%r12,%rdi,4), %xmm0, %xmm0 ## xmm0 = xmm0[0,1,2],mem[0]
	movq	1120(%rsp), %r11                ## 8-byte Reload
	vmulps	(%r14,%r11,4), %ymm10, %ymm5
	vmovaps	%ymm10, 1504(%rsp)              ## 32-byte Spill
	vfmadd231ps	%ymm7, %ymm5, %ymm1     ## ymm1 = (ymm5 * ymm7) + ymm1
	movq	352(%rsp), %rcx                 ## 8-byte Reload
	vmovss	(%r12,%rcx,4), %xmm7            ## xmm7 = mem[0],zero,zero,zero
	movq	544(%rsp), %rsi                 ## 8-byte Reload
	vinsertps	$16, (%r12,%rsi,4), %xmm7, %xmm7 ## xmm7 = xmm7[0],mem[0],xmm7[2,3]
	vinsertf128	$1, %xmm4, %ymm2, %ymm2
	movq	32(%rsp), %rdi                  ## 8-byte Reload
	vmovss	(%r12,%rdi,4), %xmm4            ## xmm4 = mem[0],zero,zero,zero
	movq	256(%rsp), %r10                 ## 8-byte Reload
	vinsertps	$16, (%r12,%r10,4), %xmm4, %xmm4 ## xmm4 = xmm4[0],mem[0],xmm4[2,3]
	vinsertf128	$1, %xmm6, %ymm0, %ymm0
	vmulps	%ymm0, %ymm9, %ymm0
	vmovaps	%ymm9, 1536(%rsp)               ## 32-byte Spill
	movq	528(%rsp), %rax                 ## 8-byte Reload
	vcmpeqps	(%r14,%rax,4), %ymm13, %ymm6
	vfmadd231ps	%ymm2, %ymm5, %ymm0     ## ymm0 = (ymm5 * ymm2) + ymm0
	vmovss	4(%r12,%rcx,4), %xmm2           ## xmm2 = mem[0],zero,zero,zero
	movq	336(%rsp), %rdx                 ## 8-byte Reload
	vinsertps	$32, (%r12,%rdx,4), %xmm7, %xmm5 ## xmm5 = xmm7[0,1],mem[0],xmm7[3]
	vinsertps	$16, 4(%r12,%rsi,4), %xmm2, %xmm2 ## xmm2 = xmm2[0],mem[0],xmm2[2,3]
	vblendvps	%ymm6, %ymm1, %ymm0, %ymm0
	vmovaps	%ymm0, 2656(%rsp)               ## 32-byte Spill
	vmovss	4(%r12,%rdi,4), %xmm0           ## xmm0 = mem[0],zero,zero,zero
	vinsertps	$32, (%r12,%r9,4), %xmm4, %xmm1 ## xmm1 = xmm4[0,1],mem[0],xmm4[3]
	vinsertps	$16, 4(%r12,%r10,4), %xmm0, %xmm0 ## xmm0 = xmm0[0],mem[0],xmm0[2,3]
	vinsertps	$32, 4(%r12,%rdx,4), %xmm2, %xmm2 ## xmm2 = xmm2[0,1],mem[0],xmm2[3]
	vinsertps	$32, 4(%r12,%r9,4), %xmm0, %xmm0 ## xmm0 = xmm0[0,1],mem[0],xmm0[3]
	movq	240(%rsp), %rbx                 ## 8-byte Reload
	vinsertps	$48, (%r12,%rbx,4), %xmm5, %xmm4 ## xmm4 = xmm5[0,1,2],mem[0]
	vmovss	8(%r12,%rcx,4), %xmm5           ## xmm5 = mem[0],zero,zero,zero
	movq	80(%rsp), %rax                  ## 8-byte Reload
	vinsertps	$48, (%r12,%rax,4), %xmm1, %xmm1 ## xmm1 = xmm1[0,1,2],mem[0]
	vinsertps	$16, 8(%r12,%rsi,4), %xmm5, %xmm5 ## xmm5 = xmm5[0],mem[0],xmm5[2,3]
	vinsertps	$48, 4(%r12,%rbx,4), %xmm2, %xmm2 ## xmm2 = xmm2[0,1,2],mem[0]
	vinsertps	$32, 8(%r12,%rdx,4), %xmm5, %xmm5 ## xmm5 = xmm5[0,1],mem[0],xmm5[3]
	vmovss	8(%r12,%rdi,4), %xmm6           ## xmm6 = mem[0],zero,zero,zero
	vinsertps	$16, 8(%r12,%r10,4), %xmm6, %xmm6 ## xmm6 = xmm6[0],mem[0],xmm6[2,3]
	vinsertps	$48, 4(%r12,%rax,4), %xmm0, %xmm0 ## xmm0 = xmm0[0,1,2],mem[0]
	vinsertps	$32, 8(%r12,%r9,4), %xmm6, %xmm6 ## xmm6 = xmm6[0,1],mem[0],xmm6[3]
	vinsertps	$48, 8(%r12,%rbx,4), %xmm5, %xmm5 ## xmm5 = xmm5[0,1,2],mem[0]
	vinsertf128	$1, %xmm4, %ymm1, %ymm1
	vinsertps	$48, 8(%r12,%rax,4), %xmm6, %xmm4 ## xmm4 = xmm6[0,1,2],mem[0]
	vinsertf128	$1, %xmm2, %ymm0, %ymm0
	vmovss	12(%r12,%rcx,4), %xmm2          ## xmm2 = mem[0],zero,zero,zero
	vinsertps	$16, 12(%r12,%rsi,4), %xmm2, %xmm2 ## xmm2 = xmm2[0],mem[0],xmm2[2,3]
	vmovups	32(%r14,%r15,4), %ymm6
	vmovaps	%ymm6, 2176(%rsp)               ## 32-byte Spill
	vmulps	%ymm0, %ymm6, %ymm11
	vmovups	32(%r14,%r13,4), %ymm0
	vmovaps	%ymm0, 2048(%rsp)               ## 32-byte Spill
	vmulps	32(%r14,%r11,4), %ymm0, %ymm0
	vfmadd231ps	%ymm1, %ymm0, %ymm11    ## ymm11 = (ymm0 * ymm1) + ymm11
	vinsertps	$32, 12(%r12,%rdx,4), %xmm2, %xmm1 ## xmm1 = xmm2[0,1],mem[0],xmm2[3]
	vmovss	12(%r12,%rdi,4), %xmm2          ## xmm2 = mem[0],zero,zero,zero
	vinsertps	$16, 12(%r12,%r10,4), %xmm2, %xmm2 ## xmm2 = xmm2[0],mem[0],xmm2[2,3]
	vinsertps	$48, 12(%r12,%rbx,4), %xmm1, %xmm1 ## xmm1 = xmm1[0,1,2],mem[0]
	vinsertps	$32, 12(%r12,%r9,4), %xmm2, %xmm2 ## xmm2 = xmm2[0,1],mem[0],xmm2[3]
	vinsertps	$48, 12(%r12,%rax,4), %xmm2, %xmm2 ## xmm2 = xmm2[0,1,2],mem[0]
	vinsertf128	$1, %xmm5, %ymm4, %ymm4
	vinsertf128	$1, %xmm1, %ymm2, %ymm1
	vmulps	%ymm1, %ymm6, %ymm7
	vfmadd231ps	%ymm4, %ymm0, %ymm7     ## ymm7 = (ymm0 * ymm4) + ymm7
	movq	224(%rsp), %rdx                 ## 8-byte Reload
	vmovss	(%r12,%rdx,4), %xmm0            ## xmm0 = mem[0],zero,zero,zero
	movq	56(%rsp), %rcx                  ## 8-byte Reload
	vinsertps	$16, (%r12,%rcx,4), %xmm0, %xmm0 ## xmm0 = xmm0[0],mem[0],xmm0[2,3]
	movq	48(%rsp), %rax                  ## 8-byte Reload
	vmovss	(%r12,%rax,4), %xmm1            ## xmm1 = mem[0],zero,zero,zero
	movq	480(%rsp), %r8                  ## 8-byte Reload
	vinsertps	$16, (%r12,%r8,4), %xmm1, %xmm1 ## xmm1 = xmm1[0],mem[0],xmm1[2,3]
	movq	72(%rsp), %rbx                  ## 8-byte Reload
	vinsertps	$32, (%r12,%rbx,4), %xmm0, %xmm0 ## xmm0 = xmm0[0,1],mem[0],xmm0[3]
	movq	64(%rsp), %r9                   ## 8-byte Reload
	vinsertps	$32, (%r12,%r9,4), %xmm1, %xmm1 ## xmm1 = xmm1[0,1],mem[0],xmm1[3]
	movq	432(%rsp), %rsi                 ## 8-byte Reload
	vinsertps	$48, (%r12,%rsi,4), %xmm0, %xmm0 ## xmm0 = xmm0[0,1,2],mem[0]
	movq	464(%rsp), %rdi                 ## 8-byte Reload
	vmovss	(%r12,%rdi,4), %xmm2            ## xmm2 = mem[0],zero,zero,zero
	movq	736(%rsp), %r13                 ## 8-byte Reload
	vinsertps	$16, (%r12,%r13,4), %xmm2, %xmm2 ## xmm2 = xmm2[0],mem[0],xmm2[2,3]
	vmovss	4(%r12,%rdx,4), %xmm4           ## xmm4 = mem[0],zero,zero,zero
	vinsertps	$16, 4(%r12,%rcx,4), %xmm4, %xmm4 ## xmm4 = xmm4[0],mem[0],xmm4[2,3]
	movq	416(%rsp), %r10                 ## 8-byte Reload
	vinsertps	$48, (%r12,%r10,4), %xmm1, %xmm1 ## xmm1 = xmm1[0,1,2],mem[0]
	vinsertf128	$1, %xmm0, %ymm1, %ymm0
	vinsertps	$32, 4(%r12,%rbx,4), %xmm4, %xmm1 ## xmm1 = xmm4[0,1],mem[0],xmm4[3]
	vmovss	4(%r12,%rax,4), %xmm4           ## xmm4 = mem[0],zero,zero,zero
	vinsertps	$16, 4(%r12,%r8,4), %xmm4, %xmm4 ## xmm4 = xmm4[0],mem[0],xmm4[2,3]
	vinsertps	$48, 4(%r12,%rsi,4), %xmm1, %xmm1 ## xmm1 = xmm1[0,1,2],mem[0]
	vinsertps	$32, 4(%r12,%r9,4), %xmm4, %xmm4 ## xmm4 = xmm4[0,1],mem[0],xmm4[3]
	vinsertps	$48, 4(%r12,%r10,4), %xmm4, %xmm4 ## xmm4 = xmm4[0,1,2],mem[0]
	vinsertf128	$1, %xmm1, %ymm4, %ymm1
	vmovss	8(%r12,%rdx,4), %xmm4           ## xmm4 = mem[0],zero,zero,zero
	vinsertps	$16, 8(%r12,%rcx,4), %xmm4, %xmm4 ## xmm4 = xmm4[0],mem[0],xmm4[2,3]
	vinsertps	$32, 8(%r12,%rbx,4), %xmm4, %xmm4 ## xmm4 = xmm4[0,1],mem[0],xmm4[3]
	vinsertps	$48, 8(%r12,%rsi,4), %xmm4, %xmm4 ## xmm4 = xmm4[0,1,2],mem[0]
	vmovss	8(%r12,%rax,4), %xmm5           ## xmm5 = mem[0],zero,zero,zero
	vinsertps	$16, 8(%r12,%r8,4), %xmm5, %xmm5 ## xmm5 = xmm5[0],mem[0],xmm5[2,3]
	vmovups	64(%r14,%r15,4), %ymm3
	vmulps	%ymm1, %ymm3, %ymm1
	vmovaps	%ymm3, %ymm6
	vmovaps	%ymm3, 1632(%rsp)               ## 32-byte Spill
	movq	656(%rsp), %rdi                 ## 8-byte Reload
	vmovups	64(%r14,%rdi,4), %ymm3
	vmovaps	%ymm3, 2080(%rsp)               ## 32-byte Spill
	vmulps	64(%r14,%r11,4), %ymm3, %ymm8
	vfmadd231ps	%ymm0, %ymm8, %ymm1     ## ymm1 = (ymm8 * ymm0) + ymm1
	vinsertps	$32, 8(%r12,%r9,4), %xmm5, %xmm0 ## xmm0 = xmm5[0,1],mem[0],xmm5[3]
	vmovss	12(%r12,%rdx,4), %xmm5          ## xmm5 = mem[0],zero,zero,zero
	vinsertps	$16, 12(%r12,%rcx,4), %xmm5, %xmm5 ## xmm5 = xmm5[0],mem[0],xmm5[2,3]
	vinsertps	$48, 8(%r12,%r10,4), %xmm0, %xmm0 ## xmm0 = xmm0[0,1,2],mem[0]
	vinsertf128	$1, %xmm4, %ymm0, %ymm0
	vinsertps	$32, 12(%r12,%rbx,4), %xmm5, %xmm4 ## xmm4 = xmm5[0,1],mem[0],xmm5[3]
	vmovss	12(%r12,%rax,4), %xmm5          ## xmm5 = mem[0],zero,zero,zero
	vinsertps	$16, 12(%r12,%r8,4), %xmm5, %xmm5 ## xmm5 = xmm5[0],mem[0],xmm5[2,3]
	vinsertps	$48, 12(%r12,%rsi,4), %xmm4, %xmm4 ## xmm4 = xmm4[0,1,2],mem[0]
	vinsertps	$32, 12(%r12,%r9,4), %xmm5, %xmm5 ## xmm5 = xmm5[0,1],mem[0],xmm5[3]
	vinsertps	$48, 12(%r12,%r10,4), %xmm5, %xmm5 ## xmm5 = xmm5[0,1,2],mem[0]
	vinsertf128	$1, %xmm4, %ymm5, %ymm4
	movq	448(%rsp), %r8                  ## 8-byte Reload
	vinsertps	$32, (%r12,%r8,4), %xmm2, %xmm2 ## xmm2 = xmm2[0,1],mem[0],xmm2[3]
	movq	112(%rsp), %r10                 ## 8-byte Reload
	vmovss	(%r12,%r10,4), %xmm5            ## xmm5 = mem[0],zero,zero,zero
	movq	1152(%rsp), %r9                 ## 8-byte Reload
	vinsertps	$16, (%r12,%r9,4), %xmm5, %xmm5 ## xmm5 = xmm5[0],mem[0],xmm5[2,3]
	movq	120(%rsp), %rax                 ## 8-byte Reload
	vinsertps	$48, (%r12,%rax,4), %xmm2, %xmm2 ## xmm2 = xmm2[0,1,2],mem[0]
	movq	104(%rsp), %rcx                 ## 8-byte Reload
	vinsertps	$32, (%r12,%rcx,4), %xmm5, %xmm5 ## xmm5 = xmm5[0,1],mem[0],xmm5[3]
	movq	128(%rsp), %rsi                 ## 8-byte Reload
	vinsertps	$48, (%r12,%rsi,4), %xmm5, %xmm5 ## xmm5 = xmm5[0,1,2],mem[0]
	movq	464(%rsp), %rdi                 ## 8-byte Reload
	vmovss	4(%r12,%rdi,4), %xmm3           ## xmm3 = mem[0],zero,zero,zero
	vinsertps	$16, 4(%r12,%r13,4), %xmm3, %xmm3 ## xmm3 = xmm3[0],mem[0],xmm3[2,3]
	vmulps	%ymm4, %ymm6, %ymm4
	vfmadd231ps	%ymm0, %ymm8, %ymm4     ## ymm4 = (ymm8 * ymm0) + ymm4
	vinsertps	$32, 4(%r12,%r8,4), %xmm3, %xmm0 ## xmm0 = xmm3[0,1],mem[0],xmm3[3]
	vmovss	4(%r12,%r10,4), %xmm3           ## xmm3 = mem[0],zero,zero,zero
	vinsertps	$16, 4(%r12,%r9,4), %xmm3, %xmm3 ## xmm3 = xmm3[0],mem[0],xmm3[2,3]
	vinsertps	$48, 4(%r12,%rax,4), %xmm0, %xmm0 ## xmm0 = xmm0[0,1,2],mem[0]
	vinsertf128	$1, %xmm2, %ymm5, %ymm2
	vinsertps	$32, 4(%r12,%rcx,4), %xmm3, %xmm3 ## xmm3 = xmm3[0,1],mem[0],xmm3[3]
	vmovss	8(%r12,%rdi,4), %xmm5           ## xmm5 = mem[0],zero,zero,zero
	vinsertps	$16, 8(%r12,%r13,4), %xmm5, %xmm5 ## xmm5 = xmm5[0],mem[0],xmm5[2,3]
	vinsertps	$48, 4(%r12,%rsi,4), %xmm3, %xmm3 ## xmm3 = xmm3[0,1,2],mem[0]
	vinsertf128	$1, %xmm0, %ymm3, %ymm0
	vinsertps	$32, 8(%r12,%r8,4), %xmm5, %xmm3 ## xmm3 = xmm5[0,1],mem[0],xmm5[3]
	vmovss	8(%r12,%r10,4), %xmm5           ## xmm5 = mem[0],zero,zero,zero
	vinsertps	$16, 8(%r12,%r9,4), %xmm5, %xmm5 ## xmm5 = xmm5[0],mem[0],xmm5[2,3]
	vinsertps	$48, 8(%r12,%rax,4), %xmm3, %xmm3 ## xmm3 = xmm3[0,1,2],mem[0]
	vinsertps	$32, 8(%r12,%rcx,4), %xmm5, %xmm5 ## xmm5 = xmm5[0,1],mem[0],xmm5[3]
	vinsertps	$48, 8(%r12,%rsi,4), %xmm5, %xmm5 ## xmm5 = xmm5[0,1,2],mem[0]
	vmovss	12(%r12,%rdi,4), %xmm6          ## xmm6 = mem[0],zero,zero,zero
	vinsertps	$16, 12(%r12,%r13,4), %xmm6, %xmm6 ## xmm6 = xmm6[0],mem[0],xmm6[2,3]
	vmovups	96(%r14,%r15,4), %ymm14
	vmovaps	%ymm14, 1664(%rsp)              ## 32-byte Spill
	vmulps	%ymm0, %ymm14, %ymm0
	movq	656(%rsp), %rdx                 ## 8-byte Reload
	vmovups	96(%r14,%rdx,4), %ymm8
	vmovaps	%ymm8, 2112(%rsp)               ## 32-byte Spill
	vmulps	96(%r14,%r11,4), %ymm8, %ymm8
	vfmadd231ps	%ymm2, %ymm8, %ymm0     ## ymm0 = (ymm8 * ymm2) + ymm0
	vinsertps	$32, 12(%r12,%r8,4), %xmm6, %xmm2 ## xmm2 = xmm6[0,1],mem[0],xmm6[3]
	vmovss	12(%r12,%r10,4), %xmm6          ## xmm6 = mem[0],zero,zero,zero
	vinsertps	$16, 12(%r12,%r9,4), %xmm6, %xmm6 ## xmm6 = xmm6[0],mem[0],xmm6[2,3]
	vinsertps	$48, 12(%r12,%rax,4), %xmm2, %xmm2 ## xmm2 = xmm2[0,1,2],mem[0]
	vinsertps	$32, 12(%r12,%rcx,4), %xmm6, %xmm6 ## xmm6 = xmm6[0,1],mem[0],xmm6[3]
	vinsertps	$48, 12(%r12,%rsi,4), %xmm6, %xmm6 ## xmm6 = xmm6[0,1,2],mem[0]
	vinsertf128	$1, %xmm3, %ymm5, %ymm3
	vinsertf128	$1, %xmm2, %ymm6, %ymm2
	vmulps	%ymm2, %ymm14, %ymm2
	vfmadd231ps	%ymm3, %ymm8, %ymm2     ## ymm2 = (ymm8 * ymm3) + ymm2
	vxorps	%xmm5, %xmm5, %xmm5
	movq	528(%rsp), %rax                 ## 8-byte Reload
	vcmpeqps	32(%r14,%rax,4), %ymm5, %ymm3
	vblendvps	%ymm3, %ymm11, %ymm7, %ymm3
	vmovaps	%ymm3, 2528(%rsp)               ## 32-byte Spill
	vcmpeqps	64(%r14,%rax,4), %ymm5, %ymm3
	vxorps	%xmm5, %xmm5, %xmm5
	vblendvps	%ymm3, %ymm1, %ymm4, %ymm1
	vmovaps	%ymm1, 2624(%rsp)               ## 32-byte Spill
	vcmpeqps	96(%r14,%rax,4), %ymm5, %ymm1
	vblendvps	%ymm1, %ymm0, %ymm2, %ymm0
	vmovaps	%ymm0, 2560(%rsp)               ## 32-byte Spill
	movq	176(%rsp), %rax                 ## 8-byte Reload
	vmovss	64(%r12,%rax,4), %xmm0          ## xmm0 = mem[0],zero,zero,zero
	movq	160(%rsp), %rax                 ## 8-byte Reload
	vinsertps	$16, 64(%r12,%rax,4), %xmm0, %xmm0 ## xmm0 = xmm0[0],mem[0],xmm0[2,3]
	movq	288(%rsp), %rax                 ## 8-byte Reload
	vmovss	64(%r12,%rax,4), %xmm1          ## xmm1 = mem[0],zero,zero,zero
	movq	144(%rsp), %r10                 ## 8-byte Reload
	vinsertps	$16, 64(%r12,%r10,4), %xmm1, %xmm1 ## xmm1 = xmm1[0],mem[0],xmm1[2,3]
	movq	320(%rsp), %rbx                 ## 8-byte Reload
	vinsertps	$32, 64(%r12,%rbx,4), %xmm0, %xmm0 ## xmm0 = xmm0[0,1],mem[0],xmm0[3]
	movq	400(%rsp), %r15                 ## 8-byte Reload
	vinsertps	$32, 64(%r12,%r15,4), %xmm1, %xmm1 ## xmm1 = xmm1[0,1],mem[0],xmm1[3]
	movq	384(%rsp), %rcx                 ## 8-byte Reload
	vinsertps	$48, 64(%r12,%rcx,4), %xmm0, %xmm0 ## xmm0 = xmm0[0,1,2],mem[0]
	movq	40(%rsp), %rcx                  ## 8-byte Reload
	vinsertps	$48, 64(%r12,%rcx,4), %xmm1, %xmm1 ## xmm1 = xmm1[0,1,2],mem[0]
	vinsertf128	$1, %xmm0, %ymm1, %ymm0
	movq	768(%rsp), %rcx                 ## 8-byte Reload
	vmovups	(%r14,%rcx,4), %ymm1
	vmovaps	2432(%rsp), %ymm13              ## 32-byte Reload
	vcmpltps	%ymm1, %ymm13, %ymm2
	vmovaps	%ymm1, %ymm11
	vmovaps	1696(%rsp), %ymm1               ## 32-byte Reload
	vblendvps	%ymm2, %ymm0, %ymm1, %ymm0
	vmovaps	%ymm2, %ymm6
	movq	352(%rsp), %rdi                 ## 8-byte Reload
	vmovss	64(%r12,%rdi,4), %xmm1          ## xmm1 = mem[0],zero,zero,zero
	movq	544(%rsp), %rsi                 ## 8-byte Reload
	vinsertps	$16, 64(%r12,%rsi,4), %xmm1, %xmm1 ## xmm1 = xmm1[0],mem[0],xmm1[2,3]
	movq	32(%rsp), %rdx                  ## 8-byte Reload
	vmovss	64(%r12,%rdx,4), %xmm2          ## xmm2 = mem[0],zero,zero,zero
	movq	256(%rsp), %r13                 ## 8-byte Reload
	vinsertps	$16, 64(%r12,%r13,4), %xmm2, %xmm2 ## xmm2 = xmm2[0],mem[0],xmm2[2,3]
	movq	336(%rsp), %rdx                 ## 8-byte Reload
	vinsertps	$32, 64(%r12,%rdx,4), %xmm1, %xmm1 ## xmm1 = xmm1[0,1],mem[0],xmm1[3]
	movq	304(%rsp), %r9                  ## 8-byte Reload
	vinsertps	$32, 64(%r12,%r9,4), %xmm2, %xmm2 ## xmm2 = xmm2[0,1],mem[0],xmm2[3]
	movq	240(%rsp), %r11                 ## 8-byte Reload
	vinsertps	$48, 64(%r12,%r11,4), %xmm1, %xmm1 ## xmm1 = xmm1[0,1,2],mem[0]
	movq	80(%rsp), %r8                   ## 8-byte Reload
	vinsertps	$48, 64(%r12,%r8,4), %xmm2, %xmm2 ## xmm2 = xmm2[0,1,2],mem[0]
	vinsertf128	$1, %xmm1, %ymm2, %ymm1
	vmovups	32(%r14,%rcx,4), %ymm8
	vcmpltps	%ymm8, %ymm13, %ymm2
	vmovaps	1984(%rsp), %ymm3               ## 32-byte Reload
	vblendvps	%ymm2, %ymm1, %ymm3, %ymm1
	vmovaps	%ymm2, %ymm5
	vmovaps	%ymm2, 2144(%rsp)               ## 32-byte Spill
	movq	176(%rsp), %rcx                 ## 8-byte Reload
	vmovss	76(%r12,%rcx,4), %xmm2          ## xmm2 = mem[0],zero,zero,zero
	movq	160(%rsp), %rcx                 ## 8-byte Reload
	vinsertps	$16, 76(%r12,%rcx,4), %xmm2, %xmm2 ## xmm2 = xmm2[0],mem[0],xmm2[2,3]
	vmovss	76(%r12,%rax,4), %xmm3          ## xmm3 = mem[0],zero,zero,zero
	vinsertps	$16, 76(%r12,%r10,4), %xmm3, %xmm3 ## xmm3 = xmm3[0],mem[0],xmm3[2,3]
	vinsertps	$32, 76(%r12,%rbx,4), %xmm2, %xmm2 ## xmm2 = xmm2[0,1],mem[0],xmm2[3]
	movq	%rbx, %r10
	vinsertps	$32, 76(%r12,%r15,4), %xmm3, %xmm3 ## xmm3 = xmm3[0,1],mem[0],xmm3[3]
	movq	384(%rsp), %rbx                 ## 8-byte Reload
	vinsertps	$48, 76(%r12,%rbx,4), %xmm2, %xmm2 ## xmm2 = xmm2[0,1,2],mem[0]
	movq	40(%rsp), %rax                  ## 8-byte Reload
	vinsertps	$48, 76(%r12,%rax,4), %xmm3, %xmm3 ## xmm3 = xmm3[0,1,2],mem[0]
	movq	688(%rsp), %rax                 ## 8-byte Reload
	vmulps	(%r14,%rax,4), %ymm11, %ymm4
	vmulps	%ymm0, %ymm4, %ymm0
	vmovss	76(%r12,%rdi,4), %xmm4          ## xmm4 = mem[0],zero,zero,zero
	vinsertps	$16, 76(%r12,%rsi,4), %xmm4, %xmm4 ## xmm4 = xmm4[0],mem[0],xmm4[2,3]
	vinsertf128	$1, %xmm2, %ymm3, %ymm2
	vinsertps	$32, 76(%r12,%rdx,4), %xmm4, %xmm3 ## xmm3 = xmm4[0,1],mem[0],xmm4[3]
	movq	%rdx, %rsi
	movq	32(%rsp), %rdx                  ## 8-byte Reload
	vmovss	76(%r12,%rdx,4), %xmm4          ## xmm4 = mem[0],zero,zero,zero
	vinsertps	$16, 76(%r12,%r13,4), %xmm4, %xmm4 ## xmm4 = xmm4[0],mem[0],xmm4[2,3]
	vinsertps	$48, 76(%r12,%r11,4), %xmm3, %xmm3 ## xmm3 = xmm3[0,1,2],mem[0]
	vinsertps	$32, 76(%r12,%r9,4), %xmm4, %xmm4 ## xmm4 = xmm4[0,1],mem[0],xmm4[3]
	vinsertps	$48, 76(%r12,%r8,4), %xmm4, %xmm4 ## xmm4 = xmm4[0,1,2],mem[0]
	vinsertf128	$1, %xmm3, %ymm4, %ymm3
	vmovaps	2368(%rsp), %ymm4               ## 32-byte Reload
	vblendvps	%ymm6, %ymm2, %ymm4, %ymm15
	vmovaps	%ymm6, %ymm12
	vmovaps	%ymm6, 2688(%rsp)               ## 32-byte Spill
	movq	200(%rsp), %rcx                 ## 8-byte Reload
	vmovups	(%r14,%rcx,4), %ymm2
	vmaxps	%ymm13, %ymm2, %ymm2
	vdivps	%ymm2, %ymm0, %ymm0
	vmovaps	2016(%rsp), %ymm4               ## 32-byte Reload
	vblendvps	%ymm5, %ymm3, %ymm4, %ymm14
	vmulps	32(%r14,%rax,4), %ymm8, %ymm3
	vmulps	%ymm1, %ymm3, %ymm3
	movq	672(%rsp), %rax                 ## 8-byte Reload
	vfmadd132ps	(%r14,%rax,4), %ymm0, %ymm15 ## ymm15 = (ymm15 * mem) + ymm0
	vmovups	32(%r14,%rcx,4), %ymm0
	vmaxps	%ymm13, %ymm0, %ymm1
	vdivps	%ymm1, %ymm3, %ymm0
	vfmadd132ps	32(%r14,%rax,4), %ymm0, %ymm14 ## ymm14 = (ymm14 * mem) + ymm0
	movq	176(%rsp), %rax                 ## 8-byte Reload
	vmovss	92(%r12,%rax,4), %xmm0          ## xmm0 = mem[0],zero,zero,zero
	movq	160(%rsp), %rcx                 ## 8-byte Reload
	vinsertps	$16, 92(%r12,%rcx,4), %xmm0, %xmm0 ## xmm0 = xmm0[0],mem[0],xmm0[2,3]
	vinsertps	$32, 92(%r12,%r10,4), %xmm0, %xmm0 ## xmm0 = xmm0[0,1],mem[0],xmm0[3]
	movq	288(%rsp), %r13                 ## 8-byte Reload
	vmovss	92(%r12,%r13,4), %xmm3          ## xmm3 = mem[0],zero,zero,zero
	movq	144(%rsp), %r15                 ## 8-byte Reload
	vinsertps	$16, 92(%r12,%r15,4), %xmm3, %xmm3 ## xmm3 = xmm3[0],mem[0],xmm3[2,3]
	vmovss	88(%r12,%rax,4), %xmm4          ## xmm4 = mem[0],zero,zero,zero
	vinsertps	$16, 88(%r12,%rcx,4), %xmm4, %xmm4 ## xmm4 = xmm4[0],mem[0],xmm4[2,3]
	vinsertps	$48, 92(%r12,%rbx,4), %xmm0, %xmm0 ## xmm0 = xmm0[0,1,2],mem[0]
	vinsertps	$32, 88(%r12,%r10,4), %xmm4, %xmm4 ## xmm4 = xmm4[0,1],mem[0],xmm4[3]
	vmovss	88(%r12,%r13,4), %xmm5          ## xmm5 = mem[0],zero,zero,zero
	vinsertps	$16, 88(%r12,%r15,4), %xmm5, %xmm5 ## xmm5 = xmm5[0],mem[0],xmm5[2,3]
	vinsertps	$48, 88(%r12,%rbx,4), %xmm4, %xmm4 ## xmm4 = xmm4[0,1,2],mem[0]
	movq	400(%rsp), %rcx                 ## 8-byte Reload
	vinsertps	$32, 88(%r12,%rcx,4), %xmm5, %xmm5 ## xmm5 = xmm5[0,1],mem[0],xmm5[3]
	movq	40(%rsp), %rax                  ## 8-byte Reload
	vinsertps	$48, 88(%r12,%rax,4), %xmm5, %xmm5 ## xmm5 = xmm5[0,1,2],mem[0]
	vinsertf128	$1, %xmm4, %ymm5, %ymm4
	vinsertps	$32, 92(%r12,%rcx,4), %xmm3, %xmm3 ## xmm3 = xmm3[0,1],mem[0],xmm3[3]
	vaddps	%ymm9, %ymm10, %ymm5
	vmulps	%ymm4, %ymm5, %ymm4
	vinsertps	$48, 92(%r12,%rax,4), %xmm3, %xmm3 ## xmm3 = xmm3[0,1,2],mem[0]
	vmovss	92(%r12,%rdi,4), %xmm5          ## xmm5 = mem[0],zero,zero,zero
	movq	544(%rsp), %rax                 ## 8-byte Reload
	vinsertps	$16, 92(%r12,%rax,4), %xmm5, %xmm5 ## xmm5 = xmm5[0],mem[0],xmm5[2,3]
	movq	%rsi, %r10
	vinsertps	$32, 92(%r12,%rsi,4), %xmm5, %xmm5 ## xmm5 = xmm5[0,1],mem[0],xmm5[3]
	vdivps	%ymm2, %ymm4, %ymm6
	vbroadcastss	LCPI0_63(%rip), %ymm4   ## ymm4 = [4.096E+3,4.096E+3,4.096E+3,4.096E+3,4.096E+3,4.096E+3,4.096E+3,4.096E+3]
	vdivps	%ymm2, %ymm4, %ymm7
	vmovaps	%ymm4, %ymm9
	vmovss	92(%r12,%rdx,4), %xmm2          ## xmm2 = mem[0],zero,zero,zero
	movq	256(%rsp), %rsi                 ## 8-byte Reload
	vinsertps	$16, 92(%r12,%rsi,4), %xmm2, %xmm4 ## xmm4 = xmm2[0],mem[0],xmm2[2,3]
	vinsertps	$48, 92(%r12,%r11,4), %xmm5, %xmm2 ## xmm2 = xmm5[0,1,2],mem[0]
	vinsertps	$32, 92(%r12,%r9,4), %xmm4, %xmm4 ## xmm4 = xmm4[0,1],mem[0],xmm4[3]
	vinsertps	$48, 92(%r12,%r8,4), %xmm4, %xmm4 ## xmm4 = xmm4[0,1,2],mem[0]
	vmovss	88(%r12,%rdi,4), %xmm5          ## xmm5 = mem[0],zero,zero,zero
	vinsertps	$16, 88(%r12,%rax,4), %xmm5, %xmm5 ## xmm5 = xmm5[0],mem[0],xmm5[2,3]
	vmovaps	%ymm11, 2720(%rsp)              ## 32-byte Spill
	vminps	%ymm11, %ymm7, %ymm7
	vinsertps	$32, 88(%r12,%r10,4), %xmm5, %xmm5 ## xmm5 = xmm5[0,1],mem[0],xmm5[3]
	movq	800(%rsp), %rax                 ## 8-byte Reload
	vmulps	(%r14,%rax,4), %ymm7, %ymm7
	vinsertf128	$1, %xmm0, %ymm3, %ymm0
	vinsertps	$48, 88(%r12,%r11,4), %xmm5, %xmm5 ## xmm5 = xmm5[0,1,2],mem[0]
	vmovss	88(%r12,%rdx,4), %xmm3          ## xmm3 = mem[0],zero,zero,zero
	vinsertps	$16, 88(%r12,%rsi,4), %xmm3, %xmm3 ## xmm3 = xmm3[0],mem[0],xmm3[2,3]
	vandps	%ymm6, %ymm12, %ymm6
	movq	1200(%rsp), %rcx                ## 8-byte Reload
	vmovups	-96(%r14,%rcx), %ymm12
	vfmadd213ps	%ymm6, %ymm12, %ymm15   ## ymm15 = (ymm12 * ymm15) + ymm6
	movq	784(%rsp), %rdx                 ## 8-byte Reload
	vmulps	(%r14,%rdx,4), %ymm11, %ymm6
	vmovaps	%ymm6, 1952(%rsp)               ## 32-byte Spill
	vmulps	%ymm6, %ymm7, %ymm6
	vfmadd231ps	%ymm6, %ymm0, %ymm15    ## ymm15 = (ymm0 * ymm6) + ymm15
	vmovaps	%ymm15, 2368(%rsp)              ## 32-byte Spill
	vinsertps	$32, 88(%r12,%r9,4), %xmm3, %xmm6 ## xmm6 = xmm3[0,1],mem[0],xmm3[3]
	movq	176(%rsp), %rsi                 ## 8-byte Reload
	vmovss	20(%r12,%rsi,4), %xmm0          ## xmm0 = mem[0],zero,zero,zero
	movq	160(%rsp), %rdi                 ## 8-byte Reload
	vinsertps	$16, 20(%r12,%rdi,4), %xmm0, %xmm0 ## xmm0 = xmm0[0],mem[0],xmm0[2,3]
	vinsertps	$48, 88(%r12,%r8,4), %xmm6, %xmm3 ## xmm3 = xmm6[0,1,2],mem[0]
	vinsertf128	$1, %xmm5, %ymm3, %ymm3
	movq	320(%rsp), %r9                  ## 8-byte Reload
	vinsertps	$32, 20(%r12,%r9,4), %xmm0, %xmm0 ## xmm0 = xmm0[0,1],mem[0],xmm0[3]
	vmovaps	2048(%rsp), %ymm5               ## 32-byte Reload
	vaddps	2176(%rsp), %ymm5, %ymm5        ## 32-byte Folded Reload
	vmulps	%ymm3, %ymm5, %ymm3
	vdivps	%ymm1, %ymm3, %ymm3
	vinsertf128	$1, %xmm2, %ymm4, %ymm2
	vdivps	%ymm1, %ymm9, %ymm1
	vmovaps	%ymm8, 2496(%rsp)               ## 32-byte Spill
	vminps	%ymm8, %ymm1, %ymm1
	movq	%rbx, %r8
	vinsertps	$48, 20(%r12,%rbx,4), %xmm0, %xmm0 ## xmm0 = xmm0[0,1,2],mem[0]
	vmovss	20(%r12,%r13,4), %xmm4          ## xmm4 = mem[0],zero,zero,zero
	movq	144(%rsp), %r11                 ## 8-byte Reload
	vinsertps	$16, 20(%r12,%r11,4), %xmm4, %xmm4 ## xmm4 = xmm4[0],mem[0],xmm4[2,3]
	vmulps	32(%r14,%rax,4), %ymm1, %ymm1
	vandps	2144(%rsp), %ymm3, %ymm3        ## 32-byte Folded Reload
	movq	400(%rsp), %rbx                 ## 8-byte Reload
	vinsertps	$32, 20(%r12,%rbx,4), %xmm4, %xmm4 ## xmm4 = xmm4[0,1],mem[0],xmm4[3]
	vmovups	-64(%r14,%rcx), %ymm11
	vfmadd213ps	%ymm3, %ymm11, %ymm14   ## ymm14 = (ymm11 * ymm14) + ymm3
	vmulps	32(%r14,%rdx,4), %ymm8, %ymm3
	vmovaps	%ymm3, 1920(%rsp)               ## 32-byte Spill
	vmulps	%ymm3, %ymm1, %ymm1
	vfmadd231ps	%ymm1, %ymm2, %ymm14    ## ymm14 = (ymm2 * ymm1) + ymm14
	vmovaps	%ymm14, 1696(%rsp)              ## 32-byte Spill
	movq	40(%rsp), %r15                  ## 8-byte Reload
	vinsertps	$48, 20(%r12,%r15,4), %xmm4, %xmm1 ## xmm1 = xmm4[0,1,2],mem[0]
	vinsertf128	$1, %xmm0, %ymm1, %ymm2
	vmovss	24(%r12,%rsi,4), %xmm0          ## xmm0 = mem[0],zero,zero,zero
	vinsertps	$16, 24(%r12,%rdi,4), %xmm0, %xmm0 ## xmm0 = xmm0[0],mem[0],xmm0[2,3]
	vmovss	24(%r12,%r13,4), %xmm1          ## xmm1 = mem[0],zero,zero,zero
	vinsertps	$16, 24(%r12,%r11,4), %xmm1, %xmm1 ## xmm1 = xmm1[0],mem[0],xmm1[2,3]
	movq	%r11, %rcx
	vinsertps	$32, 24(%r12,%r9,4), %xmm0, %xmm0 ## xmm0 = xmm0[0,1],mem[0],xmm0[3]
	vinsertps	$32, 24(%r12,%rbx,4), %xmm1, %xmm1 ## xmm1 = xmm1[0,1],mem[0],xmm1[3]
	vinsertps	$48, 24(%r12,%r8,4), %xmm0, %xmm0 ## xmm0 = xmm0[0,1,2],mem[0]
	vinsertps	$48, 24(%r12,%r15,4), %xmm1, %xmm1 ## xmm1 = xmm1[0,1,2],mem[0]
	vinsertf128	$1, %xmm0, %ymm1, %ymm0
	vmovss	28(%r12,%rsi,4), %xmm1          ## xmm1 = mem[0],zero,zero,zero
	vinsertps	$16, 28(%r12,%rdi,4), %xmm1, %xmm3 ## xmm3 = xmm1[0],mem[0],xmm1[2,3]
	vmovaps	%ymm12, 2464(%rsp)              ## 32-byte Spill
	movq	816(%rsp), %rax                 ## 8-byte Reload
	vmulps	(%r14,%rax,4), %ymm12, %ymm1
	vmulps	%ymm1, %ymm0, %ymm10
	vinsertps	$32, 28(%r12,%r9,4), %xmm3, %xmm0 ## xmm0 = xmm3[0,1],mem[0],xmm3[3]
	vmovss	28(%r12,%r13,4), %xmm3          ## xmm3 = mem[0],zero,zero,zero
	vinsertps	$16, 28(%r12,%r11,4), %xmm3, %xmm3 ## xmm3 = xmm3[0],mem[0],xmm3[2,3]
	vinsertps	$48, 28(%r12,%r8,4), %xmm0, %xmm0 ## xmm0 = xmm0[0,1,2],mem[0]
	vinsertps	$32, 28(%r12,%rbx,4), %xmm3, %xmm3 ## xmm3 = xmm3[0,1],mem[0],xmm3[3]
	movq	832(%rsp), %rax                 ## 8-byte Reload
	vmulps	(%r14,%rax,4), %ymm12, %ymm4
	vfmadd231ps	%ymm4, %ymm2, %ymm10    ## ymm10 = (ymm2 * ymm4) + ymm10
	vinsertps	$48, 28(%r12,%r15,4), %xmm3, %xmm2 ## xmm2 = xmm3[0,1,2],mem[0]
	vinsertf128	$1, %xmm0, %ymm2, %ymm0
	vmovss	32(%r12,%rsi,4), %xmm2          ## xmm2 = mem[0],zero,zero,zero
	vinsertps	$16, 32(%r12,%rdi,4), %xmm2, %xmm2 ## xmm2 = xmm2[0],mem[0],xmm2[2,3]
	movq	%rdi, %rsi
	vmovss	32(%r12,%r13,4), %xmm3          ## xmm3 = mem[0],zero,zero,zero
	movq	%r13, %rdx
	vinsertps	$16, 32(%r12,%r11,4), %xmm3, %xmm3 ## xmm3 = xmm3[0],mem[0],xmm3[2,3]
	vinsertps	$32, 32(%r12,%r9,4), %xmm2, %xmm2 ## xmm2 = xmm2[0,1],mem[0],xmm2[3]
	vinsertps	$32, 32(%r12,%rbx,4), %xmm3, %xmm3 ## xmm3 = xmm3[0,1],mem[0],xmm3[3]
	vinsertps	$48, 32(%r12,%r8,4), %xmm2, %xmm2 ## xmm2 = xmm2[0,1,2],mem[0]
	vinsertps	$48, 32(%r12,%r15,4), %xmm3, %xmm3 ## xmm3 = xmm3[0,1,2],mem[0]
	vmovaps	1504(%rsp), %ymm1               ## 32-byte Reload
	movq	848(%rsp), %rax                 ## 8-byte Reload
	movq	%r14, %rcx
	movq	%r14, 640(%rsp)                 ## 8-byte Spill
	vmulps	(%r14,%rax,4), %ymm1, %ymm4
	vfmadd231ps	%ymm4, %ymm0, %ymm10    ## ymm10 = (ymm0 * ymm4) + ymm10
	movq	224(%rsp), %r9                  ## 8-byte Reload
	vmovss	64(%r12,%r9,4), %xmm0           ## xmm0 = mem[0],zero,zero,zero
	movq	56(%rsp), %r11                  ## 8-byte Reload
	vinsertps	$16, 64(%r12,%r11,4), %xmm0, %xmm0 ## xmm0 = xmm0[0],mem[0],xmm0[2,3]
	vinsertf128	$1, %xmm2, %ymm3, %ymm2
	movq	72(%rsp), %r8                   ## 8-byte Reload
	vinsertps	$32, 64(%r12,%r8,4), %xmm0, %xmm0 ## xmm0 = xmm0[0,1],mem[0],xmm0[3]
	movq	48(%rsp), %rbx                  ## 8-byte Reload
	vmovss	64(%r12,%rbx,4), %xmm3          ## xmm3 = mem[0],zero,zero,zero
	movq	480(%rsp), %r13                 ## 8-byte Reload
	vinsertps	$16, 64(%r12,%r13,4), %xmm3, %xmm3 ## xmm3 = xmm3[0],mem[0],xmm3[2,3]
	movq	432(%rsp), %rdi                 ## 8-byte Reload
	vinsertps	$48, 64(%r12,%rdi,4), %xmm0, %xmm0 ## xmm0 = xmm0[0,1,2],mem[0]
	movq	64(%rsp), %rax                  ## 8-byte Reload
	vinsertps	$32, 64(%r12,%rax,4), %xmm3, %xmm3 ## xmm3 = xmm3[0,1],mem[0],xmm3[3]
	vmovaps	1536(%rsp), %ymm8               ## 32-byte Reload
	movq	880(%rsp), %rax                 ## 8-byte Reload
	vmulps	(%rcx,%rax,4), %ymm8, %ymm4
	vfmadd231ps	%ymm4, %ymm2, %ymm10    ## ymm10 = (ymm2 * ymm4) + ymm10
	movq	416(%rsp), %r14                 ## 8-byte Reload
	vinsertps	$48, 64(%r12,%r14,4), %xmm3, %xmm2 ## xmm2 = xmm3[0,1,2],mem[0]
	vinsertf128	$1, %xmm0, %ymm2, %ymm0
	movq	768(%rsp), %r10                 ## 8-byte Reload
	vmovups	64(%rcx,%r10,4), %ymm14
	vcmpltps	%ymm14, %ymm13, %ymm3
	vmovaps	1344(%rsp), %ymm2               ## 32-byte Reload
	vblendvps	%ymm3, %ymm0, %ymm2, %ymm2
	vmovaps	%ymm3, %ymm12
	movq	176(%rsp), %rcx                 ## 8-byte Reload
	vmovss	36(%r12,%rcx,4), %xmm0          ## xmm0 = mem[0],zero,zero,zero
	movq	%rsi, %rax
	vinsertps	$16, 36(%r12,%rsi,4), %xmm0, %xmm0 ## xmm0 = xmm0[0],mem[0],xmm0[2,3]
	vmovss	36(%r12,%rdx,4), %xmm3          ## xmm3 = mem[0],zero,zero,zero
	movq	144(%rsp), %r10                 ## 8-byte Reload
	vinsertps	$16, 36(%r12,%r10,4), %xmm3, %xmm3 ## xmm3 = xmm3[0],mem[0],xmm3[2,3]
	movq	320(%rsp), %rsi                 ## 8-byte Reload
	vinsertps	$32, 36(%r12,%rsi,4), %xmm0, %xmm0 ## xmm0 = xmm0[0,1],mem[0],xmm0[3]
	movq	400(%rsp), %rdx                 ## 8-byte Reload
	vinsertps	$32, 36(%r12,%rdx,4), %xmm3, %xmm3 ## xmm3 = xmm3[0,1],mem[0],xmm3[3]
	movq	384(%rsp), %rdx                 ## 8-byte Reload
	vinsertps	$48, 36(%r12,%rdx,4), %xmm0, %xmm0 ## xmm0 = xmm0[0,1,2],mem[0]
	movq	40(%rsp), %r15                  ## 8-byte Reload
	vinsertps	$48, 36(%r12,%r15,4), %xmm3, %xmm3 ## xmm3 = xmm3[0,1,2],mem[0]
	vinsertf128	$1, %xmm0, %ymm3, %ymm0
	vmovss	40(%r12,%rcx,4), %xmm3          ## xmm3 = mem[0],zero,zero,zero
	vinsertps	$16, 40(%r12,%rax,4), %xmm3, %xmm3 ## xmm3 = xmm3[0],mem[0],xmm3[2,3]
	movq	864(%rsp), %rax                 ## 8-byte Reload
	movq	640(%rsp), %r15                 ## 8-byte Reload
	vmulps	(%r15,%rax,4), %ymm1, %ymm4
	vfmadd231ps	%ymm4, %ymm0, %ymm10    ## ymm10 = (ymm0 * ymm4) + ymm10
	vinsertps	$32, 40(%r12,%rsi,4), %xmm3, %xmm0 ## xmm0 = xmm3[0,1],mem[0],xmm3[3]
	movq	288(%rsp), %rax                 ## 8-byte Reload
	vmovss	40(%r12,%rax,4), %xmm3          ## xmm3 = mem[0],zero,zero,zero
	vinsertps	$16, 40(%r12,%r10,4), %xmm3, %xmm3 ## xmm3 = xmm3[0],mem[0],xmm3[2,3]
	vinsertps	$48, 40(%r12,%rdx,4), %xmm0, %xmm0 ## xmm0 = xmm0[0,1,2],mem[0]
	movq	%rdx, %r10
	movq	400(%rsp), %rcx                 ## 8-byte Reload
	vinsertps	$32, 40(%r12,%rcx,4), %xmm3, %xmm3 ## xmm3 = xmm3[0,1],mem[0],xmm3[3]
	movq	40(%rsp), %rdx                  ## 8-byte Reload
	vinsertps	$48, 40(%r12,%rdx,4), %xmm3, %xmm3 ## xmm3 = xmm3[0,1,2],mem[0]
	vinsertf128	$1, %xmm0, %ymm3, %ymm0
	vmovss	76(%r12,%r9,4), %xmm3           ## xmm3 = mem[0],zero,zero,zero
	vinsertps	$16, 76(%r12,%r11,4), %xmm3, %xmm3 ## xmm3 = xmm3[0],mem[0],xmm3[2,3]
	vmovss	76(%r12,%rbx,4), %xmm4          ## xmm4 = mem[0],zero,zero,zero
	vinsertps	$16, 76(%r12,%r13,4), %xmm4, %xmm4 ## xmm4 = xmm4[0],mem[0],xmm4[2,3]
	movq	176(%rsp), %rax                 ## 8-byte Reload
	vmovss	44(%r12,%rax,4), %xmm5          ## xmm5 = mem[0],zero,zero,zero
	movq	160(%rsp), %rax                 ## 8-byte Reload
	vinsertps	$16, 44(%r12,%rax,4), %xmm5, %xmm5 ## xmm5 = xmm5[0],mem[0],xmm5[2,3]
	vinsertps	$32, 76(%r12,%r8,4), %xmm3, %xmm3 ## xmm3 = xmm3[0,1],mem[0],xmm3[3]
	vinsertps	$32, 44(%r12,%rsi,4), %xmm5, %xmm5 ## xmm5 = xmm5[0,1],mem[0],xmm5[3]
	movq	896(%rsp), %rax                 ## 8-byte Reload
	movq	%r15, %rsi
	vmovups	(%r15,%rax,4), %ymm6
	vmulps	%ymm6, %ymm8, %ymm7
	vfmadd231ps	%ymm7, %ymm0, %ymm10    ## ymm10 = (ymm0 * ymm7) + ymm10
	vinsertps	$48, 44(%r12,%r10,4), %xmm5, %xmm0 ## xmm0 = xmm5[0,1,2],mem[0]
	movq	288(%rsp), %r10                 ## 8-byte Reload
	vmovss	44(%r12,%r10,4), %xmm5          ## xmm5 = mem[0],zero,zero,zero
	movq	144(%rsp), %rax                 ## 8-byte Reload
	vinsertps	$16, 44(%r12,%rax,4), %xmm5, %xmm5 ## xmm5 = xmm5[0],mem[0],xmm5[2,3]
	movq	64(%rsp), %rax                  ## 8-byte Reload
	vinsertps	$32, 76(%r12,%rax,4), %xmm4, %xmm4 ## xmm4 = xmm4[0,1],mem[0],xmm4[3]
	vinsertps	$32, 44(%r12,%rcx,4), %xmm5, %xmm5 ## xmm5 = xmm5[0,1],mem[0],xmm5[3]
	vinsertps	$48, 76(%r12,%rdi,4), %xmm3, %xmm3 ## xmm3 = xmm3[0,1,2],mem[0]
	vinsertps	$48, 44(%r12,%rdx,4), %xmm5, %xmm5 ## xmm5 = xmm5[0,1,2],mem[0]
	vinsertps	$48, 76(%r12,%r14,4), %xmm4, %xmm4 ## xmm4 = xmm4[0,1,2],mem[0]
	vinsertf128	$1, %xmm3, %ymm4, %ymm3
	vinsertf128	$1, %xmm0, %ymm5, %ymm0
	vmovaps	1600(%rsp), %ymm4               ## 32-byte Reload
	vmovaps	%ymm12, %ymm15
	vmovaps	%ymm12, 1984(%rsp)              ## 32-byte Spill
	vblendvps	%ymm12, %ymm3, %ymm4, %ymm12
	vmulps	%ymm6, %ymm1, %ymm3
	vmovss	88(%r12,%r9,4), %xmm4           ## xmm4 = mem[0],zero,zero,zero
	vinsertps	$16, 88(%r12,%r11,4), %xmm4, %xmm4 ## xmm4 = xmm4[0],mem[0],xmm4[2,3]
	vfmadd231ps	%ymm3, %ymm0, %ymm10    ## ymm10 = (ymm0 * ymm3) + ymm10
	vinsertps	$32, 88(%r12,%r8,4), %xmm4, %xmm0 ## xmm0 = xmm4[0,1],mem[0],xmm4[3]
	vmovss	88(%r12,%rbx,4), %xmm3          ## xmm3 = mem[0],zero,zero,zero
	vinsertps	$16, 88(%r12,%r13,4), %xmm3, %xmm3 ## xmm3 = xmm3[0],mem[0],xmm3[2,3]
	vinsertps	$48, 88(%r12,%rdi,4), %xmm0, %xmm0 ## xmm0 = xmm0[0,1,2],mem[0]
	vinsertps	$32, 88(%r12,%rax,4), %xmm3, %xmm3 ## xmm3 = xmm3[0,1],mem[0],xmm3[3]
	vinsertps	$48, 88(%r12,%r14,4), %xmm3, %xmm3 ## xmm3 = xmm3[0,1,2],mem[0]
	vinsertf128	$1, %xmm0, %ymm3, %ymm0
	vmovss	92(%r12,%r9,4), %xmm3           ## xmm3 = mem[0],zero,zero,zero
	vinsertps	$16, 92(%r12,%r11,4), %xmm3, %xmm3 ## xmm3 = xmm3[0],mem[0],xmm3[2,3]
	vinsertps	$32, 92(%r12,%r8,4), %xmm3, %xmm3 ## xmm3 = xmm3[0,1],mem[0],xmm3[3]
	vinsertps	$48, 92(%r12,%rdi,4), %xmm3, %xmm3 ## xmm3 = xmm3[0,1,2],mem[0]
	vmovss	92(%r12,%rbx,4), %xmm4          ## xmm4 = mem[0],zero,zero,zero
	vinsertps	$16, 92(%r12,%r13,4), %xmm4, %xmm4 ## xmm4 = xmm4[0],mem[0],xmm4[2,3]
	vmovaps	2080(%rsp), %ymm5               ## 32-byte Reload
	vaddps	1632(%rsp), %ymm5, %ymm6        ## 32-byte Folded Reload
	vmulps	%ymm0, %ymm6, %ymm0
	vinsertps	$32, 92(%r12,%rax,4), %xmm4, %xmm4 ## xmm4 = xmm4[0,1],mem[0],xmm4[3]
	movq	200(%rsp), %rax                 ## 8-byte Reload
	movq	%r15, %rdx
	vmovups	64(%r15,%rax,4), %ymm6
	vmaxps	%ymm13, %ymm6, %ymm6
	vdivps	%ymm6, %ymm0, %ymm0
	vinsertps	$48, 92(%r12,%r14,4), %xmm4, %xmm4 ## xmm4 = xmm4[0,1,2],mem[0]
	movq	688(%rsp), %rax                 ## 8-byte Reload
	vmulps	64(%r15,%rax,4), %ymm14, %ymm7
	vmulps	%ymm2, %ymm7, %ymm2
	vdivps	%ymm6, %ymm2, %ymm2
	vinsertf128	$1, %xmm3, %ymm4, %ymm3
	vdivps	%ymm6, %ymm9, %ymm4
	vmovaps	%ymm9, %ymm5
	movq	672(%rsp), %rax                 ## 8-byte Reload
	vfmadd132ps	64(%r15,%rax,4), %ymm2, %ymm12 ## ymm12 = (ymm12 * mem) + ymm2
	vandps	%ymm0, %ymm15, %ymm0
	movq	1200(%rsp), %rax                ## 8-byte Reload
	vmovups	-32(%r15,%rax), %ymm2
	vmovaps	%ymm2, 1600(%rsp)               ## 32-byte Spill
	vfmadd213ps	%ymm0, %ymm2, %ymm12    ## ymm12 = (ymm2 * ymm12) + ymm0
	vmovaps	%ymm14, 2016(%rsp)              ## 32-byte Spill
	vminps	%ymm14, %ymm4, %ymm0
	movq	800(%rsp), %rax                 ## 8-byte Reload
	vmulps	64(%r15,%rax,4), %ymm0, %ymm0
	movq	784(%rsp), %rax                 ## 8-byte Reload
	vmulps	64(%r15,%rax,4), %ymm14, %ymm2
	movq	%r15, %r14
	vmovaps	%ymm2, 2336(%rsp)               ## 32-byte Spill
	vmulps	%ymm2, %ymm0, %ymm0
	vfmadd231ps	%ymm0, %ymm3, %ymm12    ## ymm12 = (ymm3 * ymm0) + ymm12
	vmovaps	%ymm12, 1344(%rsp)              ## 32-byte Spill
	movq	176(%rsp), %rsi                 ## 8-byte Reload
	vmovss	48(%r12,%rsi,4), %xmm0          ## xmm0 = mem[0],zero,zero,zero
	movq	160(%rsp), %rdx                 ## 8-byte Reload
	vinsertps	$16, 48(%r12,%rdx,4), %xmm0, %xmm0 ## xmm0 = xmm0[0],mem[0],xmm0[2,3]
	movq	%r10, %r9
	vmovss	48(%r12,%r10,4), %xmm2          ## xmm2 = mem[0],zero,zero,zero
	movq	144(%rsp), %r8                  ## 8-byte Reload
	vinsertps	$16, 48(%r12,%r8,4), %xmm2, %xmm2 ## xmm2 = xmm2[0],mem[0],xmm2[2,3]
	movq	320(%rsp), %rax                 ## 8-byte Reload
	vinsertps	$32, 48(%r12,%rax,4), %xmm0, %xmm0 ## xmm0 = xmm0[0,1],mem[0],xmm0[3]
	movq	%rcx, %r10
	vinsertps	$32, 48(%r12,%rcx,4), %xmm2, %xmm2 ## xmm2 = xmm2[0,1],mem[0],xmm2[3]
	movq	384(%rsp), %rdi                 ## 8-byte Reload
	vinsertps	$48, 48(%r12,%rdi,4), %xmm0, %xmm0 ## xmm0 = xmm0[0,1,2],mem[0]
	movq	40(%rsp), %rbx                  ## 8-byte Reload
	vinsertps	$48, 48(%r12,%rbx,4), %xmm2, %xmm2 ## xmm2 = xmm2[0,1,2],mem[0]
	vinsertf128	$1, %xmm0, %ymm2, %ymm0
	vmovss	52(%r12,%rsi,4), %xmm2          ## xmm2 = mem[0],zero,zero,zero
	vinsertps	$16, 52(%r12,%rdx,4), %xmm2, %xmm2 ## xmm2 = xmm2[0],mem[0],xmm2[2,3]
	movq	912(%rsp), %rcx                 ## 8-byte Reload
	vmovups	(%r15,%rcx,4), %ymm3
	vmulps	%ymm3, %ymm8, %ymm4
	vfmadd231ps	%ymm4, %ymm0, %ymm10    ## ymm10 = (ymm0 * ymm4) + ymm10
	vinsertps	$32, 52(%r12,%rax,4), %xmm2, %xmm0 ## xmm0 = xmm2[0,1],mem[0],xmm2[3]
	vmovss	52(%r12,%r9,4), %xmm2           ## xmm2 = mem[0],zero,zero,zero
	vinsertps	$16, 52(%r12,%r8,4), %xmm2, %xmm2 ## xmm2 = xmm2[0],mem[0],xmm2[2,3]
	vinsertps	$48, 52(%r12,%rdi,4), %xmm0, %xmm0 ## xmm0 = xmm0[0,1,2],mem[0]
	vinsertps	$32, 52(%r12,%r10,4), %xmm2, %xmm2 ## xmm2 = xmm2[0,1],mem[0],xmm2[3]
	vinsertps	$48, 52(%r12,%rbx,4), %xmm2, %xmm2 ## xmm2 = xmm2[0,1,2],mem[0]
	vinsertf128	$1, %xmm0, %ymm2, %ymm0
	vmovss	56(%r12,%rsi,4), %xmm2          ## xmm2 = mem[0],zero,zero,zero
	vinsertps	$16, 56(%r12,%rdx,4), %xmm2, %xmm2 ## xmm2 = xmm2[0],mem[0],xmm2[2,3]
	vmulps	%ymm3, %ymm1, %ymm3
	vinsertps	$32, 56(%r12,%rax,4), %xmm2, %xmm2 ## xmm2 = xmm2[0,1],mem[0],xmm2[3]
	vmovss	56(%r12,%r9,4), %xmm4           ## xmm4 = mem[0],zero,zero,zero
	vinsertps	$16, 56(%r12,%r8,4), %xmm4, %xmm4 ## xmm4 = xmm4[0],mem[0],xmm4[2,3]
	vinsertps	$48, 56(%r12,%rdi,4), %xmm2, %xmm2 ## xmm2 = xmm2[0,1,2],mem[0]
	vinsertps	$32, 56(%r12,%r10,4), %xmm4, %xmm4 ## xmm4 = xmm4[0,1],mem[0],xmm4[3]
	vinsertps	$48, 56(%r12,%rbx,4), %xmm4, %xmm4 ## xmm4 = xmm4[0,1,2],mem[0]
	vfmadd231ps	%ymm3, %ymm0, %ymm10    ## ymm10 = (ymm0 * ymm3) + ymm10
	movq	352(%rsp), %r8                  ## 8-byte Reload
	vmovss	20(%r12,%r8,4), %xmm0           ## xmm0 = mem[0],zero,zero,zero
	movq	544(%rsp), %r9                  ## 8-byte Reload
	vinsertps	$16, 20(%r12,%r9,4), %xmm0, %xmm0 ## xmm0 = xmm0[0],mem[0],xmm0[2,3]
	vinsertf128	$1, %xmm2, %ymm4, %ymm2
	movq	336(%rsp), %r13                 ## 8-byte Reload
	vinsertps	$32, 20(%r12,%r13,4), %xmm0, %xmm0 ## xmm0 = xmm0[0,1],mem[0],xmm0[3]
	movq	32(%rsp), %r11                  ## 8-byte Reload
	vmovss	20(%r12,%r11,4), %xmm3          ## xmm3 = mem[0],zero,zero,zero
	movq	256(%rsp), %rbx                 ## 8-byte Reload
	vinsertps	$16, 20(%r12,%rbx,4), %xmm3, %xmm4 ## xmm4 = xmm3[0],mem[0],xmm3[2,3]
	movq	240(%rsp), %rax                 ## 8-byte Reload
	vinsertps	$48, 20(%r12,%rax,4), %xmm0, %xmm0 ## xmm0 = xmm0[0,1,2],mem[0]
	vmovaps	1952(%rsp), %ymm1               ## 32-byte Reload
	vmaxps	%ymm13, %ymm1, %ymm15
	movq	304(%rsp), %rsi                 ## 8-byte Reload
	vinsertps	$32, 20(%r12,%rsi,4), %xmm4, %xmm4 ## xmm4 = xmm4[0,1],mem[0],xmm4[3]
	vmovss	24(%r12,%r8,4), %xmm6           ## xmm6 = mem[0],zero,zero,zero
	vinsertps	$16, 24(%r12,%r9,4), %xmm6, %xmm6 ## xmm6 = xmm6[0],mem[0],xmm6[2,3]
	movq	208(%rsp), %rdx                 ## 8-byte Reload
	vmulps	(%r15,%rdx,4), %ymm15, %ymm7
	vfmadd231ps	%ymm7, %ymm2, %ymm10    ## ymm10 = (ymm2 * ymm7) + ymm10
	vinsertps	$32, 24(%r12,%r13,4), %xmm6, %xmm2 ## xmm2 = xmm6[0,1],mem[0],xmm6[3]
	vmovss	24(%r12,%r11,4), %xmm6          ## xmm6 = mem[0],zero,zero,zero
	vinsertps	$16, 24(%r12,%rbx,4), %xmm6, %xmm6 ## xmm6 = xmm6[0],mem[0],xmm6[2,3]
	movq	80(%rsp), %r15                  ## 8-byte Reload
	vinsertps	$48, 20(%r12,%r15,4), %xmm4, %xmm4 ## xmm4 = xmm4[0,1,2],mem[0]
	vinsertps	$32, 24(%r12,%rsi,4), %xmm6, %xmm6 ## xmm6 = xmm6[0,1],mem[0],xmm6[3]
	movq	%rsi, %rdx
	vinsertps	$48, 24(%r12,%rax,4), %xmm2, %xmm2 ## xmm2 = xmm2[0,1,2],mem[0]
	vinsertf128	$1, %xmm0, %ymm4, %ymm4
	vinsertps	$48, 24(%r12,%r15,4), %xmm6, %xmm0 ## xmm0 = xmm6[0,1,2],mem[0]
	vinsertf128	$1, %xmm2, %ymm0, %ymm0
	vmovaps	%ymm11, 3008(%rsp)              ## 32-byte Spill
	movq	816(%rsp), %rcx                 ## 8-byte Reload
	vmulps	32(%r14,%rcx,4), %ymm11, %ymm2
	vmulps	%ymm2, %ymm0, %ymm8
	vmovss	28(%r12,%r8,4), %xmm2           ## xmm2 = mem[0],zero,zero,zero
	movq	%r9, %rdi
	vinsertps	$16, 28(%r12,%r9,4), %xmm2, %xmm2 ## xmm2 = xmm2[0],mem[0],xmm2[2,3]
	movq	832(%rsp), %rcx                 ## 8-byte Reload
	vmulps	32(%r14,%rcx,4), %ymm11, %ymm6
	vfmadd231ps	%ymm6, %ymm4, %ymm8     ## ymm8 = (ymm4 * ymm6) + ymm8
	vinsertps	$32, 28(%r12,%r13,4), %xmm2, %xmm2 ## xmm2 = xmm2[0,1],mem[0],xmm2[3]
	vmovss	28(%r12,%r11,4), %xmm4          ## xmm4 = mem[0],zero,zero,zero
	vinsertps	$16, 28(%r12,%rbx,4), %xmm4, %xmm4 ## xmm4 = xmm4[0],mem[0],xmm4[2,3]
	vinsertps	$48, 28(%r12,%rax,4), %xmm2, %xmm2 ## xmm2 = xmm2[0,1,2],mem[0]
	vinsertps	$32, 28(%r12,%rsi,4), %xmm4, %xmm4 ## xmm4 = xmm4[0,1],mem[0],xmm4[3]
	vinsertps	$48, 28(%r12,%r15,4), %xmm4, %xmm4 ## xmm4 = xmm4[0,1,2],mem[0]
	vinsertf128	$1, %xmm2, %ymm4, %ymm2
	movq	464(%rsp), %rsi                 ## 8-byte Reload
	vmovss	92(%r12,%rsi,4), %xmm4          ## xmm4 = mem[0],zero,zero,zero
	movq	736(%rsp), %rcx                 ## 8-byte Reload
	vinsertps	$16, 92(%r12,%rcx,4), %xmm4, %xmm4 ## xmm4 = xmm4[0],mem[0],xmm4[2,3]
	movq	448(%rsp), %r11                 ## 8-byte Reload
	vinsertps	$32, 92(%r12,%r11,4), %xmm4, %xmm4 ## xmm4 = xmm4[0,1],mem[0],xmm4[3]
	movq	120(%rsp), %r10                 ## 8-byte Reload
	vinsertps	$48, 92(%r12,%r10,4), %xmm4, %xmm4 ## xmm4 = xmm4[0,1,2],mem[0]
	movq	112(%rsp), %rdx                 ## 8-byte Reload
	vmovss	92(%r12,%rdx,4), %xmm6          ## xmm6 = mem[0],zero,zero,zero
	movq	1152(%rsp), %r9                 ## 8-byte Reload
	vinsertps	$16, 92(%r12,%r9,4), %xmm6, %xmm6 ## xmm6 = xmm6[0],mem[0],xmm6[2,3]
	vmovss	32(%r12,%r8,4), %xmm7           ## xmm7 = mem[0],zero,zero,zero
	vinsertps	$16, 32(%r12,%rdi,4), %xmm7, %xmm7 ## xmm7 = xmm7[0],mem[0],xmm7[2,3]
	vmovaps	2048(%rsp), %ymm11              ## 32-byte Reload
	movq	848(%rsp), %rax                 ## 8-byte Reload
	vmulps	32(%r14,%rax,4), %ymm11, %ymm9
	vfmadd231ps	%ymm9, %ymm2, %ymm8     ## ymm8 = (ymm2 * ymm9) + ymm8
	vinsertps	$32, 32(%r12,%r13,4), %xmm7, %xmm2 ## xmm2 = xmm7[0,1],mem[0],xmm7[3]
	movq	32(%rsp), %r13                  ## 8-byte Reload
	vmovss	32(%r12,%r13,4), %xmm7          ## xmm7 = mem[0],zero,zero,zero
	vinsertps	$16, 32(%r12,%rbx,4), %xmm7, %xmm7 ## xmm7 = xmm7[0],mem[0],xmm7[2,3]
	movq	240(%rsp), %rax                 ## 8-byte Reload
	vinsertps	$48, 32(%r12,%rax,4), %xmm2, %xmm2 ## xmm2 = xmm2[0,1,2],mem[0]
	movq	304(%rsp), %rax                 ## 8-byte Reload
	vinsertps	$32, 32(%r12,%rax,4), %xmm7, %xmm7 ## xmm7 = xmm7[0,1],mem[0],xmm7[3]
	vinsertps	$48, 32(%r12,%r15,4), %xmm7, %xmm7 ## xmm7 = xmm7[0,1,2],mem[0]
	vinsertf128	$1, %xmm2, %ymm7, %ymm2
	movq	104(%rsp), %r8                  ## 8-byte Reload
	vinsertps	$32, 92(%r12,%r8,4), %xmm6, %xmm6 ## xmm6 = xmm6[0,1],mem[0],xmm6[3]
	vmovss	88(%r12,%rsi,4), %xmm7          ## xmm7 = mem[0],zero,zero,zero
	vinsertps	$16, 88(%r12,%rcx,4), %xmm7, %xmm7 ## xmm7 = xmm7[0],mem[0],xmm7[2,3]
	vmovaps	2176(%rsp), %ymm14              ## 32-byte Reload
	movq	880(%rsp), %rax                 ## 8-byte Reload
	vmulps	32(%r14,%rax,4), %ymm14, %ymm9
	vfmadd231ps	%ymm9, %ymm2, %ymm8     ## ymm8 = (ymm2 * ymm9) + ymm8
	vinsertps	$32, 88(%r12,%r11,4), %xmm7, %xmm2 ## xmm2 = xmm7[0,1],mem[0],xmm7[3]
	vmovss	88(%r12,%rdx,4), %xmm7          ## xmm7 = mem[0],zero,zero,zero
	vinsertps	$16, 88(%r12,%r9,4), %xmm7, %xmm7 ## xmm7 = xmm7[0],mem[0],xmm7[2,3]
	movq	128(%rsp), %rdi                 ## 8-byte Reload
	vinsertps	$48, 92(%r12,%rdi,4), %xmm6, %xmm6 ## xmm6 = xmm6[0,1,2],mem[0]
	vinsertps	$32, 88(%r12,%r8,4), %xmm7, %xmm7 ## xmm7 = xmm7[0,1],mem[0],xmm7[3]
	vinsertps	$48, 88(%r12,%r10,4), %xmm2, %xmm2 ## xmm2 = xmm2[0,1,2],mem[0]
	vinsertf128	$1, %xmm4, %ymm6, %ymm9
	vinsertps	$48, 88(%r12,%rdi,4), %xmm7, %xmm4 ## xmm4 = xmm7[0,1,2],mem[0]
	vinsertf128	$1, %xmm2, %ymm4, %ymm1
	vmovss	64(%r12,%rsi,4), %xmm4          ## xmm4 = mem[0],zero,zero,zero
	vinsertps	$16, 64(%r12,%rcx,4), %xmm4, %xmm4 ## xmm4 = xmm4[0],mem[0],xmm4[2,3]
	vmovss	64(%r12,%rdx,4), %xmm6          ## xmm6 = mem[0],zero,zero,zero
	vinsertps	$16, 64(%r12,%r9,4), %xmm6, %xmm6 ## xmm6 = xmm6[0],mem[0],xmm6[2,3]
	vinsertps	$32, 64(%r12,%r11,4), %xmm4, %xmm4 ## xmm4 = xmm4[0,1],mem[0],xmm4[3]
	vinsertps	$32, 64(%r12,%r8,4), %xmm6, %xmm6 ## xmm6 = xmm6[0,1],mem[0],xmm6[3]
	vinsertps	$48, 64(%r12,%r10,4), %xmm4, %xmm4 ## xmm4 = xmm4[0,1,2],mem[0]
	vinsertps	$48, 64(%r12,%rdi,4), %xmm6, %xmm6 ## xmm6 = xmm6[0,1,2],mem[0]
	vinsertf128	$1, %xmm4, %ymm6, %ymm4
	movq	768(%rsp), %rbx                 ## 8-byte Reload
	vmovups	96(%r14,%rbx,4), %ymm2
	vcmpltps	%ymm2, %ymm13, %ymm3
	vmovaps	1568(%rsp), %ymm0               ## 32-byte Reload
	vblendvps	%ymm3, %ymm4, %ymm0, %ymm4
	vmovaps	%ymm3, %ymm0
	movq	200(%rsp), %rbx                 ## 8-byte Reload
	vmovups	96(%r14,%rbx,4), %ymm6
	vmaxps	%ymm13, %ymm6, %ymm6
	vdivps	%ymm6, %ymm5, %ymm3
	vmovss	76(%r12,%rsi,4), %xmm7          ## xmm7 = mem[0],zero,zero,zero
	vinsertps	$16, 76(%r12,%rcx,4), %xmm7, %xmm7 ## xmm7 = xmm7[0],mem[0],xmm7[2,3]
	vmovaps	2112(%rsp), %ymm12              ## 32-byte Reload
	vaddps	1664(%rsp), %ymm12, %ymm13      ## 32-byte Folded Reload
	vmulps	%ymm1, %ymm13, %ymm1
	vinsertps	$32, 76(%r12,%r11,4), %xmm7, %xmm7 ## xmm7 = xmm7[0,1],mem[0],xmm7[3]
	vmovss	76(%r12,%rdx,4), %xmm5          ## xmm5 = mem[0],zero,zero,zero
	vinsertps	$16, 76(%r12,%r9,4), %xmm5, %xmm5 ## xmm5 = xmm5[0],mem[0],xmm5[2,3]
	vinsertps	$48, 76(%r12,%r10,4), %xmm7, %xmm7 ## xmm7 = xmm7[0,1,2],mem[0]
	vinsertps	$32, 76(%r12,%r8,4), %xmm5, %xmm5 ## xmm5 = xmm5[0,1],mem[0],xmm5[3]
	vinsertps	$48, 76(%r12,%rdi,4), %xmm5, %xmm5 ## xmm5 = xmm5[0,1,2],mem[0]
	vinsertf128	$1, %xmm7, %ymm5, %ymm5
	vdivps	%ymm6, %ymm1, %ymm7
	vmovaps	2400(%rsp), %ymm1               ## 32-byte Reload
	vmovaps	%ymm0, 1536(%rsp)               ## 32-byte Spill
	vblendvps	%ymm0, %ymm5, %ymm1, %ymm13
	movq	688(%rsp), %rbx                 ## 8-byte Reload
	vmovaps	%ymm2, %ymm1
	vmovaps	%ymm2, 1952(%rsp)               ## 32-byte Spill
	vmulps	96(%r14,%rbx,4), %ymm2, %ymm5
	vmulps	%ymm4, %ymm5, %ymm4
	vdivps	%ymm6, %ymm4, %ymm4
	movq	672(%rsp), %rbx                 ## 8-byte Reload
	vfmadd132ps	96(%r14,%rbx,4), %ymm4, %ymm13 ## ymm13 = (ymm13 * mem) + ymm4
	vandps	%ymm7, %ymm0, %ymm2
	movq	1200(%rsp), %rax                ## 8-byte Reload
	vmovups	(%r14,%rax), %ymm0
	vmovaps	%ymm0, 1568(%rsp)               ## 32-byte Spill
	vfmadd213ps	%ymm2, %ymm0, %ymm13    ## ymm13 = (ymm0 * ymm13) + ymm2
	vminps	%ymm1, %ymm3, %ymm2
	movq	800(%rsp), %rax                 ## 8-byte Reload
	vmulps	96(%r14,%rax,4), %ymm2, %ymm2
	movq	784(%rsp), %rax                 ## 8-byte Reload
	vmulps	96(%r14,%rax,4), %ymm1, %ymm0
	vmovaps	%ymm0, 2400(%rsp)               ## 32-byte Spill
	vmulps	%ymm0, %ymm2, %ymm2
	vfmadd231ps	%ymm2, %ymm9, %ymm13    ## ymm13 = (ymm9 * ymm2) + ymm13
	movq	352(%rsp), %rax                 ## 8-byte Reload
	vmovss	36(%r12,%rax,4), %xmm2          ## xmm2 = mem[0],zero,zero,zero
	movq	544(%rsp), %rcx                 ## 8-byte Reload
	vinsertps	$16, 36(%r12,%rcx,4), %xmm2, %xmm2 ## xmm2 = xmm2[0],mem[0],xmm2[2,3]
	movq	%r13, %rbx
	vmovss	36(%r12,%r13,4), %xmm3          ## xmm3 = mem[0],zero,zero,zero
	movq	256(%rsp), %r9                  ## 8-byte Reload
	vinsertps	$16, 36(%r12,%r9,4), %xmm3, %xmm3 ## xmm3 = xmm3[0],mem[0],xmm3[2,3]
	movq	336(%rsp), %rdx                 ## 8-byte Reload
	vinsertps	$32, 36(%r12,%rdx,4), %xmm2, %xmm2 ## xmm2 = xmm2[0,1],mem[0],xmm2[3]
	movq	304(%rsp), %rdi                 ## 8-byte Reload
	vinsertps	$32, 36(%r12,%rdi,4), %xmm3, %xmm3 ## xmm3 = xmm3[0,1],mem[0],xmm3[3]
	movq	240(%rsp), %r8                  ## 8-byte Reload
	vinsertps	$48, 36(%r12,%r8,4), %xmm2, %xmm2 ## xmm2 = xmm2[0,1,2],mem[0]
	vinsertps	$48, 36(%r12,%r15,4), %xmm3, %xmm3 ## xmm3 = xmm3[0,1,2],mem[0]
	vinsertf128	$1, %xmm2, %ymm3, %ymm2
	vmovss	48(%r12,%rax,4), %xmm3          ## xmm3 = mem[0],zero,zero,zero
	vinsertps	$16, 48(%r12,%rcx,4), %xmm3, %xmm3 ## xmm3 = xmm3[0],mem[0],xmm3[2,3]
	vinsertps	$32, 48(%r12,%rdx,4), %xmm3, %xmm3 ## xmm3 = xmm3[0,1],mem[0],xmm3[3]
	vmovss	48(%r12,%r13,4), %xmm5          ## xmm5 = mem[0],zero,zero,zero
	vinsertps	$16, 48(%r12,%r9,4), %xmm5, %xmm5 ## xmm5 = xmm5[0],mem[0],xmm5[2,3]
	vmovss	40(%r12,%rax,4), %xmm7          ## xmm7 = mem[0],zero,zero,zero
	vinsertps	$16, 40(%r12,%rcx,4), %xmm7, %xmm7 ## xmm7 = xmm7[0],mem[0],xmm7[2,3]
	movq	864(%rsp), %rsi                 ## 8-byte Reload
	vmulps	32(%r14,%rsi,4), %ymm11, %ymm9
	vfmadd231ps	%ymm9, %ymm2, %ymm8     ## ymm8 = (ymm2 * ymm9) + ymm8
	vinsertps	$32, 40(%r12,%rdx,4), %xmm7, %xmm2 ## xmm2 = xmm7[0,1],mem[0],xmm7[3]
	vmovss	40(%r12,%r13,4), %xmm7          ## xmm7 = mem[0],zero,zero,zero
	vinsertps	$16, 40(%r12,%r9,4), %xmm7, %xmm7 ## xmm7 = xmm7[0],mem[0],xmm7[2,3]
	vinsertps	$48, 40(%r12,%r8,4), %xmm2, %xmm2 ## xmm2 = xmm2[0,1,2],mem[0]
	vinsertps	$32, 40(%r12,%rdi,4), %xmm7, %xmm7 ## xmm7 = xmm7[0,1],mem[0],xmm7[3]
	vinsertps	$48, 40(%r12,%r15,4), %xmm7, %xmm7 ## xmm7 = xmm7[0,1,2],mem[0]
	vinsertf128	$1, %xmm2, %ymm7, %ymm2
	vinsertps	$32, 48(%r12,%rdi,4), %xmm5, %xmm5 ## xmm5 = xmm5[0,1],mem[0],xmm5[3]
	vmovss	44(%r12,%rax,4), %xmm7          ## xmm7 = mem[0],zero,zero,zero
	vinsertps	$16, 44(%r12,%rcx,4), %xmm7, %xmm7 ## xmm7 = xmm7[0],mem[0],xmm7[2,3]
	movq	896(%rsp), %rax                 ## 8-byte Reload
	vmovups	32(%r14,%rax,4), %ymm9
	vmovaps	%ymm14, %ymm4
	vmulps	%ymm9, %ymm14, %ymm14
	vfmadd231ps	%ymm14, %ymm2, %ymm8    ## ymm8 = (ymm2 * ymm14) + ymm8
	vinsertps	$32, 44(%r12,%rdx,4), %xmm7, %xmm2 ## xmm2 = xmm7[0,1],mem[0],xmm7[3]
	vmovss	44(%r12,%r13,4), %xmm7          ## xmm7 = mem[0],zero,zero,zero
	vinsertps	$16, 44(%r12,%r9,4), %xmm7, %xmm7 ## xmm7 = xmm7[0],mem[0],xmm7[2,3]
	vinsertps	$48, 44(%r12,%r8,4), %xmm2, %xmm2 ## xmm2 = xmm2[0,1,2],mem[0]
	vinsertps	$32, 44(%r12,%rdi,4), %xmm7, %xmm7 ## xmm7 = xmm7[0,1],mem[0],xmm7[3]
	vinsertps	$48, 44(%r12,%r15,4), %xmm7, %xmm7 ## xmm7 = xmm7[0,1,2],mem[0]
	vinsertf128	$1, %xmm2, %ymm7, %ymm2
	vmulps	%ymm9, %ymm11, %ymm7
	vinsertps	$48, 48(%r12,%r8,4), %xmm3, %xmm3 ## xmm3 = xmm3[0,1,2],mem[0]
	vfmadd231ps	%ymm7, %ymm2, %ymm8     ## ymm8 = (ymm2 * ymm7) + ymm8
	vinsertps	$48, 48(%r12,%r15,4), %xmm5, %xmm2 ## xmm2 = xmm5[0,1,2],mem[0]
	movq	%r15, %r13
	vinsertf128	$1, %xmm3, %ymm2, %ymm2
	movq	224(%rsp), %rdx                 ## 8-byte Reload
	vmovss	20(%r12,%rdx,4), %xmm3          ## xmm3 = mem[0],zero,zero,zero
	movq	56(%rsp), %r8                   ## 8-byte Reload
	vinsertps	$16, 20(%r12,%r8,4), %xmm3, %xmm3 ## xmm3 = xmm3[0],mem[0],xmm3[2,3]
	movq	912(%rsp), %rax                 ## 8-byte Reload
	vmovups	32(%r14,%rax,4), %ymm5
	vmulps	%ymm5, %ymm4, %ymm7
	movq	72(%rsp), %r11                  ## 8-byte Reload
	vinsertps	$32, 20(%r12,%r11,4), %xmm3, %xmm3 ## xmm3 = xmm3[0,1],mem[0],xmm3[3]
	movq	48(%rsp), %rax                  ## 8-byte Reload
	vmovss	20(%r12,%rax,4), %xmm6          ## xmm6 = mem[0],zero,zero,zero
	movq	480(%rsp), %r15                 ## 8-byte Reload
	vinsertps	$16, 20(%r12,%r15,4), %xmm6, %xmm6 ## xmm6 = xmm6[0],mem[0],xmm6[2,3]
	movq	432(%rsp), %rcx                 ## 8-byte Reload
	vinsertps	$48, 20(%r12,%rcx,4), %xmm3, %xmm3 ## xmm3 = xmm3[0,1,2],mem[0]
	vfmadd231ps	%ymm7, %ymm2, %ymm8     ## ymm8 = (ymm2 * ymm7) + ymm8
	movq	64(%rsp), %r10                  ## 8-byte Reload
	vinsertps	$32, 20(%r12,%r10,4), %xmm6, %xmm2 ## xmm2 = xmm6[0,1],mem[0],xmm6[3]
	vmovss	24(%r12,%rdx,4), %xmm6          ## xmm6 = mem[0],zero,zero,zero
	movq	%rdx, %rsi
	vinsertps	$16, 24(%r12,%r8,4), %xmm6, %xmm6 ## xmm6 = xmm6[0],mem[0],xmm6[2,3]
	movq	416(%rsp), %r9                  ## 8-byte Reload
	vinsertps	$48, 20(%r12,%r9,4), %xmm2, %xmm2 ## xmm2 = xmm2[0,1,2],mem[0]
	vinsertf128	$1, %xmm3, %ymm2, %ymm2
	vinsertps	$32, 24(%r12,%r11,4), %xmm6, %xmm3 ## xmm3 = xmm6[0,1],mem[0],xmm6[3]
	vmovss	24(%r12,%rax,4), %xmm6          ## xmm6 = mem[0],zero,zero,zero
	vinsertps	$16, 24(%r12,%r15,4), %xmm6, %xmm6 ## xmm6 = xmm6[0],mem[0],xmm6[2,3]
	vinsertps	$48, 24(%r12,%rcx,4), %xmm3, %xmm3 ## xmm3 = xmm3[0,1,2],mem[0]
	vinsertps	$32, 24(%r12,%r10,4), %xmm6, %xmm6 ## xmm6 = xmm6[0,1],mem[0],xmm6[3]
	vinsertps	$48, 24(%r12,%r9,4), %xmm6, %xmm6 ## xmm6 = xmm6[0,1,2],mem[0]
	vinsertf128	$1, %xmm3, %ymm6, %ymm3
	vmovaps	1600(%rsp), %ymm0               ## 32-byte Reload
	movq	816(%rsp), %rdx                 ## 8-byte Reload
	vmulps	64(%r14,%rdx,4), %ymm0, %ymm6
	vmulps	%ymm6, %ymm3, %ymm9
	vmovss	32(%r12,%rsi,4), %xmm3          ## xmm3 = mem[0],zero,zero,zero
	vinsertps	$16, 32(%r12,%r8,4), %xmm3, %xmm3 ## xmm3 = xmm3[0],mem[0],xmm3[2,3]
	vmovss	28(%r12,%rsi,4), %xmm6          ## xmm6 = mem[0],zero,zero,zero
	vinsertps	$16, 28(%r12,%r8,4), %xmm6, %xmm6 ## xmm6 = xmm6[0],mem[0],xmm6[2,3]
	movq	832(%rsp), %rbx                 ## 8-byte Reload
	vmulps	64(%r14,%rbx,4), %ymm0, %ymm7
	vfmadd231ps	%ymm7, %ymm2, %ymm9     ## ymm9 = (ymm2 * ymm7) + ymm9
	movq	%r11, %rbx
	vinsertps	$32, 28(%r12,%r11,4), %xmm6, %xmm2 ## xmm2 = xmm6[0,1],mem[0],xmm6[3]
	vmovss	28(%r12,%rax,4), %xmm6          ## xmm6 = mem[0],zero,zero,zero
	vinsertps	$16, 28(%r12,%r15,4), %xmm6, %xmm6 ## xmm6 = xmm6[0],mem[0],xmm6[2,3]
	vinsertps	$48, 28(%r12,%rcx,4), %xmm2, %xmm2 ## xmm2 = xmm2[0,1,2],mem[0]
	vinsertps	$32, 28(%r12,%r10,4), %xmm6, %xmm6 ## xmm6 = xmm6[0,1],mem[0],xmm6[3]
	vinsertps	$48, 28(%r12,%r9,4), %xmm6, %xmm6 ## xmm6 = xmm6[0,1,2],mem[0]
	vinsertf128	$1, %xmm2, %ymm6, %ymm2
	vinsertps	$32, 32(%r12,%r11,4), %xmm3, %xmm3 ## xmm3 = xmm3[0,1],mem[0],xmm3[3]
	vmovss	32(%r12,%rax,4), %xmm6          ## xmm6 = mem[0],zero,zero,zero
	vinsertps	$16, 32(%r12,%r15,4), %xmm6, %xmm6 ## xmm6 = xmm6[0],mem[0],xmm6[2,3]
	vinsertps	$48, 32(%r12,%rcx,4), %xmm3, %xmm3 ## xmm3 = xmm3[0,1,2],mem[0]
	vinsertps	$32, 32(%r12,%r10,4), %xmm6, %xmm6 ## xmm6 = xmm6[0,1],mem[0],xmm6[3]
	vmovaps	2080(%rsp), %ymm1               ## 32-byte Reload
	movq	848(%rsp), %r11                 ## 8-byte Reload
	vmulps	64(%r14,%r11,4), %ymm1, %ymm7
	vfmadd231ps	%ymm7, %ymm2, %ymm9     ## ymm9 = (ymm2 * ymm7) + ymm9
	vinsertps	$48, 32(%r12,%r9,4), %xmm6, %xmm2 ## xmm2 = xmm6[0,1,2],mem[0]
	vinsertf128	$1, %xmm3, %ymm2, %ymm2
	movq	352(%rsp), %rdx                 ## 8-byte Reload
	vmovss	52(%r12,%rdx,4), %xmm3          ## xmm3 = mem[0],zero,zero,zero
	movq	544(%rsp), %rdx                 ## 8-byte Reload
	vinsertps	$16, 52(%r12,%rdx,4), %xmm3, %xmm3 ## xmm3 = xmm3[0],mem[0],xmm3[2,3]
	movq	32(%rsp), %rdx                  ## 8-byte Reload
	vmovss	52(%r12,%rdx,4), %xmm6          ## xmm6 = mem[0],zero,zero,zero
	movq	256(%rsp), %rdx                 ## 8-byte Reload
	vinsertps	$16, 52(%r12,%rdx,4), %xmm6, %xmm6 ## xmm6 = xmm6[0],mem[0],xmm6[2,3]
	movq	336(%rsp), %rdx                 ## 8-byte Reload
	vinsertps	$32, 52(%r12,%rdx,4), %xmm3, %xmm3 ## xmm3 = xmm3[0,1],mem[0],xmm3[3]
	vinsertps	$32, 52(%r12,%rdi,4), %xmm6, %xmm6 ## xmm6 = xmm6[0,1],mem[0],xmm6[3]
	movq	240(%rsp), %rdx                 ## 8-byte Reload
	vinsertps	$48, 52(%r12,%rdx,4), %xmm3, %xmm3 ## xmm3 = xmm3[0,1,2],mem[0]
	vinsertps	$48, 52(%r12,%r13,4), %xmm6, %xmm6 ## xmm6 = xmm6[0,1,2],mem[0]
	vmovaps	1632(%rsp), %ymm4               ## 32-byte Reload
	movq	880(%rsp), %rdi                 ## 8-byte Reload
	vmulps	64(%r14,%rdi,4), %ymm4, %ymm7
	vfmadd231ps	%ymm7, %ymm2, %ymm9     ## ymm9 = (ymm2 * ymm7) + ymm9
	vinsertf128	$1, %xmm3, %ymm6, %ymm2
	vmulps	%ymm5, %ymm11, %ymm3
	vfmadd231ps	%ymm3, %ymm2, %ymm8     ## ymm8 = (ymm2 * ymm3) + ymm8
	vmovss	36(%r12,%rsi,4), %xmm2          ## xmm2 = mem[0],zero,zero,zero
	vinsertps	$16, 36(%r12,%r8,4), %xmm2, %xmm2 ## xmm2 = xmm2[0],mem[0],xmm2[2,3]
	vmovss	36(%r12,%rax,4), %xmm3          ## xmm3 = mem[0],zero,zero,zero
	vinsertps	$16, 36(%r12,%r15,4), %xmm3, %xmm3 ## xmm3 = xmm3[0],mem[0],xmm3[2,3]
	vinsertps	$32, 36(%r12,%rbx,4), %xmm2, %xmm2 ## xmm2 = xmm2[0,1],mem[0],xmm2[3]
	vinsertps	$32, 36(%r12,%r10,4), %xmm3, %xmm3 ## xmm3 = xmm3[0,1],mem[0],xmm3[3]
	vinsertps	$48, 36(%r12,%rcx,4), %xmm2, %xmm2 ## xmm2 = xmm2[0,1,2],mem[0]
	vinsertps	$48, 36(%r12,%r9,4), %xmm3, %xmm3 ## xmm3 = xmm3[0,1,2],mem[0]
	vinsertf128	$1, %xmm2, %ymm3, %ymm2
	vmovss	48(%r12,%rsi,4), %xmm3          ## xmm3 = mem[0],zero,zero,zero
	vinsertps	$16, 48(%r12,%r8,4), %xmm3, %xmm3 ## xmm3 = xmm3[0],mem[0],xmm3[2,3]
	vinsertps	$32, 48(%r12,%rbx,4), %xmm3, %xmm3 ## xmm3 = xmm3[0,1],mem[0],xmm3[3]
	vmovss	48(%r12,%rax,4), %xmm5          ## xmm5 = mem[0],zero,zero,zero
	vinsertps	$16, 48(%r12,%r15,4), %xmm5, %xmm5 ## xmm5 = xmm5[0],mem[0],xmm5[2,3]
	vmovss	40(%r12,%rsi,4), %xmm6          ## xmm6 = mem[0],zero,zero,zero
	vinsertps	$16, 40(%r12,%r8,4), %xmm6, %xmm6 ## xmm6 = xmm6[0],mem[0],xmm6[2,3]
	movq	864(%rsp), %rdx                 ## 8-byte Reload
	vmulps	64(%r14,%rdx,4), %ymm1, %ymm7
	vfmadd231ps	%ymm7, %ymm2, %ymm9     ## ymm9 = (ymm2 * ymm7) + ymm9
	vinsertps	$32, 40(%r12,%rbx,4), %xmm6, %xmm2 ## xmm2 = xmm6[0,1],mem[0],xmm6[3]
	vmovss	40(%r12,%rax,4), %xmm6          ## xmm6 = mem[0],zero,zero,zero
	vinsertps	$16, 40(%r12,%r15,4), %xmm6, %xmm6 ## xmm6 = xmm6[0],mem[0],xmm6[2,3]
	vinsertps	$48, 40(%r12,%rcx,4), %xmm2, %xmm2 ## xmm2 = xmm2[0,1,2],mem[0]
	vinsertps	$32, 40(%r12,%r10,4), %xmm6, %xmm6 ## xmm6 = xmm6[0,1],mem[0],xmm6[3]
	vinsertps	$48, 40(%r12,%r9,4), %xmm6, %xmm6 ## xmm6 = xmm6[0,1,2],mem[0]
	vinsertf128	$1, %xmm2, %ymm6, %ymm2
	vinsertps	$32, 48(%r12,%r10,4), %xmm5, %xmm5 ## xmm5 = xmm5[0,1],mem[0],xmm5[3]
	vmovss	44(%r12,%rsi,4), %xmm6          ## xmm6 = mem[0],zero,zero,zero
	vinsertps	$16, 44(%r12,%r8,4), %xmm6, %xmm6 ## xmm6 = xmm6[0],mem[0],xmm6[2,3]
	movq	896(%rsp), %rdx                 ## 8-byte Reload
	vmovups	64(%r14,%rdx,4), %ymm7
	vmulps	%ymm7, %ymm4, %ymm14
	vfmadd231ps	%ymm14, %ymm2, %ymm9    ## ymm9 = (ymm2 * ymm14) + ymm9
	vinsertps	$32, 44(%r12,%rbx,4), %xmm6, %xmm2 ## xmm2 = xmm6[0,1],mem[0],xmm6[3]
	vmovss	44(%r12,%rax,4), %xmm6          ## xmm6 = mem[0],zero,zero,zero
	vinsertps	$16, 44(%r12,%r15,4), %xmm6, %xmm6 ## xmm6 = xmm6[0],mem[0],xmm6[2,3]
	movq	%r15, %r13
	vinsertps	$48, 44(%r12,%rcx,4), %xmm2, %xmm2 ## xmm2 = xmm2[0,1,2],mem[0]
	vinsertps	$32, 44(%r12,%r10,4), %xmm6, %xmm6 ## xmm6 = xmm6[0,1],mem[0],xmm6[3]
	movq	%r10, %r15
	movq	%r9, %r11
	vinsertps	$48, 44(%r12,%r9,4), %xmm6, %xmm6 ## xmm6 = xmm6[0,1,2],mem[0]
	vinsertf128	$1, %xmm2, %ymm6, %ymm2
	vmulps	%ymm7, %ymm1, %ymm6
	vinsertps	$48, 48(%r12,%rcx,4), %xmm3, %xmm3 ## xmm3 = xmm3[0,1,2],mem[0]
	vfmadd231ps	%ymm6, %ymm2, %ymm9     ## ymm9 = (ymm2 * ymm6) + ymm9
	vinsertps	$48, 48(%r12,%r9,4), %xmm5, %xmm2 ## xmm2 = xmm5[0,1,2],mem[0]
	vinsertf128	$1, %xmm3, %ymm2, %ymm2
	movq	464(%rsp), %r9                  ## 8-byte Reload
	vmovss	20(%r12,%r9,4), %xmm3           ## xmm3 = mem[0],zero,zero,zero
	movq	736(%rsp), %rdx                 ## 8-byte Reload
	vinsertps	$16, 20(%r12,%rdx,4), %xmm3, %xmm3 ## xmm3 = xmm3[0],mem[0],xmm3[2,3]
	movq	912(%rsp), %rax                 ## 8-byte Reload
	vmovups	64(%r14,%rax,4), %ymm5
	vmulps	%ymm5, %ymm4, %ymm6
	movq	448(%rsp), %rax                 ## 8-byte Reload
	vinsertps	$32, 20(%r12,%rax,4), %xmm3, %xmm3 ## xmm3 = xmm3[0,1],mem[0],xmm3[3]
	movq	112(%rsp), %r8                  ## 8-byte Reload
	vmovss	20(%r12,%r8,4), %xmm7           ## xmm7 = mem[0],zero,zero,zero
	movq	1152(%rsp), %rcx                ## 8-byte Reload
	vinsertps	$16, 20(%r12,%rcx,4), %xmm7, %xmm7 ## xmm7 = xmm7[0],mem[0],xmm7[2,3]
	movq	120(%rsp), %rdi                 ## 8-byte Reload
	vinsertps	$48, 20(%r12,%rdi,4), %xmm3, %xmm3 ## xmm3 = xmm3[0,1,2],mem[0]
	vfmadd231ps	%ymm6, %ymm2, %ymm9     ## ymm9 = (ymm2 * ymm6) + ymm9
	movq	104(%rsp), %rbx                 ## 8-byte Reload
	vinsertps	$32, 20(%r12,%rbx,4), %xmm7, %xmm2 ## xmm2 = xmm7[0,1],mem[0],xmm7[3]
	vmovss	24(%r12,%r9,4), %xmm6           ## xmm6 = mem[0],zero,zero,zero
	vinsertps	$16, 24(%r12,%rdx,4), %xmm6, %xmm6 ## xmm6 = xmm6[0],mem[0],xmm6[2,3]
	movq	128(%rsp), %rsi                 ## 8-byte Reload
	vinsertps	$48, 20(%r12,%rsi,4), %xmm2, %xmm2 ## xmm2 = xmm2[0,1,2],mem[0]
	vinsertf128	$1, %xmm3, %ymm2, %ymm2
	vinsertps	$32, 24(%r12,%rax,4), %xmm6, %xmm3 ## xmm3 = xmm6[0,1],mem[0],xmm6[3]
	movq	%rax, %r10
	vmovss	24(%r12,%r8,4), %xmm6           ## xmm6 = mem[0],zero,zero,zero
	vinsertps	$16, 24(%r12,%rcx,4), %xmm6, %xmm6 ## xmm6 = xmm6[0],mem[0],xmm6[2,3]
	movq	%rcx, %rdx
	vinsertps	$48, 24(%r12,%rdi,4), %xmm3, %xmm3 ## xmm3 = xmm3[0,1,2],mem[0]
	vinsertps	$32, 24(%r12,%rbx,4), %xmm6, %xmm6 ## xmm6 = xmm6[0,1],mem[0],xmm6[3]
	vinsertps	$48, 24(%r12,%rsi,4), %xmm6, %xmm6 ## xmm6 = xmm6[0,1,2],mem[0]
	vinsertf128	$1, %xmm3, %ymm6, %ymm3
	movq	816(%rsp), %rax                 ## 8-byte Reload
	vmovaps	1568(%rsp), %ymm0               ## 32-byte Reload
	vmulps	96(%r14,%rax,4), %ymm0, %ymm6
	vmulps	%ymm6, %ymm3, %ymm14
	movq	224(%rsp), %rax                 ## 8-byte Reload
	vmovss	52(%r12,%rax,4), %xmm3          ## xmm3 = mem[0],zero,zero,zero
	movq	56(%rsp), %rax                  ## 8-byte Reload
	vinsertps	$16, 52(%r12,%rax,4), %xmm3, %xmm3 ## xmm3 = xmm3[0],mem[0],xmm3[2,3]
	movq	48(%rsp), %rax                  ## 8-byte Reload
	vmovss	52(%r12,%rax,4), %xmm6          ## xmm6 = mem[0],zero,zero,zero
	vinsertps	$16, 52(%r12,%r13,4), %xmm6, %xmm6 ## xmm6 = xmm6[0],mem[0],xmm6[2,3]
	movq	72(%rsp), %rax                  ## 8-byte Reload
	vinsertps	$32, 52(%r12,%rax,4), %xmm3, %xmm3 ## xmm3 = xmm3[0,1],mem[0],xmm3[3]
	vinsertps	$32, 52(%r12,%r15,4), %xmm6, %xmm6 ## xmm6 = xmm6[0,1],mem[0],xmm6[3]
	movq	432(%rsp), %rax                 ## 8-byte Reload
	vinsertps	$48, 52(%r12,%rax,4), %xmm3, %xmm3 ## xmm3 = xmm3[0,1,2],mem[0]
	vinsertps	$48, 52(%r12,%r11,4), %xmm6, %xmm6 ## xmm6 = xmm6[0,1,2],mem[0]
	movq	832(%rsp), %rax                 ## 8-byte Reload
	vmulps	96(%r14,%rax,4), %ymm0, %ymm7
	vfmadd231ps	%ymm7, %ymm2, %ymm14    ## ymm14 = (ymm2 * ymm7) + ymm14
	vinsertf128	$1, %xmm3, %ymm6, %ymm2
	vmulps	%ymm5, %ymm1, %ymm3
	vfmadd231ps	%ymm3, %ymm2, %ymm9     ## ymm9 = (ymm2 * ymm3) + ymm9
	vmovss	28(%r12,%r9,4), %xmm2           ## xmm2 = mem[0],zero,zero,zero
	movq	736(%rsp), %rcx                 ## 8-byte Reload
	vinsertps	$16, 28(%r12,%rcx,4), %xmm2, %xmm2 ## xmm2 = xmm2[0],mem[0],xmm2[2,3]
	vmovss	28(%r12,%r8,4), %xmm3           ## xmm3 = mem[0],zero,zero,zero
	vinsertps	$16, 28(%r12,%rdx,4), %xmm3, %xmm3 ## xmm3 = xmm3[0],mem[0],xmm3[2,3]
	vinsertps	$32, 28(%r12,%r10,4), %xmm2, %xmm2 ## xmm2 = xmm2[0,1],mem[0],xmm2[3]
	vinsertps	$32, 28(%r12,%rbx,4), %xmm3, %xmm3 ## xmm3 = xmm3[0,1],mem[0],xmm3[3]
	vinsertps	$48, 28(%r12,%rdi,4), %xmm2, %xmm2 ## xmm2 = xmm2[0,1,2],mem[0]
	vinsertps	$48, 28(%r12,%rsi,4), %xmm3, %xmm3 ## xmm3 = xmm3[0,1,2],mem[0]
	vinsertf128	$1, %xmm2, %ymm3, %ymm2
	movq	176(%rsp), %rax                 ## 8-byte Reload
	vmovss	60(%r12,%rax,4), %xmm3          ## xmm3 = mem[0],zero,zero,zero
	movq	160(%rsp), %rax                 ## 8-byte Reload
	vinsertps	$16, 60(%r12,%rax,4), %xmm3, %xmm3 ## xmm3 = xmm3[0],mem[0],xmm3[2,3]
	movq	848(%rsp), %rax                 ## 8-byte Reload
	vmulps	96(%r14,%rax,4), %ymm12, %ymm5
	vfmadd231ps	%ymm5, %ymm2, %ymm14    ## ymm14 = (ymm2 * ymm5) + ymm14
	movq	320(%rsp), %rax                 ## 8-byte Reload
	vinsertps	$32, 60(%r12,%rax,4), %xmm3, %xmm2 ## xmm2 = xmm3[0,1],mem[0],xmm3[3]
	movq	288(%rsp), %rax                 ## 8-byte Reload
	vmovss	60(%r12,%rax,4), %xmm3          ## xmm3 = mem[0],zero,zero,zero
	movq	144(%rsp), %rax                 ## 8-byte Reload
	vinsertps	$16, 60(%r12,%rax,4), %xmm3, %xmm3 ## xmm3 = xmm3[0],mem[0],xmm3[2,3]
	movq	384(%rsp), %rax                 ## 8-byte Reload
	vinsertps	$48, 60(%r12,%rax,4), %xmm2, %xmm2 ## xmm2 = xmm2[0,1,2],mem[0]
	movq	400(%rsp), %rax                 ## 8-byte Reload
	vinsertps	$32, 60(%r12,%rax,4), %xmm3, %xmm3 ## xmm3 = xmm3[0,1],mem[0],xmm3[3]
	movq	40(%rsp), %rax                  ## 8-byte Reload
	vinsertps	$48, 60(%r12,%rax,4), %xmm3, %xmm3 ## xmm3 = xmm3[0,1,2],mem[0]
	vinsertf128	$1, %xmm2, %ymm3, %ymm2
	movq	536(%rsp), %rax                 ## 8-byte Reload
	vmulps	(%r14,%rax,4), %ymm15, %ymm3
	vfmadd231ps	%ymm3, %ymm2, %ymm10    ## ymm10 = (ymm2 * ymm3) + ymm10
	vmovaps	2432(%rsp), %ymm1               ## 32-byte Reload
	vmovaps	1920(%rsp), %ymm0               ## 32-byte Reload
	vmaxps	%ymm1, %ymm0, %ymm4
	vmovaps	2976(%rsp), %ymm12              ## 32-byte Reload
	vdivps	%ymm12, %ymm15, %ymm5
	vdivps	%ymm12, %ymm4, %ymm6
	vroundps	$10, %ymm5, %ymm3
	vmulps	2656(%rsp), %ymm3, %ymm7        ## 32-byte Folded Reload
	vroundps	$10, %ymm6, %ymm3
	vmulps	2528(%rsp), %ymm3, %ymm3        ## 32-byte Folded Reload
	vmovaps	2336(%rsp), %ymm0               ## 32-byte Reload
	vmaxps	%ymm1, %ymm0, %ymm11
	vmovaps	2400(%rsp), %ymm0               ## 32-byte Reload
	vmaxps	%ymm1, %ymm0, %ymm2
	vmovaps	%ymm2, 1632(%rsp)               ## 32-byte Spill
	vdivps	%ymm12, %ymm11, %ymm0
	vdivps	%ymm12, %ymm2, %ymm2
	vroundps	$10, %ymm0, %ymm15
	vmulps	2624(%rsp), %ymm15, %ymm15      ## 32-byte Folded Reload
	vroundps	$10, %ymm2, %ymm12
	vmulps	2560(%rsp), %ymm12, %ymm12      ## 32-byte Folded Reload
	vmaxps	%ymm1, %ymm5, %ymm5
	vdivps	%ymm5, %ymm7, %ymm5
	vmaxps	%ymm1, %ymm6, %ymm6
	vdivps	%ymm6, %ymm3, %ymm3
	vmaxps	%ymm1, %ymm0, %ymm0
	vdivps	%ymm0, %ymm15, %ymm0
	vmaxps	%ymm1, %ymm2, %ymm1
	vdivps	%ymm1, %ymm12, %ymm1
	vbroadcastss	LCPI0_64(%rip), %ymm6   ## ymm6 = [2.0E+0,2.0E+0,2.0E+0,2.0E+0,2.0E+0,2.0E+0,2.0E+0,2.0E+0]
	vmovaps	2368(%rsp), %ymm15              ## 32-byte Reload
	vfmadd213ps	%ymm5, %ymm6, %ymm15    ## ymm15 = (ymm6 * ymm15) + ymm5
	vmovaps	1696(%rsp), %ymm2               ## 32-byte Reload
	vfmadd213ps	%ymm3, %ymm6, %ymm2     ## ymm2 = (ymm6 * ymm2) + ymm3
	vmovaps	%ymm2, 1696(%rsp)               ## 32-byte Spill
	vmovaps	1344(%rsp), %ymm2               ## 32-byte Reload
	vfmadd213ps	%ymm0, %ymm6, %ymm2     ## ymm2 = (ymm6 * ymm2) + ymm0
	vmovaps	%ymm2, 1344(%rsp)               ## 32-byte Spill
	vfmadd213ps	%ymm1, %ymm6, %ymm13    ## ymm13 = (ymm6 * ymm13) + ymm1
	vmovss	32(%r12,%r9,4), %xmm0           ## xmm0 = mem[0],zero,zero,zero
	vinsertps	$16, 32(%r12,%rcx,4), %xmm0, %xmm0 ## xmm0 = xmm0[0],mem[0],xmm0[2,3]
	movq	%rcx, %r13
	vmovss	32(%r12,%r8,4), %xmm1           ## xmm1 = mem[0],zero,zero,zero
	vinsertps	$16, 32(%r12,%rdx,4), %xmm1, %xmm1 ## xmm1 = xmm1[0],mem[0],xmm1[2,3]
	vinsertps	$32, 32(%r12,%r10,4), %xmm0, %xmm0 ## xmm0 = xmm0[0,1],mem[0],xmm0[3]
	vinsertps	$32, 32(%r12,%rbx,4), %xmm1, %xmm1 ## xmm1 = xmm1[0,1],mem[0],xmm1[3]
	vinsertps	$48, 32(%r12,%rdi,4), %xmm0, %xmm0 ## xmm0 = xmm0[0,1,2],mem[0]
	vinsertps	$48, 32(%r12,%rsi,4), %xmm1, %xmm1 ## xmm1 = xmm1[0,1,2],mem[0]
	vinsertf128	$1, %xmm0, %ymm1, %ymm0
	movq	352(%rsp), %rax                 ## 8-byte Reload
	vmovss	56(%r12,%rax,4), %xmm1          ## xmm1 = mem[0],zero,zero,zero
	movq	544(%rsp), %rax                 ## 8-byte Reload
	vinsertps	$16, 56(%r12,%rax,4), %xmm1, %xmm1 ## xmm1 = xmm1[0],mem[0],xmm1[2,3]
	vmovaps	1664(%rsp), %ymm7               ## 32-byte Reload
	movq	880(%rsp), %rax                 ## 8-byte Reload
	vmulps	96(%r14,%rax,4), %ymm7, %ymm3
	vfmadd231ps	%ymm3, %ymm0, %ymm14    ## ymm14 = (ymm0 * ymm3) + ymm14
	movq	336(%rsp), %r15                 ## 8-byte Reload
	vinsertps	$32, 56(%r12,%r15,4), %xmm1, %xmm0 ## xmm0 = xmm1[0,1],mem[0],xmm1[3]
	movq	32(%rsp), %r11                  ## 8-byte Reload
	vmovss	56(%r12,%r11,4), %xmm1          ## xmm1 = mem[0],zero,zero,zero
	movq	256(%rsp), %rax                 ## 8-byte Reload
	vinsertps	$16, 56(%r12,%rax,4), %xmm1, %xmm1 ## xmm1 = xmm1[0],mem[0],xmm1[2,3]
	movq	240(%rsp), %rax                 ## 8-byte Reload
	vinsertps	$48, 56(%r12,%rax,4), %xmm0, %xmm0 ## xmm0 = xmm0[0,1,2],mem[0]
	movq	304(%rsp), %rax                 ## 8-byte Reload
	vinsertps	$32, 56(%r12,%rax,4), %xmm1, %xmm1 ## xmm1 = xmm1[0,1],mem[0],xmm1[3]
	movq	80(%rsp), %rax                  ## 8-byte Reload
	vinsertps	$48, 56(%r12,%rax,4), %xmm1, %xmm1 ## xmm1 = xmm1[0,1,2],mem[0]
	vinsertf128	$1, %xmm0, %ymm1, %ymm0
	movq	208(%rsp), %rcx                 ## 8-byte Reload
	vmulps	32(%r14,%rcx,4), %ymm4, %ymm1
	vfmadd231ps	%ymm1, %ymm0, %ymm8     ## ymm8 = (ymm0 * ymm1) + ymm8
	vmovss	36(%r12,%r9,4), %xmm0           ## xmm0 = mem[0],zero,zero,zero
	movq	%r13, %rax
	vinsertps	$16, 36(%r12,%r13,4), %xmm0, %xmm0 ## xmm0 = xmm0[0],mem[0],xmm0[2,3]
	vmovss	36(%r12,%r8,4), %xmm1           ## xmm1 = mem[0],zero,zero,zero
	vinsertps	$16, 36(%r12,%rdx,4), %xmm1, %xmm1 ## xmm1 = xmm1[0],mem[0],xmm1[2,3]
	vinsertps	$32, 36(%r12,%r10,4), %xmm0, %xmm0 ## xmm0 = xmm0[0,1],mem[0],xmm0[3]
	vinsertps	$32, 36(%r12,%rbx,4), %xmm1, %xmm1 ## xmm1 = xmm1[0,1],mem[0],xmm1[3]
	vinsertps	$48, 36(%r12,%rdi,4), %xmm0, %xmm0 ## xmm0 = xmm0[0,1,2],mem[0]
	vinsertps	$48, 36(%r12,%rsi,4), %xmm1, %xmm1 ## xmm1 = xmm1[0,1,2],mem[0]
	vinsertf128	$1, %xmm0, %ymm1, %ymm0
	movq	224(%rsp), %r13                 ## 8-byte Reload
	vmovss	56(%r12,%r13,4), %xmm1          ## xmm1 = mem[0],zero,zero,zero
	movq	56(%rsp), %rdx                  ## 8-byte Reload
	vinsertps	$16, 56(%r12,%rdx,4), %xmm1, %xmm1 ## xmm1 = xmm1[0],mem[0],xmm1[2,3]
	vmovaps	2112(%rsp), %ymm6               ## 32-byte Reload
	movq	864(%rsp), %rdx                 ## 8-byte Reload
	vmulps	96(%r14,%rdx,4), %ymm6, %ymm3
	vfmadd231ps	%ymm3, %ymm0, %ymm14    ## ymm14 = (ymm0 * ymm3) + ymm14
	movq	72(%rsp), %rdx                  ## 8-byte Reload
	vinsertps	$32, 56(%r12,%rdx,4), %xmm1, %xmm0 ## xmm0 = xmm1[0,1],mem[0],xmm1[3]
	movq	48(%rsp), %rdx                  ## 8-byte Reload
	vmovss	56(%r12,%rdx,4), %xmm1          ## xmm1 = mem[0],zero,zero,zero
	movq	480(%rsp), %rdx                 ## 8-byte Reload
	vinsertps	$16, 56(%r12,%rdx,4), %xmm1, %xmm1 ## xmm1 = xmm1[0],mem[0],xmm1[2,3]
	movq	432(%rsp), %rdx                 ## 8-byte Reload
	vinsertps	$48, 56(%r12,%rdx,4), %xmm0, %xmm0 ## xmm0 = xmm0[0,1,2],mem[0]
	movq	64(%rsp), %rdx                  ## 8-byte Reload
	vinsertps	$32, 56(%r12,%rdx,4), %xmm1, %xmm1 ## xmm1 = xmm1[0,1],mem[0],xmm1[3]
	movq	416(%rsp), %rdx                 ## 8-byte Reload
	vinsertps	$48, 56(%r12,%rdx,4), %xmm1, %xmm1 ## xmm1 = xmm1[0,1,2],mem[0]
	vinsertf128	$1, %xmm0, %ymm1, %ymm0
	vmulps	64(%r14,%rcx,4), %ymm11, %ymm1
	vfmadd231ps	%ymm1, %ymm0, %ymm9     ## ymm9 = (ymm0 * ymm1) + ymm9
	vmovss	40(%r12,%r9,4), %xmm0           ## xmm0 = mem[0],zero,zero,zero
	vinsertps	$16, 40(%r12,%rax,4), %xmm0, %xmm0 ## xmm0 = xmm0[0],mem[0],xmm0[2,3]
	vmovss	40(%r12,%r8,4), %xmm1           ## xmm1 = mem[0],zero,zero,zero
	movq	1152(%rsp), %rcx                ## 8-byte Reload
	vinsertps	$16, 40(%r12,%rcx,4), %xmm1, %xmm1 ## xmm1 = xmm1[0],mem[0],xmm1[2,3]
	vinsertps	$32, 40(%r12,%r10,4), %xmm0, %xmm0 ## xmm0 = xmm0[0,1],mem[0],xmm0[3]
	vinsertps	$32, 40(%r12,%rbx,4), %xmm1, %xmm1 ## xmm1 = xmm1[0,1],mem[0],xmm1[3]
	vinsertps	$48, 40(%r12,%rdi,4), %xmm0, %xmm0 ## xmm0 = xmm0[0,1,2],mem[0]
	vinsertps	$48, 40(%r12,%rsi,4), %xmm1, %xmm1 ## xmm1 = xmm1[0,1,2],mem[0]
	vinsertf128	$1, %xmm0, %ymm1, %ymm0
	vmovss	44(%r12,%r9,4), %xmm1           ## xmm1 = mem[0],zero,zero,zero
	vinsertps	$16, 44(%r12,%rax,4), %xmm1, %xmm1 ## xmm1 = xmm1[0],mem[0],xmm1[2,3]
	movq	896(%rsp), %rdx                 ## 8-byte Reload
	vmovups	96(%r14,%rdx,4), %ymm3
	vmulps	%ymm3, %ymm7, %ymm5
	vmovaps	%ymm7, %ymm12
	vfmadd231ps	%ymm5, %ymm0, %ymm14    ## ymm14 = (ymm0 * ymm5) + ymm14
	vinsertps	$32, 44(%r12,%r10,4), %xmm1, %xmm0 ## xmm0 = xmm1[0,1],mem[0],xmm1[3]
	vmovss	44(%r12,%r8,4), %xmm1           ## xmm1 = mem[0],zero,zero,zero
	vinsertps	$16, 44(%r12,%rcx,4), %xmm1, %xmm1 ## xmm1 = xmm1[0],mem[0],xmm1[2,3]
	vinsertps	$48, 44(%r12,%rdi,4), %xmm0, %xmm0 ## xmm0 = xmm0[0,1,2],mem[0]
	vinsertps	$32, 44(%r12,%rbx,4), %xmm1, %xmm1 ## xmm1 = xmm1[0,1],mem[0],xmm1[3]
	vinsertps	$48, 44(%r12,%rsi,4), %xmm1, %xmm1 ## xmm1 = xmm1[0,1,2],mem[0]
	vinsertf128	$1, %xmm0, %ymm1, %ymm0
	vmovss	52(%r12,%r9,4), %xmm1           ## xmm1 = mem[0],zero,zero,zero
	vinsertps	$16, 52(%r12,%rax,4), %xmm1, %xmm1 ## xmm1 = xmm1[0],mem[0],xmm1[2,3]
	vmulps	%ymm3, %ymm6, %ymm3
	vmovaps	%ymm6, %ymm7
	vmovss	48(%r12,%r9,4), %xmm5           ## xmm5 = mem[0],zero,zero,zero
	vinsertps	$16, 48(%r12,%rax,4), %xmm5, %xmm5 ## xmm5 = xmm5[0],mem[0],xmm5[2,3]
	vfmadd231ps	%ymm3, %ymm0, %ymm14    ## ymm14 = (ymm0 * ymm3) + ymm14
	vinsertps	$32, 48(%r12,%r10,4), %xmm5, %xmm0 ## xmm0 = xmm5[0,1],mem[0],xmm5[3]
	vmovss	48(%r12,%r8,4), %xmm3           ## xmm3 = mem[0],zero,zero,zero
	vinsertps	$16, 48(%r12,%rcx,4), %xmm3, %xmm3 ## xmm3 = xmm3[0],mem[0],xmm3[2,3]
