	.section	__TEXT,__text,regular,pure_instructions
	.section	__TEXT,__literal16,16byte_literals
	.p2align	4                               ## -- Begin function train_cost_model
LCPI0_0:
	.quad	-9223372036854775808            ## 0x8000000000000000
	.quad	0                               ## 0x0
LCPI0_5:
	.long	0                               ## 0x0
	.long	32                              ## 0x20
	.long	1                               ## 0x1
	.long	0                               ## 0x0
LCPI0_7:
	.long	0                               ## 0x0
	.long	8                               ## 0x8
	.long	1                               ## 0x1
	.long	0                               ## 0x0
LCPI0_8:
	.long	0                               ## 0x0
	.long	40                              ## 0x28
	.long	8                               ## 0x8
	.long	0                               ## 0x0
LCPI0_9:
	.long	0                               ## 0x0
	.long	7                               ## 0x7
	.long	320                             ## 0x140
	.long	0                               ## 0x0
LCPI0_10:
	.long	0                               ## 0x0
	.long	24                              ## 0x18
	.long	1                               ## 0x1
	.long	0                               ## 0x0
LCPI0_12:
	.long	0                               ## 0x0
	.long	40                              ## 0x28
	.long	1                               ## 0x1
	.long	0                               ## 0x0
LCPI0_13:
	.long	0                               ## 0x0
	.long	7                               ## 0x7
	.long	40                              ## 0x28
	.long	0                               ## 0x0
LCPI0_15:
	.long	0                               ## 0x0
	.long	32                              ## 0x20
	.long	32                              ## 0x20
	.long	0                               ## 0x0
LCPI0_16:
	.long	0                               ## 0x0
	.long	4                               ## 0x4
	.long	1024                            ## 0x400
	.long	0                               ## 0x0
LCPI0_21:
	.long	0                               ## 0x0
	.long	39                              ## 0x27
	.long	24                              ## 0x18
	.long	0                               ## 0x0
LCPI0_22:
	.long	0                               ## 0x0
	.long	4                               ## 0x4
	.long	936                             ## 0x3a8
	.long	0                               ## 0x0
LCPI0_25:
	.long	32768                           ## 0x8000
	.long	0                               ## 0x0
	.long	0                               ## 0x0
	.long	0                               ## 0x0
LCPI0_35:
	.quad	4503599627370496                ## 0x10000000000000
	.quad	0                               ## 0x0
LCPI0_43:
	.long	1                               ## 0x1
	.long	0                               ## 0x0
	.long	24                              ## 0x18
	.long	1                               ## 0x1
LCPI0_67:
	.quad	2                               ## 0x2
	.quad	5                               ## 0x5
LCPI0_68:
	.quad	-9223372036854775808            ## 0x8000000000000000
	.quad	-9223372036854775808            ## 0x8000000000000000
LCPI0_69:
	.quad	-9223372034707292161            ## 0x800000007fffffff
	.quad	-9223372034707292161            ## 0x800000007fffffff
	.section	__TEXT,__const
	.p2align	5
LCPI0_1:
	.quad	-9223372036854775296            ## 0x8000000000000200
	.quad	128                             ## 0x80
	.quad	8192                            ## 0x2000
	.quad	16384                           ## 0x4000
LCPI0_2:
	.quad	64                              ## 0x40
	.quad	4                               ## 0x4
	.quad	8                               ## 0x8
	.quad	2                               ## 0x2
LCPI0_3:
	.quad	16                              ## 0x10
	.quad	32                              ## 0x20
	.quad	256                             ## 0x100
	.quad	1024                            ## 0x400
LCPI0_4:
	.quad	2048                            ## 0x800
	.quad	4096                            ## 0x1000
	.quad	32768                           ## 0x8000
	.quad	65536                           ## 0x10000
LCPI0_6:
	.long	0                               ## 0x0
	.long	32                              ## 0x20
	.long	1                               ## 0x1
	.long	0                               ## 0x0
	.long	0                               ## 0x0
	.long	32                              ## 0x20
	.long	32                              ## 0x20
	.long	0                               ## 0x0
LCPI0_11:
	.long	0                               ## 0x0
	.long	24                              ## 0x18
	.long	1                               ## 0x1
	.long	0                               ## 0x0
	.long	0                               ## 0x0
	.long	39                              ## 0x27
	.long	24                              ## 0x18
	.long	0                               ## 0x0
LCPI0_14:
	.long	0                               ## 0x0
	.long	32                              ## 0x20
	.long	1                               ## 0x1
	.long	0                               ## 0x0
	.long	0                               ## 0x0
	.long	4                               ## 0x4
	.long	32                              ## 0x20
	.long	0                               ## 0x0
LCPI0_17:
	.long	0                               ## 0x0
	.long	8                               ## 0x8
	.long	1                               ## 0x1
	.long	0                               ## 0x0
	.long	0                               ## 0x0
	.long	4                               ## 0x4
	.long	8                               ## 0x8
	.long	0                               ## 0x0
LCPI0_18:
	.long	0                               ## 0x0
	.long	8                               ## 0x8
	.long	1                               ## 0x1
	.long	0                               ## 0x0
	.long	0                               ## 0x0
	.long	40                              ## 0x28
	.long	8                               ## 0x8
	.long	0                               ## 0x0
LCPI0_19:
	.long	0                               ## 0x0
	.long	7                               ## 0x7
	.long	320                             ## 0x140
	.long	0                               ## 0x0
	.long	0                               ## 0x0
	.long	4                               ## 0x4
	.long	2240                            ## 0x8c0
	.long	0                               ## 0x0
LCPI0_20:
	.long	0                               ## 0x0
	.long	24                              ## 0x18
	.long	1                               ## 0x1
	.long	0                               ## 0x0
	.long	0                               ## 0x0
	.long	4                               ## 0x4
	.long	24                              ## 0x18
	.long	0                               ## 0x0
LCPI0_23:
	.quad	0                               ## 0x0
	.quad	0                               ## 0x0
	.quad	4398046511104                   ## 0x40000000000
	.quad	274877906944                    ## 0x4000000000
LCPI0_24:
	.quad	64                              ## 0x40
	.quad	128                             ## 0x80
	.quad	0                               ## 0x0
	.quad	0                               ## 0x0
LCPI0_26:
	.quad	0                               ## 0x0
	.quad	18014398509481984               ## 0x40000000000000
	.quad	72057594037927936               ## 0x100000000000000
	.quad	288230376151711744              ## 0x400000000000000
LCPI0_27:
	.quad	281474976710656                 ## 0x1000000000000
	.quad	0                               ## 0x0
	.quad	0                               ## 0x0
	.quad	1125899906842624                ## 0x4000000000000
LCPI0_28:
	.quad	0                               ## 0x0
	.quad	1024                            ## 0x400
	.quad	2048                            ## 0x800
	.quad	0                               ## 0x0
LCPI0_29:
	.quad	68719476736                     ## 0x1000000000
	.quad	0                               ## 0x0
	.quad	0                               ## 0x0
	.quad	1099511627776                   ## 0x10000000000
LCPI0_30:
	.quad	0                               ## 0x0
	.quad	16                              ## 0x10
	.quad	32                              ## 0x20
	.quad	0                               ## 0x0
LCPI0_31:
	.quad	17592186044416                  ## 0x100000000000
	.quad	70368744177664                  ## 0x400000000000
	.quad	0                               ## 0x0
	.quad	0                               ## 0x0
LCPI0_32:
	.quad	0                               ## 0x0
	.quad	0                               ## 0x0
	.quad	256                             ## 0x100
	.quad	512                             ## 0x200
LCPI0_33:
	.quad	0                               ## 0x0
	.quad	17179869184                     ## 0x400000000
	.quad	0                               ## 0x0
	.quad	0                               ## 0x0
LCPI0_34:
	.quad	2                               ## 0x2
	.quad	0                               ## 0x0
	.quad	4                               ## 0x4
	.quad	8                               ## 0x8
LCPI0_36:
	.quad	0                               ## 0x0
	.quad	4096                            ## 0x1000
	.quad	8192                            ## 0x2000
	.quad	16384                           ## 0x4000
LCPI0_37:
	.quad	65536                           ## 0x10000
	.quad	131072                          ## 0x20000
	.quad	262144                          ## 0x40000
	.quad	524288                          ## 0x80000
LCPI0_38:
	.long	8                               ## 0x8
	.long	4                               ## 0x4
	.long	8                               ## 0x8
	.long	40                              ## 0x28
	.long	7                               ## 0x7
	.long	4                               ## 0x4
	.long	24                              ## 0x18
	.long	4                               ## 0x4
LCPI0_39:
	.quad	33554432                        ## 0x2000000
	.quad	134217728                       ## 0x8000000
	.quad	536870912                       ## 0x20000000
	.quad	2147483648                      ## 0x80000000
LCPI0_40:
	.quad	131072                          ## 0x20000
	.quad	524288                          ## 0x80000
	.quad	2097152                         ## 0x200000
	.quad	8388608                         ## 0x800000
LCPI0_41:
	.long	32                              ## 0x20
	.long	1                               ## 0x1
	.long	0                               ## 0x0
	.long	32                              ## 0x20
	.long	0                               ## 0x0
	.long	8                               ## 0x8
	.long	1                               ## 0x1
	.long	0                               ## 0x0
LCPI0_42:
	.long	8                               ## 0x8
	.long	1                               ## 0x1
	.long	0                               ## 0x0
	.long	40                              ## 0x28
	.long	0                               ## 0x0
	.long	7                               ## 0x7
	.long	0                               ## 0x0
	.long	24                              ## 0x18
LCPI0_44:
	.quad	4503599627370496                ## 0x10000000000000
	.quad	1125899906842624                ## 0x4000000000000
	.quad	9007199254740992                ## 0x20000000000000
	.quad	18014398509481984               ## 0x40000000000000
LCPI0_45:
	.quad	17592186044416                  ## 0x100000000000
	.quad	4398046511104                   ## 0x40000000000
	.quad	35184372088832                  ## 0x200000000000
	.quad	70368744177664                  ## 0x400000000000
LCPI0_46:
	.quad	36028797018963968               ## 0x80000000000000
	.quad	72057594037927936               ## 0x100000000000000
	.quad	288230376151711744              ## 0x400000000000000
	.quad	576460752303423488              ## 0x800000000000000
LCPI0_47:
	.quad	281474976710656                 ## 0x1000000000000
	.quad	562949953421312                 ## 0x2000000000000
	.quad	140737488355328                 ## 0x800000000000
	.quad	2251799813685248                ## 0x8000000000000
LCPI0_48:
	.quad	512                             ## 0x200
	.quad	2048                            ## 0x800
	.quad	8192                            ## 0x2000
	.quad	32768                           ## 0x8000
LCPI0_49:
	.quad	144115188075855872              ## 0x200000000000000
	.quad	2305843009213693952             ## 0x2000000000000000
	.quad	4611686018427387904             ## 0x4000000000000000
	.quad	1152921504606846976             ## 0x1000000000000000
LCPI0_50:
	.quad	2                               ## 0x2
	.quad	8                               ## 0x8
	.quad	32                              ## 0x20
	.quad	128                             ## 0x80
LCPI0_51:
	.quad	-9223370937343148032            ## 0x8000010000000000
	.quad	2199023255552                   ## 0x20000000000
	.quad	549755813888                    ## 0x8000000000
	.quad	8796093022208                   ## 0x80000000000
LCPI0_52:
	.long	0                               ## 0x0
	.long	4                               ## 0x4
	.long	0                               ## 0x0
	.long	32                              ## 0x20
	.long	1                               ## 0x1
	.long	0                               ## 0x0
	.long	32                              ## 0x20
	.long	0                               ## 0x0
LCPI0_53:
	.long	1                               ## 0x1
	.long	0                               ## 0x0
	.long	40                              ## 0x28
	.long	0                               ## 0x0
	.long	7                               ## 0x7
	.long	0                               ## 0x0
	.long	4                               ## 0x4
	.long	0                               ## 0x0
LCPI0_54:
	.long	39                              ## 0x27
	.long	1                               ## 0x1
	.long	1                               ## 0x1
	.long	1                               ## 0x1
	.long	1                               ## 0x1
	.long	0                               ## 0x0
	.long	32                              ## 0x20
	.long	1                               ## 0x1
LCPI0_55:
	.long	4                               ## 0x4
	.long	0                               ## 0x0
	.long	8                               ## 0x8
	.long	1                               ## 0x1
	.long	0                               ## 0x0
	.long	4                               ## 0x4
	.long	0                               ## 0x0
	.long	8                               ## 0x8
LCPI0_56:
	.quad	2097152                         ## 0x200000
	.quad	4194304                         ## 0x400000
	.quad	16777216                        ## 0x1000000
	.quad	33554432                        ## 0x2000000
LCPI0_57:
	.quad	32                              ## 0x20
	.quad	128                             ## 0x80
	.quad	256                             ## 0x100
	.quad	64                              ## 0x40
LCPI0_58:
	.quad	536870912                       ## 0x20000000
	.quad	1073741824                      ## 0x40000000
	.quad	2147483648                      ## 0x80000000
	.quad	8589934592                      ## 0x200000000
LCPI0_59:
	.quad	2048                            ## 0x800
	.quad	16384                           ## 0x4000
	.quad	32768                           ## 0x8000
	.quad	65536                           ## 0x10000
LCPI0_60:
	.quad	131072                          ## 0x20000
	.quad	524288                          ## 0x80000
	.quad	1048576                         ## 0x100000
	.quad	262144                          ## 0x40000
LCPI0_61:
	.quad	2                               ## 0x2
	.quad	4                               ## 0x4
	.quad	8                               ## 0x8
	.quad	16                              ## 0x10
LCPI0_62:
	.quad	8388608                         ## 0x800000
	.quad	67108864                        ## 0x4000000
	.quad	134217728                       ## 0x8000000
	.quad	268435456                       ## 0x10000000
LCPI0_63:
	.quad	512                             ## 0x200
	.quad	1024                            ## 0x400
	.quad	4096                            ## 0x1000
	.quad	8192                            ## 0x2000
LCPI0_64:
	.long	24                              ## 0x18
	.long	1                               ## 0x1
	.long	0                               ## 0x0
	.long	4                               ## 0x4
	.long	0                               ## 0x0
	.long	24                              ## 0x18
	.long	1                               ## 0x1
	.long	0                               ## 0x0
LCPI0_65:
	.quad	274877906944                    ## 0x4000000000
	.quad	549755813888                    ## 0x8000000000
	.quad	137438953472                    ## 0x2000000000
	.quad	1099511627776                   ## 0x10000000000
LCPI0_66:
	.quad	17179869184                     ## 0x400000000
	.quad	4294967296                      ## 0x100000000
	.quad	34359738368                     ## 0x800000000
	.quad	68719476736                     ## 0x1000000000
LCPI0_70:
	.quad	32                              ## 0x20
	.quad	256                             ## 0x100
	.quad	2251799813685248                ## 0x8000000000000
	.quad	128                             ## 0x80
LCPI0_71:
	.quad	65536                           ## 0x10000
	.quad	131072                          ## 0x20000
	.quad	72057594037927936               ## 0x100000000000000
	.quad	262144                          ## 0x40000
LCPI0_72:
	.quad	4503599627370496                ## 0x10000000000000
	.quad	4096                            ## 0x1000
	.quad	2048                            ## 0x800
	.quad	16384                           ## 0x4000
LCPI0_73:
	.quad	144115188075855872              ## 0x200000000000000
	.quad	524288                          ## 0x80000
	.quad	1048576                         ## 0x100000
	.quad	2097152                         ## 0x200000
LCPI0_74:
	.quad	9007199254740992                ## 0x20000000000000
	.quad	8192                            ## 0x2000
	.quad	18014398509481984               ## 0x40000000000000
	.quad	36028797018963968               ## 0x80000000000000
LCPI0_75:
	.quad	2                               ## 0x2
	.quad	140737488355328                 ## 0x800000000000
	.quad	4                               ## 0x4
	.quad	281474976710656                 ## 0x1000000000000
LCPI0_76:
	.quad	562949953421312                 ## 0x2000000000000
	.quad	8                               ## 0x8
	.quad	1125899906842624                ## 0x4000000000000
	.quad	64                              ## 0x40
LCPI0_77:
	.quad	-9223363240761753600            ## 0x8000080000000000
	.quad	17592186044416                  ## 0x100000000000
	.quad	35184372088832                  ## 0x200000000000
	.quad	70368744177664                  ## 0x400000000000
	.section	__TEXT,__literal4,4byte_literals
	.p2align	2
LCPI0_78:
	.long	0xbabd3069                      ## float -0.0014433983
LCPI0_79:
	.long	0xbf317218                      ## float -0.693147182
LCPI0_80:
	.long	0xba8322ca                      ## float -0.00100048748
LCPI0_81:
	.long	0xb9a797f3                      ## float -3.19659332E-4
LCPI0_82:
	.long	0xbc0b192a                      ## float -0.00848988629
LCPI0_83:
	.long	0xbe2aae1f                      ## float -0.166679844
LCPI0_84:
	.long	0xbf800000                      ## float -1
LCPI0_85:
	.long	0xba9c2e66                      ## float -0.00119156833
LCPI0_86:
	.long	0xbd2a66bc                      ## float -0.0416018814
LCPI0_87:
	.long	0xbeffffde                      ## float -0.499998987
LCPI0_88:
	.long	0x3f800000                      ## float 1
LCPI0_89:
	.long	0x80000000                      ## float -0
LCPI0_90:
	.long	0xbe1ba6b6                      ## float -0.152003139
LCPI0_91:
	.long	0xbdd7c745                      ## float -0.105360545
LCPI0_92:
	.long	0x3f666666                      ## float 0.899999976
LCPI0_93:
	.long	0x3dcccccd                      ## float 0.100000001
LCPI0_94:
	.long	0x3f7fbe77                      ## float 0.999000012
LCPI0_95:
	.long	0x3a83126f                      ## float 0.00100000005
LCPI0_96:
	.long	0xb727c5ac                      ## float -9.99999974E-6
LCPI0_97:
	.long	0x2edbe6ff                      ## float 1.00000001E-10
LCPI0_98:
	.long	0x3727c5ac                      ## float 9.99999974E-6
	.section	__TEXT,__text,regular,pure_instructions
	.globl	_train_cost_model
	.p2align	4, 0x90
_train_cost_model:                      ## @train_cost_model
	.cfi_startproc
## %bb.0:                               ## %entry
	pushq	%rbp
	.cfi_def_cfa_offset 16
	.cfi_offset %rbp, -16
	movq	%rsp, %rbp
	.cfi_def_cfa_register %rbp
	pushq	%r15
	pushq	%r14
	pushq	%r13
	pushq	%r12
	pushq	%rbx
	andq	$-32, %rsp
	subq	$16032, %rsp                    ## imm = 0x3EA0
	.cfi_offset %rbx, -56
	.cfi_offset %r12, -48
	.cfi_offset %r13, -40
	.cfi_offset %r14, -32
	.cfi_offset %r15, -24
	vmovss	%xmm0, 244(%rsp)                ## 4-byte Spill
	movq	%rcx, %r14
	movl	%edx, 1336(%rsp)                ## 4-byte Spill
                                        ## kill: def $edi killed $edi def $rdi
	movq	%rdi, 120(%rsp)                 ## 8-byte Spill
	xorl	%eax, %eax
	cmpq	$0, 96(%rbp)
	vmovq	16(%rbp), %xmm0                 ## xmm0 = mem[0],zero
	vmovq	%r9, %xmm1
	vpunpcklqdq	%xmm0, %xmm1, %xmm0     ## xmm0 = xmm1[0],xmm0[0]
	movq	%r8, 24(%rsp)                   ## 8-byte Spill
	vmovq	%r8, %xmm1
	vmovq	%rcx, %xmm2
	vpunpcklqdq	%xmm1, %xmm2, %xmm1     ## xmm1 = xmm2[0],xmm1[0]
	vinserti128	$1, %xmm0, %ymm1, %ymm0
	vmovdqu	72(%rbp), %xmm1
	vmovq	104(%rbp), %xmm2                ## xmm2 = mem[0],zero
	vmovq	88(%rbp), %xmm3                 ## xmm3 = mem[0],zero
	vpunpcklqdq	%xmm2, %xmm3, %xmm2     ## xmm2 = xmm3[0],xmm2[0]
	vinserti128	$1, %xmm2, %ymm1, %ymm1
	vpxor	%xmm2, %xmm2, %xmm2
	vpcmpeqq	%ymm2, %ymm1, %ymm1
	vpcmpeqq	%ymm2, %ymm0, %ymm0
	vpcmpeqq	24(%rbp), %ymm2, %ymm3
	vmovapd	LCPI0_0(%rip), %xmm4            ## xmm4 = [9223372036854775808,0]
	vblendvpd	%ymm0, LCPI0_1(%rip), %ymm4, %ymm0
	vpcmpeqq	112(%rbp), %ymm2, %ymm2
	vpand	LCPI0_2(%rip), %ymm1, %ymm1
	vpand	LCPI0_3(%rip), %ymm2, %ymm2
	vpand	LCPI0_4(%rip), %ymm3, %ymm3
	sete	%al
	vpor	%ymm2, %ymm3, %ymm2
	vorpd	%ymm2, %ymm0, %ymm0
	vpor	%ymm0, %ymm1, %ymm0
	vextracti128	$1, %ymm0, %xmm1
	vpor	%xmm1, %xmm0, %xmm0
	vpshufd	$238, %xmm0, %xmm1              ## xmm1 = xmm0[2,3,2,3]
	vpor	%xmm1, %xmm0, %xmm0
	vmovq	%xmm0, %rcx
	orq	%rax, %rcx
	xorl	%eax, %eax
	tzcntq	%rcx, %rax
	cmpl	$16, %eax
	jbe	LBB0_271
## %bb.1:                               ## %no_errors_bb
	movq	%r9, %r13
	movl	%esi, %r12d
	movq	48(%rbp), %r15
	movq	40(%rbp), %rbx
	movq	16(%r15), %rax
	movq	%rax, 1192(%rsp)                ## 8-byte Spill
	leaq	32(%r15), %rsi
	leaq	76(%rsp), %rdi
	movl	$4, %edx
	vzeroupper
	callq	_memcpy
	movl	76(%rsp), %eax
	movl	%eax, 1040(%rsp)                ## 4-byte Spill
	movq	24(%r15), %rax
	movq	%rax, 1704(%rsp)                ## 8-byte Spill
	movl	36(%r15), %eax
	movl	%eax, 1032(%rsp)                ## 4-byte Spill
	movq	40(%r15), %rax
	movl	(%rax), %ecx
	movq	%rcx, 808(%rsp)                 ## 8-byte Spill
	movl	4(%rax), %ecx
	movq	%rcx, 800(%rsp)                 ## 8-byte Spill
	movl	8(%rax), %eax
	movl	%eax, 920(%rsp)                 ## 4-byte Spill
	movq	16(%rbx), %rax
	movq	%rax, 856(%rsp)                 ## 8-byte Spill
	leaq	32(%rbx), %rsi
	leaq	76(%rsp), %rdi
	movl	$4, %edx
	callq	_memcpy
	movl	76(%rsp), %eax
	movl	%eax, 420(%rsp)                 ## 4-byte Spill
	movq	24(%rbx), %rax
	movq	%rax, 1696(%rsp)                ## 8-byte Spill
	movl	36(%rbx), %eax
	movl	%eax, 1024(%rsp)                ## 4-byte Spill
	movq	40(%rbx), %rax
	movl	(%rax), %ecx
	movq	%rcx, 760(%rsp)                 ## 8-byte Spill
	movl	16(%rax), %ecx
	movq	%rcx, 776(%rsp)                 ## 8-byte Spill
	vmovsd	4(%rax), %xmm0                  ## xmm0 = mem[0],zero
	vmovaps	%xmm0, 1360(%rsp)               ## 16-byte Spill
	movl	20(%rax), %ecx
	movq	%rcx, 744(%rsp)                 ## 8-byte Spill
	movl	24(%rax), %eax
	movl	%eax, 240(%rsp)                 ## 4-byte Spill
	movq	16(%rbp), %rbx
	movq	16(%rbx), %rax
	movq	%rax, 1168(%rsp)                ## 8-byte Spill
	leaq	32(%rbx), %rsi
	leaq	76(%rsp), %rdi
	movl	$4, %edx
	callq	_memcpy
	movl	76(%rsp), %eax
	movl	%eax, 416(%rsp)                 ## 4-byte Spill
	movq	24(%rbx), %rax
	movq	%rax, 1688(%rsp)                ## 8-byte Spill
	movl	36(%rbx), %eax
	movl	%eax, 1016(%rsp)                ## 4-byte Spill
	movq	40(%rbx), %rax
	movl	(%rax), %ecx
	movq	%rcx, 720(%rsp)                 ## 8-byte Spill
	movl	4(%rax), %ecx
	movq	%rcx, 688(%rsp)                 ## 8-byte Spill
	movl	8(%rax), %eax
	movl	%eax, 908(%rsp)                 ## 4-byte Spill
	movq	16(%r13), %rax
	movq	%rax, 1136(%rsp)                ## 8-byte Spill
	leaq	32(%r13), %rsi
	leaq	76(%rsp), %rdi
	movl	$4, %edx
	callq	_memcpy
	movl	76(%rsp), %eax
	movl	%eax, 412(%rsp)                 ## 4-byte Spill
	movq	24(%r13), %rax
	movq	%rax, 1680(%rsp)                ## 8-byte Spill
	movl	36(%r13), %eax
	movl	%eax, 1008(%rsp)                ## 4-byte Spill
	movq	%r13, 816(%rsp)                 ## 8-byte Spill
	movq	40(%r13), %rax
	movl	(%rax), %ecx
	movq	%rcx, 672(%rsp)                 ## 8-byte Spill
	movl	4(%rax), %ecx
	movq	%rcx, 40(%rsp)                  ## 8-byte Spill
	movl	8(%rax), %ecx
	movl	%ecx, 900(%rsp)                 ## 4-byte Spill
	movl	16(%rax), %ecx
	movq	%rcx, 664(%rsp)                 ## 8-byte Spill
	movl	20(%rax), %ecx
	movq	%rcx, 640(%rsp)                 ## 8-byte Spill
	movl	24(%rax), %ecx
	movl	%ecx, 428(%rsp)                 ## 4-byte Spill
	movl	32(%rax), %ecx
	movq	%rcx, 656(%rsp)                 ## 8-byte Spill
	movl	36(%rax), %ecx
	movq	%rcx, 632(%rsp)                 ## 8-byte Spill
	movl	40(%rax), %eax
	movl	%eax, 424(%rsp)                 ## 4-byte Spill
	movq	32(%rbp), %rbx
	movq	16(%rbx), %rax
	movq	%rax, 1184(%rsp)                ## 8-byte Spill
	leaq	32(%rbx), %rsi
	leaq	76(%rsp), %rdi
	movl	$4, %edx
	callq	_memcpy
	movl	76(%rsp), %eax
	movl	%eax, 1000(%rsp)                ## 4-byte Spill
	movq	24(%rbx), %rax
	movq	%rax, 1656(%rsp)                ## 8-byte Spill
	movl	36(%rbx), %eax
	movl	%eax, 992(%rsp)                 ## 4-byte Spill
	movq	40(%rbx), %rax
	movl	(%rax), %ecx
	movq	%rcx, 608(%rsp)                 ## 8-byte Spill
	movl	4(%rax), %ecx
	movq	%rcx, 584(%rsp)                 ## 8-byte Spill
	movl	8(%rax), %eax
	movl	%eax, 892(%rsp)                 ## 4-byte Spill
	movq	24(%rbp), %rbx
	movq	16(%rbx), %rax
	movq	%rax, 1176(%rsp)                ## 8-byte Spill
	leaq	32(%rbx), %rsi
	leaq	76(%rsp), %rdi
	movl	$4, %edx
	callq	_memcpy
	movl	76(%rsp), %eax
	movl	%eax, 984(%rsp)                 ## 4-byte Spill
	movq	24(%rbx), %rax
	movq	%rax, 1648(%rsp)                ## 8-byte Spill
	movl	36(%rbx), %eax
	movl	%eax, 976(%rsp)                 ## 4-byte Spill
	movq	40(%rbx), %rax
	movl	(%rax), %ecx
	movq	%rcx, 576(%rsp)                 ## 8-byte Spill
	movl	4(%rax), %ecx
	movq	%rcx, 552(%rsp)                 ## 8-byte Spill
	movl	8(%rax), %ecx
	movl	%ecx, 888(%rsp)                 ## 4-byte Spill
	movl	16(%rax), %ecx
	movq	%rcx, 344(%rsp)                 ## 8-byte Spill
	movl	20(%rax), %ecx
	movq	%rcx, 336(%rsp)                 ## 8-byte Spill
	movl	24(%rax), %eax
	movl	%eax, 516(%rsp)                 ## 4-byte Spill
	movq	136(%rbp), %rcx
	movq	16(%rcx), %rax
	movq	%rax, 1480(%rsp)                ## 8-byte Spill
	leaq	32(%rcx), %rsi
	movq	%rcx, %rbx
	leaq	76(%rsp), %rdi
	movl	$4, %edx
	callq	_memcpy
	movl	76(%rsp), %eax
	movl	%eax, 968(%rsp)                 ## 4-byte Spill
	movq	24(%rbx), %rax
	movq	%rax, 1640(%rsp)                ## 8-byte Spill
	movl	36(%rbx), %eax
	movl	%eax, 408(%rsp)                 ## 4-byte Spill
	movq	16(%r14), %rax
	movq	%rax, 1160(%rsp)                ## 8-byte Spill
	leaq	32(%r14), %rsi
	leaq	76(%rsp), %rdi
	movl	$4, %edx
	callq	_memcpy
	movl	76(%rsp), %eax
	movl	%eax, 404(%rsp)                 ## 4-byte Spill
	movq	24(%r14), %rax
	movq	%rax, 56(%rsp)                  ## 8-byte Spill
	movl	36(%r14), %eax
	movl	%eax, 400(%rsp)                 ## 4-byte Spill
	movq	%r14, 1208(%rsp)                ## 8-byte Spill
	movq	40(%r14), %rax
	movl	(%rax), %ecx
	movq	%rcx, 1112(%rsp)                ## 8-byte Spill
	movl	4(%rax), %ecx
	movq	%rcx, 160(%rsp)                 ## 8-byte Spill
	movl	8(%rax), %ecx
	movl	%ecx, 936(%rsp)                 ## 4-byte Spill
	movl	16(%rax), %ecx
	movq	%rcx, 1104(%rsp)                ## 8-byte Spill
	movl	20(%rax), %ecx
	movq	%rcx, 464(%rsp)                 ## 8-byte Spill
	movl	24(%rax), %ecx
	movl	%ecx, 512(%rsp)                 ## 4-byte Spill
	movl	32(%rax), %ecx
	movq	%rcx, 840(%rsp)                 ## 8-byte Spill
	movl	36(%rax), %ecx
	movq	%rcx, 472(%rsp)                 ## 8-byte Spill
	movl	40(%rax), %eax
	movl	%eax, 508(%rsp)                 ## 4-byte Spill
	movq	128(%rbp), %rbx
	movq	16(%rbx), %rax
	movq	%rax, 1472(%rsp)                ## 8-byte Spill
	leaq	32(%rbx), %rsi
	leaq	76(%rsp), %rdi
	movl	$4, %edx
	callq	_memcpy
	movl	76(%rsp), %eax
	movl	%eax, 396(%rsp)                 ## 4-byte Spill
	movq	24(%rbx), %rax
	movq	%rax, 168(%rsp)                 ## 8-byte Spill
	movl	36(%rbx), %eax
	movl	%eax, 960(%rsp)                 ## 4-byte Spill
	movq	40(%rbx), %rax
	movq	120(%rbp), %r14
	movq	112(%rbp), %r13
	movl	(%rax), %ecx
	movq	%rcx, 848(%rsp)                 ## 8-byte Spill
	movl	4(%rax), %r15d
	movl	8(%rax), %eax
	movl	%eax, 932(%rsp)                 ## 4-byte Spill
	movq	24(%rsp), %rbx                  ## 8-byte Reload
	movq	16(%rbx), %rax
	movq	%rax, 184(%rsp)                 ## 8-byte Spill
	leaq	32(%rbx), %rsi
	leaq	76(%rsp), %rdi
	movl	$4, %edx
	callq	_memcpy
	movl	76(%rsp), %eax
	movl	%eax, 952(%rsp)                 ## 4-byte Spill
	movq	24(%rbx), %rax
	movq	%rax, 200(%rsp)                 ## 8-byte Spill
	movl	36(%rbx), %eax
	movl	%eax, 392(%rsp)                 ## 4-byte Spill
	movq	40(%rbx), %rax
	movl	(%rax), %ecx
	movq	%rcx, 320(%rsp)                 ## 8-byte Spill
	movl	4(%rax), %ecx
	movq	%rcx, 208(%rsp)                 ## 8-byte Spill
	movl	8(%rax), %ecx
	movl	%ecx, 928(%rsp)                 ## 4-byte Spill
	movl	16(%rax), %ecx
	movq	%rcx, 288(%rsp)                 ## 8-byte Spill
	movl	20(%rax), %ecx
	movq	%rcx, 448(%rsp)                 ## 8-byte Spill
	movl	24(%rax), %ecx
	movq	%rcx, 216(%rsp)                 ## 8-byte Spill
	movl	32(%rax), %ecx
	movq	%rcx, 440(%rsp)                 ## 8-byte Spill
	movl	36(%rax), %ecx
	movq	%rcx, 456(%rsp)                 ## 8-byte Spill
	movl	40(%rax), %eax
	movl	%eax, 32(%rsp)                  ## 4-byte Spill
	movq	72(%rbp), %rbx
	movq	16(%rbx), %rax
	movq	%rax, 1200(%rsp)                ## 8-byte Spill
	leaq	32(%rbx), %rsi
	leaq	76(%rsp), %rdi
	movl	$4, %edx
	callq	_memcpy
	movl	76(%rsp), %eax
	movl	%eax, 388(%rsp)                 ## 4-byte Spill
	movq	24(%rbx), %rax
	movq	%rax, 128(%rsp)                 ## 8-byte Spill
	movl	36(%rbx), %eax
	movl	%eax, 384(%rsp)                 ## 4-byte Spill
	movq	40(%rbx), %rax
	movl	(%rax), %ecx
	movq	%rcx, 1128(%rsp)                ## 8-byte Spill
	movl	4(%rax), %ecx
	movq	%rcx, 480(%rsp)                 ## 8-byte Spill
	movl	8(%rax), %eax
	movl	%eax, 924(%rsp)                 ## 4-byte Spill
	movq	16(%r14), %rax
	movq	%rax, 1464(%rsp)                ## 8-byte Spill
	leaq	32(%r14), %rsi
	leaq	76(%rsp), %rdi
	movl	$4, %edx
	callq	_memcpy
	movl	76(%rsp), %eax
	movl	%eax, 380(%rsp)                 ## 4-byte Spill
	movq	24(%r14), %rax
	movq	%rax, 312(%rsp)                 ## 8-byte Spill
	movl	36(%r14), %eax
	movl	%eax, 376(%rsp)                 ## 4-byte Spill
	movq	40(%r14), %rax
	movl	(%rax), %ecx
	movq	%rcx, 792(%rsp)                 ## 8-byte Spill
	movl	4(%rax), %ecx
	movq	%rcx, 768(%rsp)                 ## 8-byte Spill
	movl	8(%rax), %ecx
	movl	%ecx, 916(%rsp)                 ## 4-byte Spill
	movl	16(%rax), %ecx
	movq	%rcx, 784(%rsp)                 ## 8-byte Spill
	movl	20(%rax), %ecx
	movq	%rcx, 752(%rsp)                 ## 8-byte Spill
	movl	24(%rax), %eax
	movq	%rax, 1456(%rsp)                ## 8-byte Spill
	movq	16(%r13), %rax
	movq	%rax, 1448(%rsp)                ## 8-byte Spill
	leaq	32(%r13), %rsi
	leaq	76(%rsp), %rdi
	movl	$4, %edx
	callq	_memcpy
	movl	76(%rsp), %eax
	movl	%eax, 372(%rsp)                 ## 4-byte Spill
	movq	24(%r13), %rax
	movq	%rax, 304(%rsp)                 ## 8-byte Spill
	movl	36(%r13), %eax
	movl	%eax, 368(%rsp)                 ## 4-byte Spill
	movq	40(%r13), %rax
	movl	(%rax), %ecx
	movq	%rcx, 736(%rsp)                 ## 8-byte Spill
	movl	4(%rax), %ecx
	movq	%rcx, 712(%rsp)                 ## 8-byte Spill
	movl	8(%rax), %ecx
	movl	%ecx, 912(%rsp)                 ## 4-byte Spill
	movl	16(%rax), %ecx
	movq	%rcx, 728(%rsp)                 ## 8-byte Spill
	movl	20(%rax), %ecx
	movq	%rcx, 696(%rsp)                 ## 8-byte Spill
	movl	24(%rax), %ecx
	movl	%ecx, 948(%rsp)                 ## 4-byte Spill
	movl	32(%rax), %ecx
	movq	%rcx, 704(%rsp)                 ## 8-byte Spill
	movl	36(%rax), %ecx
	movq	%rcx, 680(%rsp)                 ## 8-byte Spill
	movl	40(%rax), %eax
	movq	%rax, 1440(%rsp)                ## 8-byte Spill
	movq	88(%rbp), %rbx
	movq	16(%rbx), %rax
	movq	%rax, 1408(%rsp)                ## 8-byte Spill
	leaq	32(%rbx), %rsi
	leaq	76(%rsp), %rdi
	movl	$4, %edx
	callq	_memcpy
	movl	76(%rsp), %eax
	movl	%eax, 364(%rsp)                 ## 4-byte Spill
	movq	24(%rbx), %rax
	movq	%rax, 280(%rsp)                 ## 8-byte Spill
	movl	36(%rbx), %eax
	movl	%eax, 360(%rsp)                 ## 4-byte Spill
	movq	40(%rbx), %rax
	movl	(%rax), %ecx
	movl	%ecx, 500(%rsp)                 ## 4-byte Spill
	movl	4(%rax), %ecx
	movq	%rcx, 264(%rsp)                 ## 8-byte Spill
	movl	8(%rax), %ecx
	movl	%ecx, 904(%rsp)                 ## 4-byte Spill
	movl	16(%rax), %ecx
	movl	%ecx, 496(%rsp)                 ## 4-byte Spill
	movl	20(%rax), %ecx
	movq	%rcx, 648(%rsp)                 ## 8-byte Spill
	movslq	24(%rax), %rax
	movq	%rax, 1392(%rsp)                ## 8-byte Spill
	movq	80(%rbp), %rcx
	movq	16(%rcx), %rax
	movq	%rax, 1384(%rsp)                ## 8-byte Spill
	leaq	32(%rcx), %rsi
	movq	%rcx, %rbx
	leaq	76(%rsp), %rdi
	movl	$4, %edx
	callq	_memcpy
	movl	76(%rsp), %eax
	movl	%eax, 356(%rsp)                 ## 4-byte Spill
	movq	40(%rbx), %rax
	movl	(%rax), %ecx
	movl	%ecx, 492(%rsp)                 ## 4-byte Spill
	movl	4(%rax), %ecx
	movq	%rcx, 600(%rsp)                 ## 8-byte Spill
	movl	8(%rax), %ecx
	movl	%ecx, 896(%rsp)                 ## 4-byte Spill
	movl	16(%rax), %ecx
	movl	%ecx, 624(%rsp)                 ## 4-byte Spill
	movl	20(%rax), %ecx
	movq	%rcx, 256(%rsp)                 ## 8-byte Spill
	movl	24(%rax), %ecx
	movl	%ecx, 940(%rsp)                 ## 4-byte Spill
	movl	32(%rax), %ecx
	movl	%ecx, 616(%rsp)                 ## 4-byte Spill
	movl	36(%rax), %ecx
	movq	%rcx, 248(%rsp)                 ## 8-byte Spill
	movl	40(%rax), %ecx
	movq	%rcx, 1376(%rsp)                ## 8-byte Spill
	movl	48(%rax), %ecx
	movl	%ecx, 592(%rsp)                 ## 4-byte Spill
	movl	52(%rax), %ecx
	movq	%rcx, 48(%rsp)                  ## 8-byte Spill
	movl	56(%rax), %eax
	movq	%rax, 1120(%rsp)                ## 8-byte Spill
	movq	24(%rbx), %rax
	movq	%rax, 272(%rsp)                 ## 8-byte Spill
	movl	36(%rbx), %eax
	movl	%eax, 352(%rsp)                 ## 4-byte Spill
	movq	104(%rbp), %rbx
	movq	16(%rbx), %rax
	movq	%rax, 1432(%rsp)                ## 8-byte Spill
	leaq	32(%rbx), %rsi
	leaq	76(%rsp), %rdi
	movl	$4, %edx
	callq	_memcpy
	movl	76(%rsp), %eax
	movl	%eax, 880(%rsp)                 ## 4-byte Spill
	movq	24(%rbx), %rax
	movq	%rax, 432(%rsp)                 ## 8-byte Spill
	movl	36(%rbx), %eax
	movl	%eax, 876(%rsp)                 ## 4-byte Spill
	movq	40(%rbx), %rax
	movl	(%rax), %ecx
	movl	%ecx, 568(%rsp)                 ## 4-byte Spill
	movl	16(%rax), %ecx
	movl	%ecx, 560(%rsp)                 ## 4-byte Spill
	vmovsd	4(%rax), %xmm0                  ## xmm0 = mem[0],zero
	vmovaps	%xmm0, 1344(%rsp)               ## 16-byte Spill
	movl	20(%rax), %ecx
	movq	%rcx, 296(%rsp)                 ## 8-byte Spill
	movl	24(%rax), %eax
	movq	%rax, 1424(%rsp)                ## 8-byte Spill
	movq	96(%rbp), %r13
	movq	16(%r13), %rax
	movq	%rax, 1416(%rsp)                ## 8-byte Spill
	leaq	32(%r13), %rsi
	leaq	76(%rsp), %rdi
	movl	$4, %edx
	callq	_memcpy
	movq	848(%rsp), %rsi                 ## 8-byte Reload
	leal	(%r15,%rsi), %eax
	cmpl	%r12d, %eax
	movl	%r12d, %edx
	movl	%eax, 1328(%rsp)                ## 4-byte Spill
	cmovgl	%eax, %edx
	movq	40(%rsp), %rcx                  ## 8-byte Reload
	cmpl	$8, %ecx
	movl	$8, %eax
	cmovgl	%ecx, %eax
	movq	%rax, 1144(%rsp)                ## 8-byte Spill
	movl	%ecx, %eax
	sarl	$31, %eax
	andl	%ecx, %eax
	movl	%eax, 488(%rsp)                 ## 4-byte Spill
	movq	120(%rsp), %rcx                 ## 8-byte Reload
	testl	%ecx, %ecx
	movl	$1, %eax
	cmovgl	%ecx, %eax
	movq	%rax, 80(%rsp)                  ## 8-byte Spill
	movl	$1, %eax
	cmovlel	%ecx, %eax
	movq	%rax, 104(%rsp)                 ## 8-byte Spill
	cmpl	$8, %r15d
	movl	$8, %eax
	cmovll	%r15d, %eax
	leal	-1(%r15), %ecx
	andl	$-8, %ecx
	addl	%eax, %ecx
	cmpl	%ecx, %r15d
	movq	%r15, 832(%rsp)                 ## 8-byte Spill
	cmovlel	%r15d, %ecx
	movq	%rcx, 1152(%rsp)                ## 8-byte Spill
	movl	$1, %eax
	testl	%edx, %edx
	cmovlel	%eax, %edx
	movl	%esi, %r11d
	sarl	$31, %r11d
	movl	%r11d, %ecx
	andl	%esi, %ecx
	movl	%edx, %esi
	subl	%ecx, %esi
	leal	-1(%rsi), %r15d
	movl	%r15d, %ebx
	andl	$-8, %ebx
	movq	%rcx, 232(%rsp)                 ## 8-byte Spill
	addl	%ecx, %ebx
	leal	-1(%rdx), %r8d
	cmpl	%ebx, %r8d
	cmovlel	%r8d, %ebx
	cmpl	$8, %esi
	movl	$8, %r10d
	movq	%rsi, 152(%rsp)                 ## 8-byte Spill
	cmovll	%esi, %r10d
	addl	%r10d, %ebx
	cmpl	%edx, %ebx
	movq	%rdx, 112(%rsp)                 ## 8-byte Spill
	cmovgl	%edx, %ebx
	cmpl	$8, %r12d
	movl	$8, %esi
	cmovll	%r12d, %esi
	movl	$-8, %ecx
	subl	%r12d, %ecx
	cmpl	%r12d, %ecx
	leal	-1(%r12), %edi
	cmovll	%edi, %ecx
	movl	%ecx, %edx
	sarl	$3, %edx
	sarl	$31, %ecx
	andnl	%edx, %ecx, %ecx
	movl	%edi, %edx
	sarl	$3, %edx
	cmpl	%ecx, %edx
	cmovgl	%ecx, %edx
	movq	%rsi, 176(%rsp)                 ## 8-byte Spill
	leal	(%rsi,%rdx,8), %edx
	cmpl	%r12d, %edx
	cmovgel	%r12d, %edx
	cmpl	%edx, %ebx
	movl	%edx, 196(%rsp)                 ## 4-byte Spill
	movl	%ebx, 144(%rsp)                 ## 4-byte Spill
	cmovgl	%ebx, %edx
	testl	%edx, %edx
	cmovlel	%eax, %edx
	movl	%edx, 824(%rsp)                 ## 4-byte Spill
	leal	8(,%rcx,8), %eax
	cmpl	%r12d, %eax
	cmovgel	%r12d, %eax
	leal	-1(%rax), %edx
	sarl	$3, %edx
	cmpl	%ecx, %edx
	cmovlel	%edx, %ecx
	leal	8(,%rcx,8), %ebx
	cmpl	%r12d, %ebx
	cmovgel	%r12d, %ebx
	cmpl	$8, %eax
	movl	$8, %esi
	cmovgel	%esi, %eax
	addl	%edx, %ecx
	leal	(%rax,%rcx,8), %eax
	cmpl	%ebx, %eax
	cmovlel	%eax, %ebx
	leal	-1(%rbx), %eax
	movl	64(%rbp), %ecx
	cmpl	%ecx, %eax
	cmovlel	%ecx, %eax
	cmpl	%eax, %edi
	movl	%edi, 224(%rsp)                 ## 4-byte Spill
	cmovlel	%edi, %eax
	movl	%eax, %ecx
	sarl	$31, %ecx
	andnl	%eax, %ecx, %eax
	movq	40(%r13), %rcx
	movl	(%rcx), %edx
	movq	%rdx, 1096(%rsp)                ## 8-byte Spill
	movl	4(%rcx), %edx
	movq	%rdx, 1072(%rsp)                ## 8-byte Spill
	movl	8(%rcx), %edx
	movl	%edx, 884(%rsp)                 ## 4-byte Spill
	movl	16(%rcx), %edx
	movq	%rdx, 1088(%rsp)                ## 8-byte Spill
	movl	20(%rcx), %edx
	movq	%rdx, 1064(%rsp)                ## 8-byte Spill
	movl	24(%rcx), %r14d
	movl	32(%rcx), %edx
	movq	%rdx, 1080(%rsp)                ## 8-byte Spill
	movl	36(%rcx), %edx
	movq	%rdx, 1056(%rsp)                ## 8-byte Spill
	movl	40(%rcx), %ecx
	movq	%rcx, 1400(%rsp)                ## 8-byte Spill
	cmpl	%r12d, %eax
	leal	1(%rax), %edi
	movq	%r12, %r9
	cmovll	%r12d, %edi
	movl	76(%rsp), %eax
	movl	%eax, 872(%rsp)                 ## 4-byte Spill
	movq	24(%r13), %rsi
	movl	36(%r13), %eax
	movl	%eax, 868(%rsp)                 ## 4-byte Spill
	movq	40(%rbp), %rax
	movq	16(%rax), %rax
	testq	%rax, %rax
	movq	%r13, %r12
	jne	LBB0_4
## %bb.2:                               ## %_halide_buffer_is_bounds_query.exit
	movq	40(%rsp), %rdx                  ## 8-byte Reload
	testl	%edx, %edx
	sets	%cl
	cmpl	$8, %edx
	setg	%dl
	cmpb	%cl, %dl
	je	LBB0_4
## %bb.3:                               ## %_halide_buffer_is_bounds_query.exit
	movq	40(%rbp), %rcx
	cmpq	$0, (%rcx)
	je	LBB0_358
LBB0_4:                                 ## %"assert succeeded"
	movl	%r14d, 944(%rsp)                ## 4-byte Spill
	movl	%edi, 504(%rsp)                 ## 4-byte Spill
	movq	%rsi, 64(%rsp)                  ## 8-byte Spill
	movq	%r15, 1664(%rsp)                ## 8-byte Spill
	movq	%r10, 1672(%rsp)                ## 8-byte Spill
	movl	%r8d, 1332(%rsp)                ## 4-byte Spill
	movq	%rbx, 1712(%rsp)                ## 8-byte Spill
	movq	48(%rbp), %r10
	cmpq	$0, 16(%r10)
	je	LBB0_6
## %bb.5:
	movq	128(%rbp), %r14
	movq	104(%rbp), %r15
	movq	32(%rbp), %r8
	movq	24(%rbp), %rsi
	movq	816(%rsp), %rdi                 ## 8-byte Reload
	movq	16(%rbp), %rbx
	vmovdqa	1360(%rsp), %xmm10              ## 16-byte Reload
	vmovdqa	1344(%rsp), %xmm15              ## 16-byte Reload
	movq	88(%rbp), %r13
	testq	%rax, %rax
	jne	LBB0_11
	jmp	LBB0_8
LBB0_6:                                 ## %_halide_buffer_is_bounds_query.exit749
	cmpq	$0, (%r10)
	movq	128(%rbp), %r14
	movq	104(%rbp), %r15
	movq	32(%rbp), %r8
	movq	24(%rbp), %rsi
	movq	816(%rsp), %rdi                 ## 8-byte Reload
	movq	16(%rbp), %rbx
	vmovdqa	1360(%rsp), %xmm10              ## 16-byte Reload
	vmovdqa	1344(%rsp), %xmm15              ## 16-byte Reload
	movq	88(%rbp), %r13
	je	LBB0_10
## %bb.7:                               ## %after_bb
	testq	%rax, %rax
	jne	LBB0_11
LBB0_8:                                 ## %_halide_buffer_is_bounds_query.exit763
	movq	40(%rbp), %rax
	cmpq	$0, (%rax)
	jne	LBB0_11
## %bb.9:                               ## %_halide_buffer_init.exit765
	vmovaps	LCPI0_6(%rip), %ymm0            ## ymm0 = [0,32,1,0,0,32,32,0]
	vmovups	%ymm0, 6816(%rsp)
	movq	40(%rbp), %rdx
	movq	40(%rdx), %rax
	vxorps	%xmm0, %xmm0, %xmm0
	vmovups	%xmm0, (%rdx)
	movq	$0, 16(%rdx)
	movabsq	$8590008322, %rcx               ## imm = 0x200012002
	movq	%rcx, 32(%rdx)
	vmovaps	6816(%rsp), %xmm0
	vmovups	%xmm0, (%rax)
	movq	40(%rdx), %rax
	vmovaps	6832(%rsp), %xmm0
	vmovups	%xmm0, 16(%rax)
	movq	$0, 24(%rdx)
	jmp	LBB0_11
LBB0_10:                                ## %then_bb
	movq	48(%rbp), %rdx
	movq	40(%rdx), %rax
	vxorps	%xmm0, %xmm0, %xmm0
	vmovups	%xmm0, (%rdx)
	movq	$0, 16(%rdx)
	movabsq	$4295041026, %rcx               ## imm = 0x100012002
	movq	%rcx, 32(%rdx)
	vmovaps	LCPI0_5(%rip), %xmm0            ## xmm0 = [0,32,1,0]
	vmovups	%xmm0, (%rax)
	movq	$0, 24(%rdx)
	movq	40(%rbp), %rax
	movq	16(%rax), %rax
	testq	%rax, %rax
	je	LBB0_8
LBB0_11:                                ## %after_bb17
	cmpq	$0, 16(%rbx)
	jne	LBB0_13
## %bb.12:                              ## %_halide_buffer_is_bounds_query.exit764
	cmpq	$0, (%rbx)
	je	LBB0_16
LBB0_13:                                ## %after_bb20
	cmpq	$0, 16(%rdi)
	jne	LBB0_17
LBB0_14:                                ## %_halide_buffer_is_bounds_query.exit766
	cmpq	$0, (%rdi)
	jne	LBB0_17
## %bb.15:                              ## %then_bb24
	movq	40(%rdi), %rax
	vxorps	%xmm0, %xmm0, %xmm0
	vmovups	%xmm0, (%rdi)
	movq	$0, 16(%rdi)
	movabsq	$12884975618, %rcx              ## imm = 0x300012002
	movq	%rcx, 32(%rdi)
	vmovaps	LCPI0_7(%rip), %xmm0            ## xmm0 = [0,8,1,0]
	vmovups	%xmm0, (%rax)
	movq	40(%rdi), %rax
	vmovaps	LCPI0_8(%rip), %xmm0            ## xmm0 = [0,40,8,0]
	vmovups	%xmm0, 16(%rax)
	movq	40(%rdi), %rax
	vmovaps	LCPI0_9(%rip), %xmm0            ## xmm0 = [0,7,320,0]
	vmovups	%xmm0, 32(%rax)
	movq	$0, 24(%rdi)
	jmp	LBB0_17
LBB0_16:                                ## %then_bb21
	movq	40(%rbx), %rax
	vxorps	%xmm0, %xmm0, %xmm0
	vmovups	%xmm0, (%rbx)
	movq	$0, 16(%rbx)
	movabsq	$4295041026, %rcx               ## imm = 0x100012002
	movq	%rcx, 32(%rbx)
	vmovaps	LCPI0_7(%rip), %xmm0            ## xmm0 = [0,8,1,0]
	vmovups	%xmm0, (%rax)
	movq	$0, 24(%rbx)
	cmpq	$0, 16(%rdi)
	je	LBB0_14
LBB0_17:                                ## %after_bb23
	cmpq	$0, 16(%r8)
	movq	136(%rbp), %rbx
	jne	LBB0_19
## %bb.18:                              ## %_halide_buffer_is_bounds_query.exit768
	cmpq	$0, (%r8)
	je	LBB0_22
LBB0_19:                                ## %after_bb26
	cmpq	$0, 16(%rsi)
	movq	1208(%rsp), %rdi                ## 8-byte Reload
	jne	LBB0_23
LBB0_20:                                ## %_halide_buffer_is_bounds_query.exit771
	cmpq	$0, (%rsi)
	jne	LBB0_23
## %bb.21:                              ## %_halide_buffer_init.exit775
	vmovaps	LCPI0_11(%rip), %ymm0           ## ymm0 = [0,24,1,0,0,39,24,0]
	vmovups	%ymm0, 6848(%rsp)
	movq	40(%rsi), %rax
	vxorps	%xmm0, %xmm0, %xmm0
	vmovups	%xmm0, (%rsi)
	movq	$0, 16(%rsi)
	movabsq	$8590008322, %rcx               ## imm = 0x200012002
	movq	%rcx, 32(%rsi)
	vmovaps	6848(%rsp), %xmm0
	vmovups	%xmm0, (%rax)
	movq	40(%rsi), %rax
	vmovaps	6864(%rsp), %xmm0
	vmovups	%xmm0, 16(%rax)
	movq	$0, 24(%rsi)
	jmp	LBB0_23
LBB0_22:                                ## %then_bb27
	movq	40(%r8), %rax
	vxorps	%xmm0, %xmm0, %xmm0
	vmovups	%xmm0, (%r8)
	movq	$0, 16(%r8)
	movabsq	$4295041026, %rcx               ## imm = 0x100012002
	movq	%rcx, 32(%r8)
	vmovaps	LCPI0_10(%rip), %xmm0           ## xmm0 = [0,24,1,0]
	vmovups	%xmm0, (%rax)
	movq	$0, 24(%r8)
	cmpq	$0, 16(%rsi)
	movq	1208(%rsp), %rdi                ## 8-byte Reload
	je	LBB0_20
LBB0_23:                                ## %after_bb29
	cmpq	$0, 16(%rbx)
	jne	LBB0_26
## %bb.24:                              ## %_halide_buffer_is_bounds_query.exit773
	cmpq	$0, (%rbx)
	jne	LBB0_26
## %bb.25:                              ## %then_bb33
	vxorps	%xmm0, %xmm0, %xmm0
	vmovups	%xmm0, 16(%rbx)
	vmovups	%xmm0, (%rbx)
	movq	$73730, 32(%rbx)                ## imm = 0x12002
LBB0_26:                                ## %after_bb32
	movq	80(%rsp), %rax                  ## 8-byte Reload
                                        ## kill: def $eax killed $eax killed $rax def $rax
	subl	104(%rsp), %eax                 ## 4-byte Folded Reload
	movq	%rax, 1048(%rsp)                ## 8-byte Spill
	cmpq	$0, 16(%rdi)
	movq	80(%rbp), %rsi
	jne	LBB0_28
## %bb.27:                              ## %_halide_buffer_is_bounds_query.exit776
	cmpq	$0, (%rdi)
	je	LBB0_31
LBB0_28:                                ## %after_bb35
	cmpq	$0, 16(%r14)
	jne	LBB0_32
LBB0_29:                                ## %_halide_buffer_is_bounds_query.exit777
	cmpq	$0, (%r14)
	jne	LBB0_32
## %bb.30:                              ## %then_bb39
	movq	40(%r14), %rax
	vxorps	%xmm0, %xmm0, %xmm0
	vmovups	%xmm0, (%r14)
	movq	$0, 16(%r14)
	movabsq	$4295041026, %rcx               ## imm = 0x100012002
	movq	%rcx, 32(%r14)
	movq	848(%rsp), %rcx                 ## 8-byte Reload
	movl	%ecx, (%rax)
	movq	1152(%rsp), %rcx                ## 8-byte Reload
	movl	%ecx, 4(%rax)
	movq	$1, 8(%rax)
	movq	$0, 24(%r14)
	jmp	LBB0_32
LBB0_31:                                ## %then_bb36
	movq	40(%rdi), %rax
	movq	104(%rsp), %rcx                 ## 8-byte Reload
	decl	%ecx
	vxorps	%xmm0, %xmm0, %xmm0
	vmovups	%xmm0, (%rdi)
	movq	1048(%rsp), %rdx                ## 8-byte Reload
	leal	1(%rdx), %edx
	movq	$0, 16(%rdi)
	movabsq	$12884975618, %rsi              ## imm = 0x300012002
	movq	%rsi, 32(%rdi)
	movq	80(%rbp), %rsi
	vmovaps	LCPI0_12(%rip), %xmm0           ## xmm0 = [0,40,1,0]
	vmovups	%xmm0, (%rax)
	movq	40(%rdi), %rax
	vmovaps	LCPI0_13(%rip), %xmm0           ## xmm0 = [0,7,40,0]
	vmovups	%xmm0, 16(%rax)
	movq	40(%rdi), %rax
	movl	%ecx, 32(%rax)
	movl	%edx, 36(%rax)
	movq	$280, 40(%rax)                  ## imm = 0x118
	movq	$0, 24(%rdi)
	cmpq	$0, 16(%r14)
	je	LBB0_29
LBB0_32:                                ## %after_bb38
	movl	%r11d, 1340(%rsp)               ## 4-byte Spill
	movq	24(%rsp), %r10                  ## 8-byte Reload
	cmpq	$0, 16(%r10)
	jne	LBB0_34
## %bb.33:                              ## %_halide_buffer_is_bounds_query.exit780
	cmpq	$0, (%r10)
	je	LBB0_37
LBB0_34:                                ## %after_bb41
	movq	72(%rbp), %r11
	cmpq	$0, 16(%r11)
	jne	LBB0_38
LBB0_35:                                ## %_halide_buffer_is_bounds_query.exit782
	cmpq	$0, (%r11)
	jne	LBB0_38
## %bb.36:                              ## %then_bb45
	movq	40(%r11), %rax
	vxorps	%xmm0, %xmm0, %xmm0
	vmovups	%xmm0, (%r11)
	movq	$0, 16(%r11)
	movabsq	$4295041026, %rcx               ## imm = 0x100012002
	movq	%rcx, 32(%r11)
	movl	$0, (%rax)
	movl	504(%rsp), %ecx                 ## 4-byte Reload
	movl	%ecx, 4(%rax)
	movq	$1, 8(%rax)
	movq	$0, 24(%r11)
	jmp	LBB0_38
LBB0_37:                                ## %then_bb42
	movl	824(%rsp), %eax                 ## 4-byte Reload
	movq	232(%rsp), %rbx                 ## 8-byte Reload
	subl	%ebx, %eax
	movq	40(%r10), %rcx
	imull	$39, %eax, %edx
	vxorps	%xmm0, %xmm0, %xmm0
	vmovups	%xmm0, (%r10)
	movq	$0, 16(%r10)
	movabsq	$12884975618, %rsi              ## imm = 0x300012002
	movq	%rsi, 32(%r10)
	movl	%ebx, (%rcx)
	movq	104(%rbp), %r15
	movq	136(%rbp), %rbx
	movl	%eax, 4(%rcx)
	movq	$1, 8(%rcx)
	movq	40(%r10), %rcx
	movabsq	$167503724544, %rsi             ## imm = 0x2700000000
	movq	%rsi, 16(%rcx)
	movq	80(%rbp), %rsi
	movl	%eax, 24(%rcx)
	movl	$0, 28(%rcx)
	movq	40(%r10), %rax
	movl	$0, 32(%rax)
	movq	80(%rsp), %rcx                  ## 8-byte Reload
	movl	%ecx, 36(%rax)
	movl	%edx, 40(%rax)
	movl	$0, 44(%rax)
	movq	$0, 24(%r10)
	movq	72(%rbp), %r11
	cmpq	$0, 16(%r11)
	je	LBB0_35
LBB0_38:                                ## %after_bb44
	movq	120(%rbp), %rax
	cmpq	$0, 16(%rax)
	jne	LBB0_40
## %bb.39:                              ## %_halide_buffer_is_bounds_query.exit785
	cmpq	$0, (%rax)
	je	LBB0_43
LBB0_40:                                ## %after_bb47
	movq	112(%rbp), %rdx
	cmpq	$0, 16(%rdx)
	jne	LBB0_44
LBB0_41:                                ## %_halide_buffer_is_bounds_query.exit787
	cmpq	$0, (%rdx)
	jne	LBB0_44
## %bb.42:                              ## %then_bb51
	movq	40(%rdx), %rax
	vxorps	%xmm0, %xmm0, %xmm0
	vmovups	%xmm0, (%rdx)
	movq	$0, 16(%rdx)
	movabsq	$12884975618, %rcx              ## imm = 0x300012002
	movq	%rcx, 32(%rdx)
	vmovaps	LCPI0_5(%rip), %xmm0            ## xmm0 = [0,32,1,0]
	vmovups	%xmm0, (%rax)
	movq	40(%rdx), %rax
	vmovaps	LCPI0_15(%rip), %xmm0           ## xmm0 = [0,32,32,0]
	vmovups	%xmm0, 16(%rax)
	movq	40(%rdx), %rax
	vmovaps	LCPI0_16(%rip), %xmm0           ## xmm0 = [0,4,1024,0]
	vmovups	%xmm0, 32(%rax)
	movq	120(%rbp), %rax
	movq	$0, 24(%rdx)
	jmp	LBB0_44
LBB0_43:                                ## %_halide_buffer_init.exit789
	vmovaps	LCPI0_14(%rip), %ymm0           ## ymm0 = [0,32,1,0,0,4,32,0]
	vmovups	%ymm0, 6880(%rsp)
	movq	120(%rbp), %rax
	movq	40(%rax), %rax
	vxorps	%xmm0, %xmm0, %xmm0
	movq	120(%rbp), %rcx
	vmovups	%xmm0, (%rcx)
	movq	120(%rbp), %rcx
	movq	$0, 16(%rcx)
	movabsq	$8590008322, %rcx               ## imm = 0x200012002
	movq	120(%rbp), %r10
	movq	%rcx, 32(%r10)
	vmovaps	6880(%rsp), %xmm0
	vmovups	%xmm0, (%rax)
	movq	120(%rbp), %rax
	movq	40(%rax), %rax
	vmovaps	6896(%rsp), %xmm0
	vmovups	%xmm0, 16(%rax)
	movq	120(%rbp), %rax
	movq	$0, 24(%rax)
	movq	112(%rbp), %rdx
	cmpq	$0, 16(%rdx)
	je	LBB0_41
LBB0_44:                                ## %after_bb50
	cmpq	$0, 16(%r13)
	jne	LBB0_46
## %bb.45:                              ## %_halide_buffer_is_bounds_query.exit790
	cmpq	$0, (%r13)
	je	LBB0_49
LBB0_46:                                ## %after_bb53
	cmpq	$0, 16(%rsi)
	jne	LBB0_50
LBB0_47:                                ## %_halide_buffer_is_bounds_query.exit793
	cmpq	$0, (%rsi)
	jne	LBB0_50
## %bb.48:                              ## %then_bb57
	vmovaps	LCPI0_18(%rip), %ymm0           ## ymm0 = [0,8,1,0,0,40,8,0]
	vmovups	%ymm0, 6976(%rsp)
	vmovaps	LCPI0_19(%rip), %ymm0           ## ymm0 = [0,7,320,0,0,4,2240,0]
	vmovups	%ymm0, 7008(%rsp)
	movq	40(%rsi), %rax
	vxorps	%xmm0, %xmm0, %xmm0
	vmovups	%xmm0, (%rsi)
	movq	$0, 16(%rsi)
	movabsq	$17179942914, %rcx              ## imm = 0x400012002
	movq	%rcx, 32(%rsi)
	vmovups	6976(%rsp), %xmm0
	vmovups	%xmm0, (%rax)
	movq	40(%rsi), %rax
	vmovups	6992(%rsp), %xmm0
	vmovups	%xmm0, 16(%rax)
	movq	40(%rsi), %rax
	vmovups	7008(%rsp), %xmm0
	vmovups	%xmm0, 32(%rax)
	movq	40(%rsi), %rax
	vmovups	7024(%rsp), %xmm0
	vmovups	%xmm0, 48(%rax)
	movq	120(%rbp), %rax
	movq	$0, 24(%rsi)
	jmp	LBB0_50
LBB0_49:                                ## %_halide_buffer_init.exit795
	vmovaps	LCPI0_17(%rip), %ymm0           ## ymm0 = [0,8,1,0,0,4,8,0]
	vmovups	%ymm0, 6912(%rsp)
	movq	40(%r13), %rax
	vxorps	%xmm0, %xmm0, %xmm0
	vmovups	%xmm0, (%r13)
	movq	$0, 16(%r13)
	movabsq	$8590008322, %rcx               ## imm = 0x200012002
	movq	%rcx, 32(%r13)
	vmovaps	6912(%rsp), %xmm0
	vmovups	%xmm0, (%rax)
	movq	40(%r13), %rax
	vmovaps	6928(%rsp), %xmm0
	vmovups	%xmm0, 16(%rax)
	movq	120(%rbp), %rax
	movq	$0, 24(%r13)
	cmpq	$0, 16(%rsi)
	je	LBB0_47
LBB0_50:                                ## %after_bb56
	cmpq	$0, 16(%r15)
	jne	LBB0_52
## %bb.51:                              ## %_halide_buffer_is_bounds_query.exit796
	cmpq	$0, (%r15)
	je	LBB0_54
LBB0_52:                                ## %after_bb59
	cmpq	$0, 16(%r12)
	je	LBB0_55
LBB0_53:
	movl	$0, 328(%rsp)                   ## 4-byte Folded Spill
	cmpq	$0, 16(%r15)
	je	LBB0_74
LBB0_57:
	movl	$0, 544(%rsp)                   ## 4-byte Folded Spill
	cmpq	$0, 16(%rsi)
	je	LBB0_75
LBB0_58:
	movl	$0, 536(%rsp)                   ## 4-byte Folded Spill
	cmpq	$0, 16(%r13)
	je	LBB0_76
LBB0_59:
	movl	$0, 528(%rsp)                   ## 4-byte Folded Spill
	cmpq	$0, 16(%rdx)
	je	LBB0_77
LBB0_60:
	movl	$0, 520(%rsp)                   ## 4-byte Folded Spill
	movq	%r9, 136(%rsp)                  ## 8-byte Spill
	cmpq	$0, 16(%rax)
	je	LBB0_78
LBB0_61:
	xorl	%r12d, %r12d
	movq	16(%rbp), %r9
	cmpq	$0, 16(%r11)
	je	LBB0_79
LBB0_62:
	xorl	%r13d, %r13d
	movq	24(%rsp), %rax                  ## 8-byte Reload
	cmpq	$0, 16(%rax)
	je	LBB0_80
LBB0_63:
	xorl	%r15d, %r15d
	cmpq	$0, 16(%r14)
	je	LBB0_81
LBB0_64:
	xorl	%edx, %edx
	movq	48(%rbp), %r11
	cmpq	$0, 16(%rdi)
	je	LBB0_82
LBB0_65:
	xorl	%esi, %esi
	cmpq	$0, 16(%rbx)
	je	LBB0_83
LBB0_66:
	xorl	%edi, %edi
	movq	24(%rbp), %rax
	cmpq	$0, 16(%rax)
	je	LBB0_84
LBB0_67:
	xorl	%ebx, %ebx
	cmpq	$0, 16(%r8)
	je	LBB0_85
LBB0_68:
	xorl	%eax, %eax
	movq	816(%rsp), %rcx                 ## 8-byte Reload
	cmpq	$0, 16(%rcx)
	je	LBB0_86
LBB0_69:
	xorl	%r8d, %r8d
	cmpq	$0, 16(%r9)
	je	LBB0_87
LBB0_70:
	xorl	%r9d, %r9d
	cmpq	$0, 16(%r11)
	je	LBB0_88
LBB0_71:
	xorl	%r10d, %r10d
	jmp	LBB0_89
LBB0_54:                                ## %_halide_buffer_init.exit801
	vmovaps	LCPI0_20(%rip), %ymm0           ## ymm0 = [0,24,1,0,0,4,24,0]
	vmovups	%ymm0, 6944(%rsp)
	movq	40(%r15), %rax
	vxorps	%xmm0, %xmm0, %xmm0
	vmovups	%xmm0, (%r15)
	movq	$0, 16(%r15)
	movabsq	$8590008322, %rcx               ## imm = 0x200012002
	movq	%rcx, 32(%r15)
	vmovaps	6944(%rsp), %xmm0
	vmovups	%xmm0, (%rax)
	movq	40(%r15), %rax
	vmovaps	6960(%rsp), %xmm0
	vmovups	%xmm0, 16(%rax)
	movq	120(%rbp), %rax
	movq	$0, 24(%r15)
	cmpq	$0, 16(%r12)
	jne	LBB0_53
LBB0_55:                                ## %_halide_buffer_is_bounds_query.exit799
	cmpq	$0, (%r12)
	je	LBB0_72
LBB0_56:                                ## %after_bb62.thread
	cmpq	$0, (%r12)
	sete	%cl
	movl	%ecx, 328(%rsp)                 ## 4-byte Spill
	cmpq	$0, 16(%r15)
	jne	LBB0_57
LBB0_74:
	cmpq	$0, (%r15)
	sete	%cl
	movl	%ecx, 544(%rsp)                 ## 4-byte Spill
	cmpq	$0, 16(%rsi)
	jne	LBB0_58
LBB0_75:
	cmpq	$0, (%rsi)
	sete	%cl
	movl	%ecx, 536(%rsp)                 ## 4-byte Spill
	cmpq	$0, 16(%r13)
	jne	LBB0_59
LBB0_76:
	cmpq	$0, (%r13)
	sete	%sil
	movl	%esi, 528(%rsp)                 ## 4-byte Spill
	cmpq	$0, 16(%rdx)
	jne	LBB0_60
LBB0_77:
	cmpq	$0, (%rdx)
	sete	%dl
	movl	%edx, 520(%rsp)                 ## 4-byte Spill
	movq	%r9, 136(%rsp)                  ## 8-byte Spill
	cmpq	$0, 16(%rax)
	jne	LBB0_61
LBB0_78:
	cmpq	$0, (%rax)
	sete	%r12b
	movq	16(%rbp), %r9
	cmpq	$0, 16(%r11)
	jne	LBB0_62
LBB0_79:
	cmpq	$0, (%r11)
	sete	%r13b
	movq	24(%rsp), %rax                  ## 8-byte Reload
	cmpq	$0, 16(%rax)
	jne	LBB0_63
LBB0_80:
	cmpq	$0, (%rax)
	sete	%r15b
	cmpq	$0, 16(%r14)
	jne	LBB0_64
LBB0_81:
	cmpq	$0, (%r14)
	sete	%dl
	movq	48(%rbp), %r11
	cmpq	$0, 16(%rdi)
	jne	LBB0_65
LBB0_82:
	cmpq	$0, (%rdi)
	sete	%sil
	cmpq	$0, 16(%rbx)
	jne	LBB0_66
LBB0_83:
	cmpq	$0, (%rbx)
	sete	%dil
	movq	24(%rbp), %rax
	cmpq	$0, 16(%rax)
	jne	LBB0_67
LBB0_84:
	cmpq	$0, (%rax)
	sete	%bl
	cmpq	$0, 16(%r8)
	jne	LBB0_68
LBB0_85:
	cmpq	$0, (%r8)
	sete	%al
	movq	816(%rsp), %rcx                 ## 8-byte Reload
	cmpq	$0, 16(%rcx)
	jne	LBB0_69
LBB0_86:
	cmpq	$0, (%rcx)
	sete	%r8b
	cmpq	$0, 16(%r9)
	jne	LBB0_70
LBB0_87:
	cmpq	$0, (%r9)
	sete	%r9b
	cmpq	$0, 16(%r11)
	jne	LBB0_71
LBB0_88:
	cmpq	$0, (%r11)
	sete	%r10b
LBB0_89:                                ## %_halide_buffer_is_bounds_query.exit817
	xorl	%r14d, %r14d
	movq	40(%rbp), %rcx
	cmpq	$0, 16(%rcx)
	movl	$0, %r11d
	jne	LBB0_91
## %bb.90:
	movq	40(%rbp), %rcx
	cmpq	$0, (%rcx)
	sete	%r11b
LBB0_91:                                ## %_halide_buffer_is_bounds_query.exit818
	orb	%r11b, %r10b
	orb	%r10b, %r9b
	orb	%r9b, %r8b
	orb	%r8b, %al
	orb	%al, %bl
	orb	%bl, %dil
	orb	%dil, %sil
	orb	%sil, %dl
	orb	%dl, %r15b
	orb	%r15b, %r13b
	orb	%r13b, %r12b
	movl	520(%rsp), %eax                 ## 4-byte Reload
	orb	%r12b, %al
	movl	528(%rsp), %ecx                 ## 4-byte Reload
	orb	%al, %cl
	movl	536(%rsp), %eax                 ## 4-byte Reload
	orb	%cl, %al
	movl	544(%rsp), %ecx                 ## 4-byte Reload
	orb	%al, %cl
	movl	328(%rsp), %eax                 ## 4-byte Reload
	orb	%cl, %al
	testb	$1, %al
	jne	LBB0_235
## %bb.92:                              ## %then_bb66
	xorl	%eax, %eax
	cmpl	$73730, 1040(%rsp)              ## 4-byte Folded Reload
                                        ## imm = 0x12002
	setne	%al
	movq	%rax, 328(%rsp)                 ## 8-byte Spill
	xorl	%eax, %eax
	cmpl	$1, 1032(%rsp)                  ## 4-byte Folded Reload
	sete	%al
	movl	%eax, 520(%rsp)                 ## 4-byte Spill
	xorl	%eax, %eax
	cmpl	$73730, 420(%rsp)               ## 4-byte Folded Reload
                                        ## imm = 0x12002
	sete	%al
	movl	%eax, 1324(%rsp)                ## 4-byte Spill
	xorl	%eax, %eax
	cmpl	$2, 1024(%rsp)                  ## 4-byte Folded Reload
	sete	%al
	movl	%eax, 1320(%rsp)                ## 4-byte Spill
	xorl	%eax, %eax
	cmpl	$73730, 416(%rsp)               ## 4-byte Folded Reload
                                        ## imm = 0x12002
	sete	%al
	movl	%eax, 1304(%rsp)                ## 4-byte Spill
	xorl	%eax, %eax
	cmpl	$1, 1016(%rsp)                  ## 4-byte Folded Reload
	sete	%al
	movl	%eax, 1292(%rsp)                ## 4-byte Spill
	xorl	%r8d, %r8d
	cmpl	$73730, 412(%rsp)               ## 4-byte Folded Reload
                                        ## imm = 0x12002
	sete	%r8b
	xorl	%r10d, %r10d
	cmpl	$3, 1008(%rsp)                  ## 4-byte Folded Reload
	sete	%r10b
	xorl	%eax, %eax
	cmpl	$73730, 1000(%rsp)              ## 4-byte Folded Reload
                                        ## imm = 0x12002
	sete	%al
	movl	%eax, 1284(%rsp)                ## 4-byte Spill
	xorl	%eax, %eax
	cmpl	$1, 992(%rsp)                   ## 4-byte Folded Reload
	sete	%al
	movl	%eax, 1276(%rsp)                ## 4-byte Spill
	xorl	%eax, %eax
	cmpl	$73730, 984(%rsp)               ## 4-byte Folded Reload
                                        ## imm = 0x12002
	sete	%al
	movl	%eax, 1272(%rsp)                ## 4-byte Spill
	xorl	%eax, %eax
	cmpl	$2, 976(%rsp)                   ## 4-byte Folded Reload
	sete	%al
	movl	%eax, 1268(%rsp)                ## 4-byte Spill
	xorl	%eax, %eax
	cmpl	$73730, 968(%rsp)               ## 4-byte Folded Reload
                                        ## imm = 0x12002
	sete	%al
	movl	%eax, 1296(%rsp)                ## 4-byte Spill
	xorl	%eax, %eax
	cmpl	$0, 408(%rsp)                   ## 4-byte Folded Reload
	sete	%al
	movl	%eax, 1288(%rsp)                ## 4-byte Spill
	xorl	%eax, %eax
	cmpl	$73730, 404(%rsp)               ## 4-byte Folded Reload
                                        ## imm = 0x12002
	sete	%al
	movl	%eax, 1280(%rsp)                ## 4-byte Spill
	xorl	%r9d, %r9d
	cmpl	$3, 400(%rsp)                   ## 4-byte Folded Reload
	sete	%r9b
	xorl	%eax, %eax
	cmpl	$73730, 396(%rsp)               ## 4-byte Folded Reload
                                        ## imm = 0x12002
	sete	%al
	movl	%eax, 1316(%rsp)                ## 4-byte Spill
	xorl	%eax, %eax
	cmpl	$1, 960(%rsp)                   ## 4-byte Folded Reload
	sete	%al
	movl	%eax, 1300(%rsp)                ## 4-byte Spill
	xorl	%eax, %eax
	cmpl	$73730, 952(%rsp)               ## 4-byte Folded Reload
                                        ## imm = 0x12002
	sete	%al
	movl	%eax, 1308(%rsp)                ## 4-byte Spill
	xorl	%eax, %eax
	cmpl	$3, 392(%rsp)                   ## 4-byte Folded Reload
	sete	%al
	movl	%eax, 1312(%rsp)                ## 4-byte Spill
	xorl	%eax, %eax
	cmpl	$73730, 388(%rsp)               ## 4-byte Folded Reload
                                        ## imm = 0x12002
	setne	%al
	shlq	$20, %rax
	movq	%rax, 536(%rsp)                 ## 8-byte Spill
	xorl	%eax, %eax
	cmpl	$1, 384(%rsp)                   ## 4-byte Folded Reload
	setne	%al
	shlq	$21, %rax
	movq	%rax, 528(%rsp)                 ## 8-byte Spill
	xorl	%eax, %eax
	cmpl	$73730, 380(%rsp)               ## 4-byte Folded Reload
                                        ## imm = 0x12002
	setne	%al
	shlq	$22, %rax
	xorl	%ecx, %ecx
	cmpl	$2, 376(%rsp)                   ## 4-byte Folded Reload
	setne	%cl
	shlq	$23, %rcx
	movq	%rcx, 1632(%rsp)                ## 8-byte Spill
	xorl	%ecx, %ecx
	cmpl	$73730, 372(%rsp)               ## 4-byte Folded Reload
                                        ## imm = 0x12002
	setne	%cl
	shlq	$24, %rcx
	movq	%rcx, 1624(%rsp)                ## 8-byte Spill
	xorl	%ecx, %ecx
	cmpl	$3, 368(%rsp)                   ## 4-byte Folded Reload
	setne	%cl
	shlq	$25, %rcx
	movq	%rcx, 1616(%rsp)                ## 8-byte Spill
	xorl	%ecx, %ecx
	cmpl	$73730, 364(%rsp)               ## 4-byte Folded Reload
                                        ## imm = 0x12002
	setne	%cl
	shlq	$26, %rcx
	movq	%rcx, 1608(%rsp)                ## 8-byte Spill
	xorl	%ecx, %ecx
	cmpl	$2, 360(%rsp)                   ## 4-byte Folded Reload
	setne	%cl
	shlq	$27, %rcx
	movq	%rcx, 1600(%rsp)                ## 8-byte Spill
	xorl	%ecx, %ecx
	cmpl	$73730, 356(%rsp)               ## 4-byte Folded Reload
                                        ## imm = 0x12002
	setne	%cl
	shlq	$28, %rcx
	movq	%rcx, 1592(%rsp)                ## 8-byte Spill
	xorl	%ecx, %ecx
	cmpl	$4, 352(%rsp)                   ## 4-byte Folded Reload
	setne	%cl
	shlq	$29, %rcx
	movq	%rcx, 1584(%rsp)                ## 8-byte Spill
	xorl	%ecx, %ecx
	cmpl	$73730, 880(%rsp)               ## 4-byte Folded Reload
                                        ## imm = 0x12002
	setne	%cl
	shlq	$30, %rcx
	movq	%rcx, 1576(%rsp)                ## 8-byte Spill
	xorl	%ecx, %ecx
	cmpl	$2, 876(%rsp)                   ## 4-byte Folded Reload
	setne	%cl
	shlq	$31, %rcx
	movq	%rcx, 1568(%rsp)                ## 8-byte Spill
	xorl	%ecx, %ecx
	cmpl	$73730, 872(%rsp)               ## 4-byte Folded Reload
                                        ## imm = 0x12002
	setne	%cl
	shlq	$32, %rcx
	movq	%rcx, 1560(%rsp)                ## 8-byte Spill
	xorl	%ecx, %ecx
	cmpl	$3, 868(%rsp)                   ## 4-byte Folded Reload
	setne	%cl
	shlq	$33, %rcx
	movq	%rcx, 1552(%rsp)                ## 8-byte Spill
	movq	808(%rsp), %rdx                 ## 8-byte Reload
	testl	%edx, %edx
	setg	%cl
	movq	800(%rsp), %rsi                 ## 8-byte Reload
	addl	%esi, %edx
	movl	%edx, 1264(%rsp)                ## 4-byte Spill
	cmpl	$32, %edx
	setl	%dl
	orb	%cl, %dl
	movb	%dl, 231(%rsp)                  ## 1-byte Spill
                                        ## kill: def $esi killed $esi killed $rsi def $rsi
	andl	$-2147483648, %esi              ## imm = 0x80000000
	shlq	$4, %rsi
	movq	%rsi, 1544(%rsp)                ## 8-byte Spill
	movq	760(%rsp), %rsi                 ## 8-byte Reload
	testl	%esi, %esi
	setg	%cl
	vmovd	%xmm10, %edx
	addl	%edx, %esi
	movl	%esi, 1260(%rsp)                ## 4-byte Spill
	cmpl	$32, %esi
	setl	%bl
	orb	%cl, %bl
	movb	%bl, 230(%rsp)                  ## 1-byte Spill
	movq	%rdx, 544(%rsp)                 ## 8-byte Spill
                                        ## kill: def $edx killed $edx killed $rdx def $rdx
	shrl	$31, %edx
	shlq	$37, %rdx
	movq	%rdx, 1536(%rsp)                ## 8-byte Spill
	movq	776(%rsp), %rsi                 ## 8-byte Reload
	cmpl	488(%rsp), %esi                 ## 4-byte Folded Reload
	setg	%cl
	movq	1144(%rsp), %rdx                ## 8-byte Reload
	addl	$24, %edx
	movq	744(%rsp), %rdi                 ## 8-byte Reload
	addl	%edi, %esi
	movl	%esi, 1256(%rsp)                ## 4-byte Spill
	cmpl	%esi, %edx
	vmovd	%r8d, %xmm0
	vpinsrb	$4, %r10d, %xmm0, %xmm0
	setg	%dl
	orb	%cl, %dl
                                        ## kill: def $edi killed $edi killed $rdi def $rdi
	andl	$-2147483648, %edi              ## imm = 0x80000000
	shlq	$8, %rdi
	movq	%rdi, 1528(%rsp)                ## 8-byte Spill
	movq	720(%rsp), %rsi                 ## 8-byte Reload
	testl	%esi, %esi
	setg	%cl
	movq	688(%rsp), %rdi                 ## 8-byte Reload
	addl	%edi, %esi
	movl	%esi, 1252(%rsp)                ## 4-byte Spill
	cmpl	$8, %esi
	setl	%r15b
	orb	%cl, %r15b
                                        ## kill: def $edi killed $edi killed $rdi def $rdi
	andl	$-2147483648, %edi              ## imm = 0x80000000
	shlq	$10, %rdi
	movq	%rdi, 1520(%rsp)                ## 8-byte Spill
	movq	672(%rsp), %rsi                 ## 8-byte Reload
	testl	%esi, %esi
	setg	%cl
	movq	40(%rsp), %rdi                  ## 8-byte Reload
	addl	%edi, %esi
	movl	%esi, 1248(%rsp)                ## 4-byte Spill
	cmpl	$8, %esi
	setl	%bl
	orb	%cl, %bl
	movzbl	%bl, %ecx
	vpinsrb	$8, %ecx, %xmm0, %xmm0
	movzbl	%dl, %ecx
	vpinsrb	$12, %ecx, %xmm0, %xmm0
	vmovd	%r9d, %xmm1
                                        ## kill: def $edi killed $edi killed $rdi def $rdi
	andl	$-2147483648, %edi              ## imm = 0x80000000
	shlq	$12, %rdi
	movq	%rdi, 1512(%rsp)                ## 8-byte Spill
	movq	664(%rsp), %rdx                 ## 8-byte Reload
	testl	%edx, %edx
	setg	%cl
	movq	640(%rsp), %rsi                 ## 8-byte Reload
	addl	%esi, %edx
	movl	%edx, 1244(%rsp)                ## 4-byte Spill
	cmpl	$40, %edx
	setl	%r12b
	orb	%cl, %r12b
                                        ## kill: def $esi killed $esi killed $rsi def $rsi
	andl	$-2147483648, %esi              ## imm = 0x80000000
	shlq	$14, %rsi
	movq	%rsi, 1504(%rsp)                ## 8-byte Spill
	movq	656(%rsp), %rcx                 ## 8-byte Reload
	testl	%ecx, %ecx
	setg	%dl
	movq	632(%rsp), %rsi                 ## 8-byte Reload
	addl	%esi, %ecx
	movl	%ecx, 1240(%rsp)                ## 4-byte Spill
	cmpl	$7, %ecx
	setl	%dil
	orb	%dl, %dil
                                        ## kill: def $esi killed $esi killed $rsi def $rsi
	andl	$-2147483648, %esi              ## imm = 0x80000000
	shlq	$16, %rsi
	movq	%rsi, 1496(%rsp)                ## 8-byte Spill
	movq	608(%rsp), %rcx                 ## 8-byte Reload
	testl	%ecx, %ecx
	setg	%dl
	movq	584(%rsp), %rbx                 ## 8-byte Reload
	addl	%ebx, %ecx
	movl	%ecx, 1232(%rsp)                ## 4-byte Spill
	cmpl	$24, %ecx
	setl	%sil
	orb	%dl, %sil
                                        ## kill: def $ebx killed $ebx killed $rbx def $rbx
	andl	$-2147483648, %ebx              ## imm = 0x80000000
	shlq	$18, %rbx
	movq	%rbx, 1488(%rsp)                ## 8-byte Spill
	movq	576(%rsp), %rcx                 ## 8-byte Reload
	testl	%ecx, %ecx
	setg	%dl
	movq	552(%rsp), %r14                 ## 8-byte Reload
	addl	%r14d, %ecx
	movl	%ecx, 1224(%rsp)                ## 4-byte Spill
	cmpl	$24, %ecx
	setl	%cl
	orb	%dl, %cl
                                        ## kill: def $r14d killed $r14d killed $r14 def $r14
	andl	$-2147483648, %r14d             ## imm = 0x80000000
	shlq	$20, %r14
	movq	344(%rsp), %rdx                 ## 8-byte Reload
	testl	%edx, %edx
	setg	%r8b
	movq	336(%rsp), %r11                 ## 8-byte Reload
	addl	%r11d, %edx
	movl	%edx, 1220(%rsp)                ## 4-byte Spill
	cmpl	$39, %edx
	setl	%r9b
	orb	%r8b, %r9b
                                        ## kill: def $r11d killed $r11d killed $r11 def $r11
	andl	$-2147483648, %r11d             ## imm = 0x80000000
	shlq	$22, %r11
	movq	1112(%rsp), %rdx                ## 8-byte Reload
	testl	%edx, %edx
	setg	%r8b
	movq	160(%rsp), %r10                 ## 8-byte Reload
	addl	%r10d, %edx
	movl	%edx, 1216(%rsp)                ## 4-byte Spill
	cmpl	$40, %edx
	setl	%bl
	orb	%r8b, %bl
	movzbl	%bl, %ebx
	vpinsrb	$4, %ebx, %xmm1, %xmm1
                                        ## kill: def $r10d killed $r10d killed $r10 def $r10
	andl	$-2147483648, %r10d             ## imm = 0x80000000
	shlq	$24, %r10
	movq	1104(%rsp), %rdx                ## 8-byte Reload
	testl	%edx, %edx
	setg	%bl
	movq	464(%rsp), %r8                  ## 8-byte Reload
	addl	%r8d, %edx
	movl	%edx, 1236(%rsp)                ## 4-byte Spill
	cmpl	$7, %edx
	setl	%dl
	orb	%bl, %dl
	movzbl	%dl, %edx
	vpinsrb	$8, %edx, %xmm1, %xmm1
                                        ## kill: def $r8d killed $r8d killed $r8 def $r8
	andl	$-2147483648, %r8d              ## imm = 0x80000000
	shlq	$26, %r8
	movq	840(%rsp), %rbx                 ## 8-byte Reload
	cmpl	104(%rsp), %ebx                 ## 4-byte Folded Reload
	setge	%dl
	movq	472(%rsp), %r13                 ## 8-byte Reload
	addl	%r13d, %ebx
	movl	%ebx, 1228(%rsp)                ## 4-byte Spill
	cmpl	%ebx, 80(%rsp)                  ## 4-byte Folded Reload
	setg	%bl
	orb	%dl, %bl
	movzbl	%bl, %edx
	vpinsrb	$12, %edx, %xmm1, %xmm1
	movzbl	%sil, %edx
	vmovd	%edx, %xmm2
	vpinsrb	$4, 1272(%rsp), %xmm2, %xmm2    ## 4-byte Folded Reload
	vpinsrb	$8, 1268(%rsp), %xmm2, %xmm2    ## 4-byte Folded Reload
	movzbl	%cl, %ecx
	vpinsrb	$12, %ecx, %xmm2, %xmm2
	movzbl	230(%rsp), %ecx                 ## 1-byte Folded Reload
	vmovd	%ecx, %xmm3
	vpinsrb	$4, 1304(%rsp), %xmm3, %xmm3    ## 4-byte Folded Reload
	vpinsrb	$8, 1292(%rsp), %xmm3, %xmm3    ## 4-byte Folded Reload
	movzbl	%r15b, %ecx
	vpinsrb	$12, %ecx, %xmm3, %xmm3
	movzbl	%r12b, %ecx
	vmovd	%ecx, %xmm4
	movzbl	%dil, %ecx
	vpinsrb	$4, %ecx, %xmm4, %xmm4
	vpinsrb	$8, 1284(%rsp), %xmm4, %xmm4    ## 4-byte Folded Reload
	vpinsrb	$12, 1276(%rsp), %xmm4, %xmm4   ## 4-byte Folded Reload
	vmovd	520(%rsp), %xmm5                ## 4-byte Folded Reload
                                        ## xmm5 = mem[0],zero,zero,zero
	movzbl	231(%rsp), %ecx                 ## 1-byte Folded Reload
	vpinsrb	$4, %ecx, %xmm5, %xmm5
	vpinsrb	$8, 1324(%rsp), %xmm5, %xmm5    ## 4-byte Folded Reload
	vpinsrb	$12, 1320(%rsp), %xmm5, %xmm5   ## 4-byte Folded Reload
	movzbl	%r9b, %ecx
	vmovd	%ecx, %xmm6
	vpinsrb	$4, 1296(%rsp), %xmm6, %xmm6    ## 4-byte Folded Reload
	vpinsrb	$8, 1288(%rsp), %xmm6, %xmm6    ## 4-byte Folded Reload
	vpinsrb	$12, 1280(%rsp), %xmm6, %xmm6   ## 4-byte Folded Reload
	vpslld	$31, %xmm0, %xmm0
	vpmovsxdq	%xmm0, %ymm0
	vmovapd	LCPI0_24(%rip), %ymm7           ## ymm7 = [64,128,0,0]
	vblendvpd	%ymm0, LCPI0_23(%rip), %ymm7, %ymm0
	vmovd	1316(%rsp), %xmm7               ## 4-byte Folded Reload
                                        ## xmm7 = mem[0],zero,zero,zero
	vpslld	$31, %xmm1, %xmm1
	vpmovsxdq	%xmm1, %ymm1
	vmovapd	LCPI0_25(%rip), %xmm8           ## xmm8 = [32768,0,0,0]
	vblendvpd	%ymm1, LCPI0_26(%rip), %ymm8, %ymm1
	vpinsrb	$4, 1300(%rsp), %xmm7, %xmm7    ## 4-byte Folded Reload
	vpslld	$31, %xmm2, %xmm2
	vpmovsxdq	%xmm2, %ymm2
	vmovapd	LCPI0_28(%rip), %ymm8           ## ymm8 = [0,1024,2048,0]
	vblendvpd	%ymm2, LCPI0_27(%rip), %ymm8, %ymm2
	vpinsrb	$8, 1308(%rsp), %xmm7, %xmm7    ## 4-byte Folded Reload
	vpslld	$31, %xmm3, %xmm3
	vpmovsxdq	%xmm3, %ymm3
	vmovapd	LCPI0_30(%rip), %ymm8           ## ymm8 = [0,16,32,0]
	vblendvpd	%ymm3, LCPI0_29(%rip), %ymm8, %ymm3
	vpinsrb	$12, 1312(%rsp), %xmm7, %xmm7   ## 4-byte Folded Reload
	vpslld	$31, %xmm4, %xmm4
	vpmovsxdq	%xmm4, %ymm4
	vmovapd	LCPI0_32(%rip), %ymm8           ## ymm8 = [0,0,256,512]
	vblendvpd	%ymm4, LCPI0_31(%rip), %ymm8, %ymm4
	vpslld	$31, %xmm6, %xmm6
	vpmovsxdq	%xmm6, %ymm6
	vmovapd	LCPI0_35(%rip), %xmm8           ## xmm8 = [4503599627370496,0]
	vmovapd	LCPI0_36(%rip), %ymm9           ## ymm9 = [0,4096,8192,16384]
	vblendvpd	%ymm6, %ymm8, %ymm9, %ymm6
	vpslld	$31, %xmm5, %xmm5
	vpmovsxdq	%xmm5, %ymm5
	vmovapd	LCPI0_34(%rip), %ymm8           ## ymm8 = [2,0,4,8]
	vblendvpd	%ymm5, LCPI0_33(%rip), %ymm8, %ymm5
	vorpd	%ymm1, %ymm0, %ymm0
	vorpd	%ymm0, %ymm5, %ymm0
	vpslld	$31, %xmm7, %xmm1
	vpsrad	$31, %xmm1, %xmm1
	vpmovsxdq	%xmm1, %ymm1
	vpandn	LCPI0_37(%rip), %ymm1, %ymm1
	vorpd	%ymm0, %ymm2, %ymm0
	vorpd	%ymm1, %ymm4, %ymm1
	vorpd	%ymm1, %ymm6, %ymm1
	vorpd	%ymm1, %ymm3, %ymm1
	vorpd	%ymm1, %ymm0, %ymm0
                                        ## kill: def $r13d killed $r13d killed $r13 def $r13
	andl	$-2147483648, %r13d             ## imm = 0x80000000
	shlq	$28, %r13
	movq	832(%rsp), %r12                 ## 8-byte Reload
                                        ## kill: def $r12d killed $r12d killed $r12 def $r12
	andl	$-2147483648, %r12d             ## imm = 0x80000000
	shlq	$30, %r12
	movq	320(%rsp), %rdx                 ## 8-byte Reload
	cmpl	232(%rsp), %edx                 ## 4-byte Folded Reload
	setg	%cl
	movq	208(%rsp), %rsi                 ## 8-byte Reload
	leal	(%rsi,%rdx), %edi
	cmpl	%edi, 824(%rsp)                 ## 4-byte Folded Reload
	vextractf128	$1, %ymm0, %xmm1
	vorpd	%xmm1, %xmm0, %xmm0
	vpermilps	$238, %xmm0, %xmm1      ## xmm1 = xmm0[2,3,2,3]
	vorpd	%xmm1, %xmm0, %xmm0
	setg	%dl
	vmovq	%xmm0, %r15
	orq	536(%rsp), %r15                 ## 8-byte Folded Reload
	orb	%cl, %dl
	movzbl	%dl, %ecx
	shlq	$62, %rcx
	orq	%rcx, %r15
	orq	528(%rsp), %rax                 ## 8-byte Folded Reload
	orq	1632(%rsp), %rax                ## 8-byte Folded Reload
	orq	1624(%rsp), %rax                ## 8-byte Folded Reload
	orq	1616(%rsp), %rax                ## 8-byte Folded Reload
	orq	1608(%rsp), %rax                ## 8-byte Folded Reload
	orq	1600(%rsp), %rax                ## 8-byte Folded Reload
	orq	1592(%rsp), %rax                ## 8-byte Folded Reload
	orq	1584(%rsp), %rax                ## 8-byte Folded Reload
	orq	1576(%rsp), %rax                ## 8-byte Folded Reload
	orq	1568(%rsp), %rax                ## 8-byte Folded Reload
	orq	1560(%rsp), %rax                ## 8-byte Folded Reload
	orq	1552(%rsp), %rax                ## 8-byte Folded Reload
	orq	328(%rsp), %rax                 ## 8-byte Folded Reload
	orq	1544(%rsp), %rax                ## 8-byte Folded Reload
	orq	1536(%rsp), %rax                ## 8-byte Folded Reload
	orq	1528(%rsp), %rax                ## 8-byte Folded Reload
	orq	1520(%rsp), %rax                ## 8-byte Folded Reload
	orq	1512(%rsp), %rax                ## 8-byte Folded Reload
	orq	1504(%rsp), %rax                ## 8-byte Folded Reload
	orq	1496(%rsp), %rax                ## 8-byte Folded Reload
	orq	1488(%rsp), %rax                ## 8-byte Folded Reload
	orq	%r14, %rax
	orq	%r11, %rax
	orq	%r10, %rax
	orq	%r8, %rax
	orq	%r13, %rax
	orq	%r12, %rax
	movabsq	$-9223372036854775808, %rcx     ## imm = 0x8000000000000000
	orq	%rcx, %rax
	orq	%r15, %rax
	tzcntq	%rax, %rax
	cmpl	$62, %eax
	jbe	LBB0_285
## %bb.93:                              ## %no_errors_bb68
	shrq	$31, %rsi
	movq	%rsi, 536(%rsp)                 ## 8-byte Spill
	movq	288(%rsp), %rcx                 ## 8-byte Reload
	testl	%ecx, %ecx
	setg	%al
	movq	448(%rsp), %rdx                 ## 8-byte Reload
	addl	%edx, %ecx
	movl	%ecx, 392(%rsp)                 ## 4-byte Spill
	cmpl	$39, %ecx
	setl	%bl
	orb	%al, %bl
	shrq	$29, %rdx
	andl	$-4, %edx
	movq	%rdx, 528(%rsp)                 ## 8-byte Spill
	movq	440(%rsp), %rcx                 ## 8-byte Reload
	testl	%ecx, %ecx
	setg	%al
	movq	456(%rsp), %rdx                 ## 8-byte Reload
	addl	%edx, %ecx
	movl	%ecx, 388(%rsp)                 ## 4-byte Spill
	cmpl	%ecx, 80(%rsp)                  ## 4-byte Folded Reload
	setg	%cl
	orb	%al, %cl
	movb	%cl, 420(%rsp)                  ## 1-byte Spill
	shrq	$27, %rdx
	andl	$-16, %edx
	movq	%rdx, 520(%rsp)                 ## 8-byte Spill
	movq	1128(%rsp), %rcx                ## 8-byte Reload
	testl	%ecx, %ecx
	setg	%al
	movq	480(%rsp), %rdx                 ## 8-byte Reload
	addl	%edx, %ecx
	movl	%ecx, 384(%rsp)                 ## 4-byte Spill
	cmpl	%ecx, 504(%rsp)                 ## 4-byte Folded Reload
	setg	%cl
	orb	%al, %cl
	movb	%cl, 416(%rsp)                  ## 1-byte Spill
	shrq	$25, %rdx
	andl	$-64, %edx
	movq	%rdx, 824(%rsp)                 ## 8-byte Spill
	movq	792(%rsp), %rcx                 ## 8-byte Reload
	testl	%ecx, %ecx
	setg	%al
	movq	768(%rsp), %rdx                 ## 8-byte Reload
	addl	%edx, %ecx
	movl	%ecx, 380(%rsp)                 ## 4-byte Spill
	cmpl	$32, %ecx
	setl	%cl
	orb	%al, %cl
	movb	%cl, 412(%rsp)                  ## 1-byte Spill
	shrq	$23, %rdx
	andl	$256, %edx                      ## imm = 0x100
	movq	%rdx, 1040(%rsp)                ## 8-byte Spill
	movq	784(%rsp), %rcx                 ## 8-byte Reload
	testl	%ecx, %ecx
	setg	%al
	movq	752(%rsp), %rdx                 ## 8-byte Reload
	addl	%edx, %ecx
	movl	%ecx, 376(%rsp)                 ## 4-byte Spill
	cmpl	$4, %ecx
	setl	%cl
	orb	%al, %cl
	movb	%cl, 408(%rsp)                  ## 1-byte Spill
	shrq	$21, %rdx
	andl	$1024, %edx                     ## imm = 0x400
	movq	%rdx, 1032(%rsp)                ## 8-byte Spill
	movq	736(%rsp), %rcx                 ## 8-byte Reload
	testl	%ecx, %ecx
	setg	%al
	movq	712(%rsp), %rdx                 ## 8-byte Reload
	addl	%edx, %ecx
	movl	%ecx, 372(%rsp)                 ## 4-byte Spill
	cmpl	$32, %ecx
	setl	%cl
	orb	%al, %cl
	movb	%cl, 404(%rsp)                  ## 1-byte Spill
	shrq	$19, %rdx
	andl	$4096, %edx                     ## imm = 0x1000
	movq	%rdx, 1024(%rsp)                ## 8-byte Spill
	movq	728(%rsp), %rcx                 ## 8-byte Reload
	testl	%ecx, %ecx
	setg	%al
	movq	696(%rsp), %rdx                 ## 8-byte Reload
	addl	%edx, %ecx
	movl	%ecx, 368(%rsp)                 ## 4-byte Spill
	cmpl	$32, %ecx
	setl	%cl
	orb	%al, %cl
	movb	%cl, 400(%rsp)                  ## 1-byte Spill
	shrq	$17, %rdx
	andl	$16384, %edx                    ## imm = 0x4000
	movq	%rdx, 1016(%rsp)                ## 8-byte Spill
	movq	704(%rsp), %rcx                 ## 8-byte Reload
	testl	%ecx, %ecx
	setg	%al
	movq	680(%rsp), %rdx                 ## 8-byte Reload
	addl	%edx, %ecx
	movl	%ecx, 364(%rsp)                 ## 4-byte Spill
	cmpl	$4, %ecx
	setl	%cl
	orb	%al, %cl
	movb	%cl, 396(%rsp)                  ## 1-byte Spill
	shrq	$15, %rdx
	andl	$65536, %edx                    ## imm = 0x10000
	movq	%rdx, 1008(%rsp)                ## 8-byte Spill
	movq	264(%rsp), %rax                 ## 8-byte Reload
	shrq	$13, %rax
	andl	$262144, %eax                   ## imm = 0x40000
	movq	%rax, 1000(%rsp)                ## 8-byte Spill
	movq	648(%rsp), %rax                 ## 8-byte Reload
	shrq	$11, %rax
	andl	$1048576, %eax                  ## imm = 0x100000
	movq	%rax, 992(%rsp)                 ## 8-byte Spill
	movq	600(%rsp), %rax                 ## 8-byte Reload
	shrq	$9, %rax
	andl	$4194304, %eax                  ## imm = 0x400000
	movq	%rax, 984(%rsp)                 ## 8-byte Spill
	movq	256(%rsp), %rax                 ## 8-byte Reload
	shrq	$7, %rax
	andl	$16777216, %eax                 ## imm = 0x1000000
	movq	%rax, 976(%rsp)                 ## 8-byte Spill
	movq	248(%rsp), %rax                 ## 8-byte Reload
	shrq	$5, %rax
	andl	$67108864, %eax                 ## imm = 0x4000000
	movq	%rax, 968(%rsp)                 ## 8-byte Spill
	movq	48(%rsp), %r13                  ## 8-byte Reload
	shrq	$3, %r13
	andl	$268435456, %r13d               ## imm = 0x10000000
	vmovd	%xmm15, %eax
	movl	%eax, 328(%rsp)                 ## 4-byte Spill
	movl	%eax, %r12d
	shrl	%r12d
	andl	$1073741824, %r12d              ## imm = 0x40000000
	movq	296(%rsp), %r15                 ## 8-byte Reload
                                        ## kill: def $r15d killed $r15d killed $r15 def $r15
	andl	$-2147483648, %r15d             ## imm = 0x80000000
	addq	%r15, %r15
	movq	1096(%rsp), %rcx                ## 8-byte Reload
	movq	1072(%rsp), %r11                ## 8-byte Reload
	leal	(%r11,%rcx), %eax
	xorl	%esi, %esi
	movl	%eax, 360(%rsp)                 ## 4-byte Spill
	cmpl	$24, %eax
	movabsq	$8589934592, %rax               ## imm = 0x200000000
	cmovlq	%rax, %rsi
	testl	%ecx, %ecx
	cmovgq	%rax, %rsi
                                        ## kill: def $r11d killed $r11d killed $r11 def $r11
	andl	$-2147483648, %r11d             ## imm = 0x80000000
	shlq	$3, %r11
	movq	1088(%rsp), %rcx                ## 8-byte Reload
	testl	%ecx, %ecx
	setg	%al
	movq	1064(%rsp), %r14                ## 8-byte Reload
	addl	%r14d, %ecx
	movl	%ecx, 356(%rsp)                 ## 4-byte Spill
	cmpl	$39, %ecx
	setl	%cl
	orb	%al, %cl
	movzbl	%cl, %eax
	shlq	$35, %rax
	movq	%rax, 960(%rsp)                 ## 8-byte Spill
                                        ## kill: def $r14d killed $r14d killed $r14 def $r14
	andl	$-2147483648, %r14d             ## imm = 0x80000000
	shlq	$5, %r14
	movq	1080(%rsp), %rcx                ## 8-byte Reload
	testl	%ecx, %ecx
	setg	%al
	movq	1056(%rsp), %rdx                ## 8-byte Reload
	addl	%edx, %ecx
	movl	%ecx, 352(%rsp)                 ## 4-byte Spill
	cmpl	$4, %ecx
	setl	%cl
	orb	%al, %cl
	movzbl	%cl, %eax
	shlq	$37, %rax
	movq	%rax, 952(%rsp)                 ## 8-byte Spill
                                        ## kill: def $edx killed $edx killed $rdx def $rdx
	andl	$-2147483648, %edx              ## imm = 0x80000000
	shlq	$7, %rdx
	xorl	%r10d, %r10d
	cmpl	$1, 920(%rsp)                   ## 4-byte Folded Reload
	sete	%r10b
	xorl	%r9d, %r9d
	cmpl	$0, 808(%rsp)                   ## 4-byte Folded Reload
	sete	%r9b
	xorl	%r8d, %r8d
	cmpl	$32, 800(%rsp)                  ## 4-byte Folded Reload
	vmovd	656(%rsp), %xmm0                ## 4-byte Folded Reload
                                        ## xmm0 = mem[0],zero,zero,zero
	vpinsrd	$1, 632(%rsp), %xmm0, %xmm0     ## 4-byte Folded Reload
	vpinsrd	$2, 608(%rsp), %xmm0, %xmm0     ## 4-byte Folded Reload
	sete	%r8b
	vpinsrd	$3, 584(%rsp), %xmm0, %xmm0     ## 4-byte Folded Reload
	xorl	%edi, %edi
	cmpl	$0, 760(%rsp)                   ## 4-byte Folded Reload
	vmovd	40(%rsp), %xmm1                 ## 4-byte Folded Reload
                                        ## xmm1 = mem[0],zero,zero,zero
	vpinsrd	$1, 900(%rsp), %xmm1, %xmm1     ## 4-byte Folded Reload
	vpinsrd	$2, 664(%rsp), %xmm1, %xmm1     ## 4-byte Folded Reload
	vpinsrd	$3, 640(%rsp), %xmm1, %xmm1     ## 4-byte Folded Reload
	sete	%dil
	vmovd	720(%rsp), %xmm2                ## 4-byte Folded Reload
                                        ## xmm2 = mem[0],zero,zero,zero
	vpinsrd	$1, 688(%rsp), %xmm2, %xmm2     ## 4-byte Folded Reload
	vpinsrd	$2, 908(%rsp), %xmm2, %xmm2     ## 4-byte Folded Reload
	vpinsrd	$3, 672(%rsp), %xmm2, %xmm2     ## 4-byte Folded Reload
	vmovd	544(%rsp), %xmm3                ## 4-byte Folded Reload
                                        ## xmm3 = mem[0],zero,zero,zero
	vpblendd	$2, %xmm10, %xmm3, %xmm3        ## xmm3 = xmm3[0],xmm10[1],xmm3[2,3]
	vpinsrd	$2, 776(%rsp), %xmm3, %xmm3     ## 4-byte Folded Reload
	vinserti128	$1, %xmm0, %ymm1, %ymm0
	vpinsrd	$3, 744(%rsp), %xmm3, %xmm1     ## 4-byte Folded Reload
	vinserti128	$1, %xmm2, %ymm1, %ymm1
	vpcmpeqd	LCPI0_41(%rip), %ymm1, %ymm1
	vpcmpeqd	LCPI0_42(%rip), %ymm0, %ymm0
	vpackssdw	%ymm0, %ymm1, %ymm0
	vextracti128	$1, %ymm0, %xmm1
	vpacksswb	%xmm1, %xmm0, %xmm0
	vpshufd	$216, %xmm0, %xmm0              ## xmm0 = xmm0[0,2,1,3]
	vpmovmskb	%xmm0, %ecx
	movl	%ecx, %eax
	shrl	$8, %eax
	andl	$1, %eax
	vmovd	%eax, %xmm0
	movl	%ecx, %eax
	shrl	$9, %eax
	andl	$1, %eax
	vpinsrb	$4, %eax, %xmm0, %xmm0
	movl	%ecx, %eax
	shrl	$10, %eax
	vpinsrb	$8, %eax, %xmm0, %xmm0
	movl	%ecx, %eax
	shrl	$11, %eax
	vpinsrb	$12, %eax, %xmm0, %xmm8
	movl	%ecx, %eax
	andl	$2, %eax
	shrl	%eax
	vmovd	%ecx, %xmm0
	vpinsrb	$4, %eax, %xmm0, %xmm0
	movl	%ecx, %eax
	shrl	$2, %eax
	vpinsrb	$8, %eax, %xmm0, %xmm0
	movl	%ecx, %eax
	shrl	$3, %eax
	vpinsrb	$12, %eax, %xmm0, %xmm9
	movl	%ecx, %eax
	shrl	$12, %eax
	andl	$1, %eax
	vmovd	%eax, %xmm0
	movl	%ecx, %eax
	shrl	$13, %eax
	andl	$1, %eax
	vpinsrb	$4, %eax, %xmm0, %xmm0
	movl	%ecx, %eax
	shrl	$14, %eax
	vpinsrb	$8, %eax, %xmm0, %xmm0
	movl	%ecx, %eax
	shrl	$15, %eax
	vpinsrb	$12, %eax, %xmm0, %xmm10
	movl	%ecx, %eax
	andl	$16, %eax
	shrl	$4, %eax
	vmovd	%eax, %xmm0
	movl	%ecx, %eax
	andl	$32, %eax
	shrl	$5, %eax
	vpinsrb	$4, %eax, %xmm0, %xmm0
	movl	%ecx, %eax
	shrl	$6, %eax
	vpinsrb	$8, %eax, %xmm0, %xmm0
	shrl	$7, %ecx
	vpinsrb	$12, %ecx, %xmm0, %xmm11
	movzbl	408(%rsp), %eax                 ## 1-byte Folded Reload
	vmovd	%eax, %xmm0
	movzbl	404(%rsp), %eax                 ## 1-byte Folded Reload
	vpinsrb	$4, %eax, %xmm0, %xmm0
	movzbl	400(%rsp), %eax                 ## 1-byte Folded Reload
	vpinsrb	$8, %eax, %xmm0, %xmm0
	movzbl	396(%rsp), %eax                 ## 1-byte Folded Reload
	vpinsrb	$12, %eax, %xmm0, %xmm12
	vmovd	892(%rsp), %xmm0                ## 4-byte Folded Reload
                                        ## xmm0 = mem[0],zero,zero,zero
	vpinsrd	$1, 576(%rsp), %xmm0, %xmm0     ## 4-byte Folded Reload
	vpinsrd	$2, 552(%rsp), %xmm0, %xmm0     ## 4-byte Folded Reload
	vpinsrd	$3, 888(%rsp), %xmm0, %xmm0     ## 4-byte Folded Reload
	vpcmpeqd	LCPI0_43(%rip), %xmm0, %xmm0
	vmovmskps	%xmm0, %eax
	movl	%eax, %ecx
	andb	$2, %cl
	shrb	%cl
	vmovd	%eax, %xmm0
	movzbl	%cl, %ecx
	vpinsrb	$4, %ecx, %xmm0, %xmm0
	movl	%eax, %ecx
	andb	$4, %cl
	shrb	$2, %cl
	movzbl	%cl, %ecx
	vpinsrb	$8, %ecx, %xmm0, %xmm0
                                        ## kill: def $al killed $al killed $eax
	shrb	$3, %al
	movzbl	%al, %eax
	vpinsrb	$12, %eax, %xmm0, %xmm13
	movzbl	%bl, %eax
	vmovd	%eax, %xmm0
	movzbl	420(%rsp), %eax                 ## 1-byte Folded Reload
	vpinsrb	$4, %eax, %xmm0, %xmm0
	movzbl	416(%rsp), %eax                 ## 1-byte Folded Reload
	vpinsrb	$8, %eax, %xmm0, %xmm0
	movzbl	412(%rsp), %eax                 ## 1-byte Folded Reload
	vpinsrb	$12, %eax, %xmm0, %xmm7
	vmovd	%r9d, %xmm0
	vpinsrb	$4, %r8d, %xmm0, %xmm0
	vpinsrb	$8, %r10d, %xmm0, %xmm0
	vpinsrb	$12, %edi, %xmm0, %xmm0
	vmovd	616(%rsp), %xmm6                ## 4-byte Folded Reload
                                        ## xmm6 = mem[0],zero,zero,zero
	vpinsrd	$1, 592(%rsp), %xmm6, %xmm6     ## 4-byte Folded Reload
	vpinsrd	$2, 568(%rsp), %xmm6, %xmm6     ## 4-byte Folded Reload
	vpinsrd	$3, 560(%rsp), %xmm6, %xmm6     ## 4-byte Folded Reload
	movl	500(%rsp), %r8d                 ## 4-byte Reload
	vmovd	%r8d, %xmm1
	movl	496(%rsp), %ebx                 ## 4-byte Reload
	vpinsrd	$1, %ebx, %xmm1, %xmm1
	movl	492(%rsp), %edi                 ## 4-byte Reload
	vpinsrd	$2, %edi, %xmm1, %xmm1
	vpinsrd	$3, 624(%rsp), %xmm1, %xmm1     ## 4-byte Folded Reload
	vmovd	248(%rsp), %xmm2                ## 4-byte Folded Reload
                                        ## xmm2 = mem[0],zero,zero,zero
	vpinsrd	$1, 48(%rsp), %xmm2, %xmm2      ## 4-byte Folded Reload
	vpinsrd	$2, 328(%rsp), %xmm2, %xmm2     ## 4-byte Folded Reload
	vpinsrd	$3, 296(%rsp), %xmm2, %xmm2     ## 4-byte Folded Reload
	vmovd	264(%rsp), %xmm3                ## 4-byte Folded Reload
                                        ## xmm3 = mem[0],zero,zero,zero
	movq	648(%rsp), %rax                 ## 8-byte Reload
	movq	%rax, %r9
	vpinsrd	$1, %eax, %xmm3, %xmm3
	movq	600(%rsp), %rax                 ## 8-byte Reload
	movq	%rax, %r10
	vpinsrd	$2, %eax, %xmm3, %xmm3
	vpinsrd	$3, 256(%rsp), %xmm3, %xmm3     ## 4-byte Folded Reload
	vinserti128	$1, %xmm6, %ymm1, %ymm1
	vinserti128	$1, %xmm2, %ymm3, %ymm2
	vpxor	%xmm3, %xmm3, %xmm3
	vpcmpgtd	%ymm3, %ymm1, %ymm3
	vpaddd	%ymm1, %ymm2, %ymm14
	vmovdqa	LCPI0_38(%rip), %ymm1           ## ymm1 = [8,4,8,40,7,4,24,4]
	vpcmpgtd	%ymm14, %ymm1, %ymm1
	vpor	%ymm1, %ymm3, %ymm1
	vextracti128	$1, %ymm1, %xmm2
	vpmovzxdq	%xmm2, %ymm2            ## ymm2 = xmm2[0],zero,xmm2[1],zero,xmm2[2],zero,xmm2[3],zero
	vpand	LCPI0_39(%rip), %ymm2, %ymm2
	vpmovzxdq	%xmm1, %ymm1            ## ymm1 = xmm1[0],zero,xmm1[1],zero,xmm1[2],zero,xmm1[3],zero
	vpand	LCPI0_40(%rip), %ymm1, %ymm1
	vpor	%ymm2, %ymm1, %ymm1
	vextracti128	$1, %ymm1, %xmm2
	vpor	%xmm2, %xmm1, %xmm1
	vpshufd	$238, %xmm1, %xmm2              ## xmm2 = xmm1[2,3,2,3]
	vpor	%xmm2, %xmm1, %xmm1
	vmovq	%xmm1, %rax
	orq	%rsi, %rax
	orq	960(%rsp), %rax                 ## 8-byte Folded Reload
	orq	952(%rsp), %rax                 ## 8-byte Folded Reload
	orq	536(%rsp), %rax                 ## 8-byte Folded Reload
	orq	528(%rsp), %rax                 ## 8-byte Folded Reload
	orq	520(%rsp), %rax                 ## 8-byte Folded Reload
	orq	824(%rsp), %rax                 ## 8-byte Folded Reload
	orq	1040(%rsp), %rax                ## 8-byte Folded Reload
	orq	1032(%rsp), %rax                ## 8-byte Folded Reload
	orq	1024(%rsp), %rax                ## 8-byte Folded Reload
	orq	1016(%rsp), %rax                ## 8-byte Folded Reload
	orq	1008(%rsp), %rax                ## 8-byte Folded Reload
	orq	1000(%rsp), %rax                ## 8-byte Folded Reload
	orq	992(%rsp), %rax                 ## 8-byte Folded Reload
	orq	984(%rsp), %rax                 ## 8-byte Folded Reload
	orq	976(%rsp), %rax                 ## 8-byte Folded Reload
	orq	968(%rsp), %rax                 ## 8-byte Folded Reload
	orq	%r13, %rax
	orq	%r12, %rax
	orq	%r15, %rax
	vpslld	$31, %xmm8, %xmm1
	vpsrad	$31, %xmm1, %xmm1
	vpmovsxdq	%xmm1, %ymm1
	vpandn	LCPI0_44(%rip), %ymm1, %ymm1
	vpslld	$31, %xmm9, %xmm2
	vpsrad	$31, %xmm2, %xmm2
	vpmovsxdq	%xmm2, %ymm2
	vpandn	LCPI0_45(%rip), %ymm2, %ymm2
	vpslld	$31, %xmm10, %xmm3
	vpsrad	$31, %xmm3, %xmm3
	vpmovsxdq	%xmm3, %ymm3
	vpandn	LCPI0_46(%rip), %ymm3, %ymm3
	orq	%r11, %rax
	vpslld	$31, %xmm11, %xmm4
	vpsrad	$31, %xmm4, %xmm4
	vpmovsxdq	%xmm4, %ymm4
	vpandn	LCPI0_47(%rip), %ymm4, %ymm4
	vpslld	$31, %xmm12, %xmm5
	vpsrad	$31, %xmm5, %xmm5
	vpmovzxdq	%xmm5, %ymm5            ## ymm5 = xmm5[0],zero,xmm5[1],zero,xmm5[2],zero,xmm5[3],zero
	vpand	LCPI0_48(%rip), %ymm5, %ymm5
	vpslld	$31, %xmm13, %xmm6
	vpsrad	$31, %xmm6, %xmm6
	vpmovsxdq	%xmm6, %ymm6
	vpandn	LCPI0_49(%rip), %ymm6, %ymm6
	vpor	%ymm5, %ymm1, %ymm1
	vpor	%ymm6, %ymm2, %ymm2
	vpor	%ymm1, %ymm2, %ymm1
	vpslld	$31, %xmm7, %xmm2
	vpsrad	$31, %xmm2, %xmm2
	vpmovzxdq	%xmm2, %ymm2            ## ymm2 = xmm2[0],zero,xmm2[1],zero,xmm2[2],zero,xmm2[3],zero
	vpand	LCPI0_50(%rip), %ymm2, %ymm2
	vpor	%ymm2, %ymm4, %ymm2
	vpslld	$31, %xmm0, %xmm0
	vpmovsxdq	%xmm0, %ymm0
	vmovapd	LCPI0_0(%rip), %xmm4            ## xmm4 = [9223372036854775808,0]
	vmovapd	LCPI0_51(%rip), %ymm5           ## ymm5 = [9223373136366403584,2199023255552,549755813888,8796093022208]
	vblendvpd	%ymm0, %ymm4, %ymm5, %ymm0
	vorpd	%ymm3, %ymm0, %ymm0
	vorpd	%ymm2, %ymm0, %ymm0
	vorpd	%ymm1, %ymm0, %ymm0
	vextractf128	$1, %ymm0, %xmm1
	vorpd	%xmm1, %xmm0, %xmm0
	vpermilps	$238, %xmm0, %xmm1      ## xmm1 = xmm0[2,3,2,3]
	vorpd	%xmm1, %xmm0, %xmm0
	vmovq	%xmm0, %rcx
	orq	%rcx, %rax
	orq	%r14, %rdx
	orq	%rax, %rdx
	xorl	%eax, %eax
	tzcntq	%rdx, %rax
	cmpl	$62, %eax
	jbe	LBB0_287
## %bb.94:                              ## %no_errors_bb132
	xorl	%eax, %eax
	cmpl	$4, 1056(%rsp)                  ## 4-byte Folded Reload
	setne	%al
	vmovd	%ebx, %xmm0
	vpinsrd	$1, %r9d, %xmm0, %xmm0
	vpinsrd	$2, %edi, %xmm0, %xmm0
	xorl	%ecx, %ecx
	vpinsrd	$3, %r10d, %xmm0, %xmm0
	vmovd	680(%rsp), %xmm1                ## 4-byte Folded Reload
                                        ## xmm1 = mem[0],zero,zero,zero
	vpinsrd	$1, %r8d, %xmm1, %xmm1
	vpinsrd	$2, 264(%rsp), %xmm1, %xmm1     ## 4-byte Folded Reload
	cmpl	$39, 1064(%rsp)                 ## 4-byte Folded Reload
	vpinsrd	$3, 904(%rsp), %xmm1, %xmm1     ## 4-byte Folded Reload
	vmovd	924(%rsp), %xmm2                ## 4-byte Folded Reload
                                        ## xmm2 = mem[0],zero,zero,zero
	vpinsrd	$1, 792(%rsp), %xmm2, %xmm2     ## 4-byte Folded Reload
	vpinsrd	$2, 768(%rsp), %xmm2, %xmm2     ## 4-byte Folded Reload
	setne	%cl
	vpinsrd	$3, 916(%rsp), %xmm2, %xmm2     ## 4-byte Folded Reload
	vmovd	336(%rsp), %xmm3                ## 4-byte Folded Reload
                                        ## xmm3 = mem[0],zero,zero,zero
	vpinsrd	$1, 936(%rsp), %xmm3, %xmm3     ## 4-byte Folded Reload
	vpinsrd	$2, 932(%rsp), %xmm3, %xmm3     ## 4-byte Folded Reload
	xorl	%edx, %edx
	vpinsrd	$3, 928(%rsp), %xmm3, %xmm3     ## 4-byte Folded Reload
	vmovd	1096(%rsp), %xmm4               ## 4-byte Folded Reload
                                        ## xmm4 = mem[0],zero,zero,zero
	vpinsrd	$1, 1072(%rsp), %xmm4, %xmm4    ## 4-byte Folded Reload
	vpinsrd	$2, 884(%rsp), %xmm4, %xmm4     ## 4-byte Folded Reload
	vpinsrd	$3, 1088(%rsp), %xmm4, %xmm4    ## 4-byte Folded Reload
	movl	328(%rsp), %ebx                 ## 4-byte Reload
	vmovd	%ebx, %xmm5
	vpblendd	$2, %xmm15, %xmm5, %xmm5        ## xmm5 = xmm5[0],xmm15[1],xmm5[2,3]
	vpinsrd	$2, 560(%rsp), %xmm5, %xmm5     ## 4-byte Folded Reload
	vpinsrd	$3, 296(%rsp), %xmm5, %xmm5     ## 4-byte Folded Reload
	cmpl	$0, 344(%rsp)                   ## 4-byte Folded Reload
	vinserti128	$1, %xmm4, %ymm5, %ymm4
	vpcmpeqd	LCPI0_64(%rip), %ymm4, %ymm4
	setne	%dl
	vpmovsxdq	%xmm4, %ymm5
	vextracti128	$1, %ymm4, %xmm4
	vpmovsxdq	%xmm4, %ymm4
	vpandn	LCPI0_65(%rip), %ymm4, %ymm4
	vpandn	LCPI0_66(%rip), %ymm5, %ymm5
	vpor	%ymm4, %ymm5, %ymm4
	shlq	$41, %rcx
	xorl	%esi, %esi
	cmpl	$0, 1080(%rsp)                  ## 4-byte Folded Reload
	setne	%sil
	shlq	$43, %rax
	orq	%rdx, %rax
	vextracti128	$1, %ymm4, %xmm5
	vpor	%xmm5, %xmm4, %xmm4
	vpshufd	$238, %xmm4, %xmm5              ## xmm5 = xmm4[2,3,2,3]
	vpor	%xmm5, %xmm4, %xmm4
	vmovq	%xmm4, %rdx
	orq	%rcx, %rdx
	vmovd	248(%rsp), %xmm4                ## 4-byte Folded Reload
                                        ## xmm4 = mem[0],zero,zero,zero
	vpinsrd	$1, 592(%rsp), %xmm4, %xmm4     ## 4-byte Folded Reload
	vpinsrd	$2, 48(%rsp), %xmm4, %xmm4      ## 4-byte Folded Reload
	vpinsrd	$3, 568(%rsp), %xmm4, %xmm4     ## 4-byte Folded Reload
	vinserti128	$1, %xmm0, %ymm1, %ymm0
	vmovd	896(%rsp), %xmm1                ## 4-byte Folded Reload
                                        ## xmm1 = mem[0],zero,zero,zero
	vpinsrd	$1, 624(%rsp), %xmm1, %xmm1     ## 4-byte Folded Reload
	vpinsrd	$2, 256(%rsp), %xmm1, %xmm1     ## 4-byte Folded Reload
	vpinsrd	$3, 616(%rsp), %xmm1, %xmm1     ## 4-byte Folded Reload
	vinserti128	$1, %xmm2, %ymm3, %ymm2
	vmovd	912(%rsp), %xmm3                ## 4-byte Folded Reload
                                        ## xmm3 = mem[0],zero,zero,zero
	vpinsrd	$1, 728(%rsp), %xmm3, %xmm3     ## 4-byte Folded Reload
	vpinsrd	$2, 696(%rsp), %xmm3, %xmm3     ## 4-byte Folded Reload
	vpinsrd	$3, 704(%rsp), %xmm3, %xmm3     ## 4-byte Folded Reload
	vinserti128	$1, %xmm4, %ymm1, %ymm1
	vmovd	784(%rsp), %xmm4                ## 4-byte Folded Reload
                                        ## xmm4 = mem[0],zero,zero,zero
	vpinsrd	$1, 752(%rsp), %xmm4, %xmm4     ## 4-byte Folded Reload
	vpinsrd	$2, 736(%rsp), %xmm4, %xmm4     ## 4-byte Folded Reload
	vpinsrd	$3, 712(%rsp), %xmm4, %xmm4     ## 4-byte Folded Reload
	vinserti128	$1, %xmm3, %ymm4, %ymm3
	vpcmpeqd	LCPI0_52(%rip), %ymm3, %ymm3
	vpmovsxdq	%xmm3, %ymm4
	vpcmpeqd	LCPI0_53(%rip), %ymm1, %ymm1
	vpcmpeqd	LCPI0_54(%rip), %ymm2, %ymm2
	vpmovsxdq	%xmm1, %ymm5
	vpmovsxdq	%xmm2, %ymm6
	vpcmpeqd	LCPI0_55(%rip), %ymm0, %ymm0
	vpmovsxdq	%xmm0, %ymm7
	vextracti128	$1, %ymm3, %xmm3
	vpmovsxdq	%xmm3, %ymm3
	vextracti128	$1, %ymm1, %xmm1
	vextracti128	$1, %ymm2, %xmm2
	vpmovsxdq	%xmm2, %ymm2
	vextracti128	$1, %ymm0, %xmm0
	vpmovsxdq	%xmm0, %ymm0
	vpandn	LCPI0_56(%rip), %ymm0, %ymm0
	vpandn	LCPI0_57(%rip), %ymm2, %ymm2
	vpmovsxdq	%xmm1, %ymm1
	vpor	%ymm0, %ymm2, %ymm0
	vpandn	LCPI0_58(%rip), %ymm1, %ymm1
	vpandn	LCPI0_59(%rip), %ymm3, %ymm2
	vpor	%ymm1, %ymm2, %ymm1
	vpor	%ymm1, %ymm0, %ymm0
	vpandn	LCPI0_60(%rip), %ymm7, %ymm1
	vpandn	LCPI0_61(%rip), %ymm6, %ymm2
	vpandn	LCPI0_62(%rip), %ymm5, %ymm3
	vpandn	LCPI0_63(%rip), %ymm4, %ymm4
	vpor	%ymm1, %ymm2, %ymm1
	vpor	%ymm3, %ymm4, %ymm2
	vpor	%ymm2, %ymm1, %ymm1
	vpor	%ymm0, %ymm1, %ymm0
	shlq	$42, %rsi
	vextracti128	$1, %ymm0, %xmm1
	vpor	%xmm1, %xmm0, %xmm0
	vpshufd	$238, %xmm0, %xmm1              ## xmm1 = xmm0[2,3,2,3]
	vpor	%xmm1, %xmm0, %xmm0
	orq	%rsi, %rdx
	vmovq	%xmm0, %rcx
	orq	%rcx, %rdx
	orq	%rax, %rdx
	movabsq	$-9223372036854775808, %rax     ## imm = 0x8000000000000000
	orq	%rax, %rdx
	xorl	%eax, %eax
	tzcntq	%rdx, %rax
	cmpl	$43, %eax
	movl	240(%rsp), %edi                 ## 4-byte Reload
	movl	428(%rsp), %r10d                ## 4-byte Reload
	jbe	LBB0_289
## %bb.95:                              ## %no_errors_bb196
	movslq	464(%rsp), %rcx                 ## 4-byte Folded Reload
	movq	160(%rsp), %r8                  ## 8-byte Reload
	movslq	%r8d, %rax
	movq	%rcx, %rsi
	movq	%rax, 704(%rsp)                 ## 8-byte Spill
	imulq	%rax, %rsi
	movslq	472(%rsp), %rdx                 ## 4-byte Folded Reload
	movq	%rsi, %rax
	imulq	%rdx, %rax
	movslq	448(%rsp), %r15                 ## 4-byte Folded Reload
	movq	208(%rsp), %r14                 ## 8-byte Reload
	movslq	%r14d, %rbx
	movq	%r15, %r13
	movq	%rbx, 680(%rsp)                 ## 8-byte Spill
	imulq	%rbx, %r13
	movslq	456(%rsp), %r12                 ## 4-byte Folded Reload
	movq	%r13, %r11
	imulq	%r12, %r11
	movslq	%edi, %r9
	movq	%r9, %rbx
	shlq	$5, %rbx
	movq	%rbx, %rdi
	negq	%rdi
	testl	%r9d, %r9d
	cmovnsq	%rbx, %rdi
	xorl	%ebx, %ebx
	movq	%rdi, 664(%rsp)                 ## 8-byte Spill
	cmpq	$2147483647, %rdi               ## imm = 0x7FFFFFFF
	seta	%bl
	movq	%rbx, 40(%rsp)                  ## 8-byte Spill
	movslq	%r10d, %r9
	leaq	(,%r9,8), %rbx
	leaq	(%rbx,%rbx,4), %rdi
	movq	%rdi, %rbx
	negq	%rbx
	testl	%r9d, %r9d
	cmovnsq	%rdi, %rbx
	xorl	%edi, %edi
	movq	%rbx, 656(%rsp)                 ## 8-byte Spill
	cmpq	$2147483647, %rbx               ## imm = 0x7FFFFFFF
	seta	%dil
	movl	%edi, 256(%rsp)                 ## 4-byte Spill
	movslq	424(%rsp), %r9                  ## 4-byte Folded Reload
	leaq	(,%r9,8), %rdi
	subq	%r9, %rdi
	movq	%rdi, %rbx
	negq	%rbx
	testl	%r9d, %r9d
	cmovnsq	%rdi, %rbx
	xorl	%edi, %edi
	movq	%rbx, 648(%rsp)                 ## 8-byte Spill
	cmpq	$2147483647, %rbx               ## imm = 0x7FFFFFFF
	seta	%dil
	movl	%edi, 48(%rsp)                  ## 4-byte Spill
	movslq	516(%rsp), %rdi                 ## 4-byte Folded Reload
	imulq	$39, %rdi, %r9
	movq	%r9, %rbx
	negq	%rbx
	testl	%edi, %edi
	cmovnsq	%r9, %rbx
	xorl	%edi, %edi
	movq	%rbx, 640(%rsp)                 ## 8-byte Spill
	cmpq	$2147483647, %rbx               ## imm = 0x7FFFFFFF
	seta	%dil
	movl	%edi, 248(%rsp)                 ## 4-byte Spill
	movslq	512(%rsp), %rdi                 ## 4-byte Folded Reload
	imulq	%rcx, %rdi
	shrl	$27, %r8d
	andl	$-16, %r8d
	movq	%r8, 160(%rsp)                  ## 8-byte Spill
	movq	%rdi, %rcx
	negq	%rcx
	cmovlq	%rdi, %rcx
	xorl	%ebx, %ebx
	movq	%rcx, 632(%rsp)                 ## 8-byte Spill
	cmpq	$2147483647, %rcx               ## imm = 0x7FFFFFFF
	seta	%bl
	xorl	%ecx, %ecx
	movq	%rsi, 696(%rsp)                 ## 8-byte Spill
	cmpq	$2147483647, %rsi               ## imm = 0x7FFFFFFF
	setg	%cl
	movl	%ecx, 344(%rsp)                 ## 4-byte Spill
	movslq	508(%rsp), %rsi                 ## 4-byte Folded Reload
	imulq	%rdx, %rsi
	movq	%rsi, %rcx
	negq	%rcx
	cmovlq	%rsi, %rcx
	xorl	%edx, %edx
	movq	%rcx, 624(%rsp)                 ## 8-byte Spill
	cmpq	$2147483647, %rcx               ## imm = 0x7FFFFFFF
	seta	%dl
	movl	%edx, 464(%rsp)                 ## 4-byte Spill
	xorl	%esi, %esi
	movq	%rax, 688(%rsp)                 ## 8-byte Spill
	cmpq	$2147483647, %rax               ## imm = 0x7FFFFFFF
	setg	%sil
	movslq	216(%rsp), %rdx                 ## 4-byte Folded Reload
	imulq	%r15, %rdx
	movq	832(%rsp), %rax                 ## 8-byte Reload
	shrq	$22, %rax
	andl	$512, %eax                      ## imm = 0x200
	movq	%rax, 264(%rsp)                 ## 8-byte Spill
	shrl	$21, %r14d
	andl	$1024, %r14d                    ## imm = 0x400
	movq	%r14, 208(%rsp)                 ## 8-byte Spill
	movq	%rdx, %rax
	negq	%rax
	cmovlq	%rdx, %rax
	xorl	%ecx, %ecx
	movq	%rax, 616(%rsp)                 ## 8-byte Spill
	cmpq	$2147483647, %rax               ## imm = 0x7FFFFFFF
	seta	%cl
	movl	%ecx, 336(%rsp)                 ## 4-byte Spill
	xorl	%eax, %eax
	movq	%r13, 1360(%rsp)                ## 8-byte Spill
	cmpq	$2147483647, %r13               ## imm = 0x7FFFFFFF
	setg	%al
	movl	%eax, 472(%rsp)                 ## 4-byte Spill
	movslq	32(%rsp), %rcx                  ## 4-byte Folded Reload
	imulq	%r12, %rcx
	movq	%rcx, %rax
	negq	%rax
	cmovlq	%rcx, %rax
	xorl	%ecx, %ecx
	movq	%rax, 608(%rsp)                 ## 8-byte Spill
	cmpq	$2147483647, %rax               ## imm = 0x7FFFFFFF
	seta	%cl
	movl	%ecx, 456(%rsp)                 ## 4-byte Spill
	xorl	%eax, %eax
	movq	%r11, 672(%rsp)                 ## 8-byte Spill
	cmpq	$2147483647, %r11               ## imm = 0x7FFFFFFF
	vmovd	1456(%rsp), %xmm0               ## 4-byte Folded Reload
                                        ## xmm0 = mem[0],zero,zero,zero
	vpinsrd	$1, 948(%rsp), %xmm0, %xmm0     ## 4-byte Folded Reload
	setg	%al
	movl	%eax, 448(%rsp)                 ## 4-byte Spill
	vpmovsxdq	%xmm0, %xmm1
	vpsllvq	LCPI0_67(%rip), %xmm1, %xmm1
	movq	480(%rsp), %rax                 ## 8-byte Reload
	shrq	$16, %rax
	vpcmpeqd	%xmm2, %xmm2, %xmm2
	vpcmpgtd	%xmm2, %xmm0, %xmm0
	vpmovsxdq	%xmm0, %xmm0
	vpxor	%xmm0, %xmm1, %xmm1
	vpsubq	%xmm1, %xmm0, %xmm8
	vpxor	LCPI0_68(%rip), %xmm8, %xmm0
	andl	$32768, %eax                    ## imm = 0x8000
	movq	%rax, 296(%rsp)                 ## 8-byte Spill
	vpcmpgtq	LCPI0_69(%rip), %xmm0, %xmm0
	vmovmskpd	%xmm0, %eax
	movl	%eax, 760(%rsp)                 ## 4-byte Spill
	movl	%eax, %edi
	shrb	%dil
	movslq	1440(%rsp), %rax                ## 4-byte Folded Reload
	leaq	(,%rax,4), %rcx
	movq	%rcx, %rdx
	negq	%rdx
	testl	%eax, %eax
	cmovnsq	%rcx, %rdx
	xorl	%eax, %eax
	movq	%rdx, 600(%rsp)                 ## 8-byte Spill
	cmpq	$2147483647, %rdx               ## imm = 0x7FFFFFFF
	seta	%al
	movl	%eax, 792(%rsp)                 ## 4-byte Spill
	movq	1392(%rsp), %rcx                ## 8-byte Reload
	leaq	(,%rcx,4), %rax
	movq	%rax, %rdx
	negq	%rdx
	testl	%ecx, %ecx
	cmovnsq	%rax, %rdx
	xorl	%eax, %eax
	movq	%rdx, 592(%rsp)                 ## 8-byte Spill
	cmpq	$2147483647, %rdx               ## imm = 0x7FFFFFFF
	seta	%al
	movl	%eax, 784(%rsp)                 ## 4-byte Spill
	movslq	940(%rsp), %rax                 ## 4-byte Folded Reload
	leaq	(,%rax,8), %rcx
	leaq	(%rcx,%rcx,4), %rcx
	movq	%rcx, %rdx
	negq	%rdx
	testl	%eax, %eax
	cmovnsq	%rcx, %rdx
	xorl	%eax, %eax
	movq	%rdx, 584(%rsp)                 ## 8-byte Spill
	cmpq	$2147483647, %rdx               ## imm = 0x7FFFFFFF
	seta	%al
	movl	%eax, 768(%rsp)                 ## 4-byte Spill
	movslq	1376(%rsp), %rax                ## 4-byte Folded Reload
	leaq	(,%rax,8), %rcx
	subq	%rax, %rcx
	movq	%rcx, %rdx
	negq	%rdx
	testl	%eax, %eax
	cmovnsq	%rcx, %rdx
	xorl	%eax, %eax
	movq	%rdx, 576(%rsp)                 ## 8-byte Spill
	cmpq	$2147483647, %rdx               ## imm = 0x7FFFFFFF
	seta	%al
	movl	%eax, 752(%rsp)                 ## 4-byte Spill
	movslq	1120(%rsp), %rax                ## 4-byte Folded Reload
	leaq	(,%rax,4), %rcx
	movq	%rcx, %rdx
	negq	%rdx
	testl	%eax, %eax
	cmovnsq	%rcx, %rdx
	movq	%rdx, 568(%rsp)                 ## 8-byte Spill
	cmpq	$2147483647, %rdx               ## imm = 0x7FFFFFFF
	movl	$0, %eax
	seta	%al
	shlq	$22, %rax
	movq	%rax, 808(%rsp)                 ## 8-byte Spill
	movslq	1424(%rsp), %rax                ## 4-byte Folded Reload
	leaq	(,%rax,4), %rcx
	movq	%rcx, %rdx
	negq	%rdx
	testl	%eax, %eax
	cmovnsq	%rcx, %rdx
	movq	%rdx, 560(%rsp)                 ## 8-byte Spill
	cmpq	$2147483647, %rdx               ## imm = 0x7FFFFFFF
	movl	$0, %eax
	seta	%al
	shlq	$23, %rax
	movq	%rax, 800(%rsp)                 ## 8-byte Spill
	movslq	944(%rsp), %rax                 ## 4-byte Folded Reload
	imulq	$39, %rax, %rcx
	movq	%rcx, %rdx
	negq	%rdx
	testl	%eax, %eax
	cmovnsq	%rcx, %rdx
	movq	%rdx, 552(%rsp)                 ## 8-byte Spill
	cmpq	$2147483647, %rdx               ## imm = 0x7FFFFFFF
	movl	$0, %eax
	seta	%al
	shlq	$24, %rax
	movq	%rax, 776(%rsp)                 ## 8-byte Spill
	movslq	1400(%rsp), %rax                ## 4-byte Folded Reload
	leaq	(,%rax,4), %rcx
	movq	%rcx, %rdx
	negq	%rdx
	testl	%eax, %eax
	cmovnsq	%rcx, %rdx
	xorl	%eax, %eax
	movq	%rdx, 1344(%rsp)                ## 8-byte Spill
	cmpq	$2147483647, %rdx               ## imm = 0x7FFFFFFF
	seta	%al
	movq	%rax, %rcx
	movq	56(%rsp), %rdx                  ## 8-byte Reload
	shlq	$32, %rdx
	movabsq	$8589934592, %rax               ## imm = 0x200000000
	andq	%rax, %rdx
	movq	%rdx, 56(%rsp)                  ## 8-byte Spill
	movq	200(%rsp), %rdx                 ## 8-byte Reload
	shlq	$34, %rdx
	movabsq	$34359738368, %rax              ## imm = 0x800000000
	andq	%rax, %rdx
	movq	%rdx, 200(%rsp)                 ## 8-byte Spill
	movq	312(%rsp), %rdx                 ## 8-byte Reload
	shlq	$36, %rdx
	movabsq	$137438953472, %rax             ## imm = 0x2000000000
	andq	%rax, %rdx
	movq	%rdx, 312(%rsp)                 ## 8-byte Spill
	movq	432(%rsp), %rdx                 ## 8-byte Reload
	shlq	$40, %rdx
	movabsq	$2199023255552, %rax            ## imm = 0x20000000000
	andq	%rax, %rdx
	movq	%rdx, 432(%rsp)                 ## 8-byte Spill
	movq	64(%rsp), %rdx                  ## 8-byte Reload
	shlq	$41, %rdx
	movabsq	$4398046511104, %rax            ## imm = 0x40000000000
	andq	%rax, %rdx
	movq	%rdx, 64(%rsp)                  ## 8-byte Spill
	vmovd	%ebx, %xmm0
	vpinsrb	$4, %esi, %xmm0, %xmm0
	shlq	$25, %rcx
	movq	%rcx, 744(%rsp)                 ## 8-byte Spill
	movq	1704(%rsp), %r8                 ## 8-byte Reload
	andl	$2, %r8d
	shlq	$25, %r8
	movq	1696(%rsp), %r10                ## 8-byte Reload
	andl	$2, %r10d
	shlq	$26, %r10
	movq	1688(%rsp), %r11                ## 8-byte Reload
	andl	$2, %r11d
	shlq	$27, %r11
	movq	1680(%rsp), %rbx                ## 8-byte Reload
	andl	$2, %ebx
	shlq	$28, %rbx
	movq	1656(%rsp), %r14                ## 8-byte Reload
	andl	$2, %r14d
	shlq	$29, %r14
	movq	1648(%rsp), %r12                ## 8-byte Reload
	andl	$2, %r12d
	shlq	$30, %r12
	movq	1640(%rsp), %r13                ## 8-byte Reload
	shlq	$31, %r13
	movabsq	$4294967296, %rax               ## imm = 0x100000000
	andq	%rax, %r13
	movq	168(%rsp), %rax                 ## 8-byte Reload
	andl	$2, %eax
	shlq	$33, %rax
	movq	%rax, 168(%rsp)                 ## 8-byte Spill
	movq	128(%rsp), %rax                 ## 8-byte Reload
	andl	$2, %eax
	shlq	$35, %rax
	movq	%rax, 128(%rsp)                 ## 8-byte Spill
	movq	304(%rsp), %rax                 ## 8-byte Reload
	andl	$2, %eax
	shlq	$37, %rax
	movq	%rax, 304(%rsp)                 ## 8-byte Spill
	movq	280(%rsp), %rax                 ## 8-byte Reload
	andl	$2, %eax
	shlq	$38, %rax
	movq	%rax, 280(%rsp)                 ## 8-byte Spill
	movq	272(%rsp), %rax                 ## 8-byte Reload
	andl	$2, %eax
	shlq	$39, %rax
	movq	%rax, 272(%rsp)                 ## 8-byte Spill
	xorl	%eax, %eax
	cmpq	$0, 1192(%rsp)                  ## 8-byte Folded Reload
	sete	%al
	movl	%eax, 720(%rsp)                 ## 4-byte Spill
	xorl	%eax, %eax
	cmpq	$0, 856(%rsp)                   ## 8-byte Folded Reload
	sete	%al
	movl	%eax, 712(%rsp)                 ## 4-byte Spill
	xorl	%eax, %eax
	cmpq	$0, 1168(%rsp)                  ## 8-byte Folded Reload
	sete	%al
	movl	%eax, 728(%rsp)                 ## 4-byte Spill
	xorl	%eax, %eax
	cmpq	$0, 1136(%rsp)                  ## 8-byte Folded Reload
	sete	%al
	movl	%eax, 736(%rsp)                 ## 4-byte Spill
	xorl	%edx, %edx
	cmpq	$0, 1184(%rsp)                  ## 8-byte Folded Reload
	sete	%dl
	xorl	%esi, %esi
	cmpq	$0, 1176(%rsp)                  ## 8-byte Folded Reload
	sete	%sil
	xorl	%r15d, %r15d
	cmpq	$0, 1480(%rsp)                  ## 8-byte Folded Reload
	sete	%r15b
	xorl	%r9d, %r9d
	cmpq	$0, 1160(%rsp)                  ## 8-byte Folded Reload
	sete	%r9b
	xorl	%eax, %eax
	cmpq	$0, 1472(%rsp)                  ## 8-byte Folded Reload
	sete	%al
	vpinsrb	$8, %eax, %xmm0, %xmm0
	vpinsrb	$12, 464(%rsp), %xmm0, %xmm1    ## 4-byte Folded Reload
	vmovd	760(%rsp), %xmm0                ## 4-byte Folded Reload
                                        ## xmm0 = mem[0],zero,zero,zero
	movzbl	%dil, %eax
	vpinsrb	$4, %eax, %xmm0, %xmm0
	xorl	%edi, %edi
	cmpq	$0, 184(%rsp)                   ## 8-byte Folded Reload
	sete	%dil
	xorl	%eax, %eax
	cmpq	$0, 1200(%rsp)                  ## 8-byte Folded Reload
	sete	%al
	vmovd	%eax, %xmm2
	vpinsrb	$4, 456(%rsp), %xmm2, %xmm2     ## 4-byte Folded Reload
	vpxor	%xmm3, %xmm3, %xmm3
	vmovq	1448(%rsp), %xmm4               ## 8-byte Folded Reload
                                        ## xmm4 = mem[0],zero
	vmovq	1464(%rsp), %xmm5               ## 8-byte Folded Reload
                                        ## xmm5 = mem[0],zero
	vpunpcklqdq	%xmm4, %xmm5, %xmm4     ## xmm4 = xmm5[0],xmm4[0]
	vpcmpeqq	%xmm3, %xmm4, %xmm3
	vmovmskpd	%xmm3, %eax
	vpinsrb	$8, %eax, %xmm2, %xmm4
	movl	%eax, %ecx
	shrb	%cl
	xorl	%eax, %eax
	cmpq	$0, 1408(%rsp)                  ## 8-byte Folded Reload
	sete	%al
	vpinsrb	$8, %eax, %xmm0, %xmm0
	vpinsrb	$12, 792(%rsp), %xmm0, %xmm2    ## 4-byte Folded Reload
	vmovd	%edi, %xmm0
	vpinsrb	$4, 472(%rsp), %xmm0, %xmm0     ## 4-byte Folded Reload
	vpinsrb	$8, 336(%rsp), %xmm0, %xmm0     ## 4-byte Folded Reload
	vpinsrb	$12, 448(%rsp), %xmm0, %xmm3    ## 4-byte Folded Reload
	xorl	%eax, %eax
	cmpq	$0, 1384(%rsp)                  ## 8-byte Folded Reload
	sete	%al
	vmovd	%eax, %xmm0
	vpinsrb	$4, 784(%rsp), %xmm0, %xmm0     ## 4-byte Folded Reload
	vpinsrb	$8, 768(%rsp), %xmm0, %xmm0     ## 4-byte Folded Reload
	vpinsrb	$12, 752(%rsp), %xmm0, %xmm5    ## 4-byte Folded Reload
	movzbl	%cl, %eax
	vpinsrb	$12, %eax, %xmm4, %xmm4
	vmovd	256(%rsp), %xmm0                ## 4-byte Folded Reload
                                        ## xmm0 = mem[0],zero,zero,zero
	vpinsrb	$4, %edx, %xmm0, %xmm0
	vpinsrb	$8, 48(%rsp), %xmm0, %xmm0      ## 4-byte Folded Reload
	vpinsrb	$12, %esi, %xmm0, %xmm6
	vmovd	%r15d, %xmm0
	vpinsrb	$4, 248(%rsp), %xmm0, %xmm0     ## 4-byte Folded Reload
	vpinsrb	$8, %r9d, %xmm0, %xmm0
	vpinsrb	$12, 344(%rsp), %xmm0, %xmm7    ## 4-byte Folded Reload
	vmovd	720(%rsp), %xmm0                ## 4-byte Folded Reload
                                        ## xmm0 = mem[0],zero,zero,zero
	vpinsrb	$4, 712(%rsp), %xmm0, %xmm0     ## 4-byte Folded Reload
	vpinsrb	$8, 728(%rsp), %xmm0, %xmm0     ## 4-byte Folded Reload
	vpinsrb	$12, 736(%rsp), %xmm0, %xmm0    ## 4-byte Folded Reload
	xorl	%eax, %eax
	cmpq	$0, 1432(%rsp)                  ## 8-byte Folded Reload
	sete	%al
	shlq	$58, %rax
	xorl	%ecx, %ecx
	cmpq	$0, 1416(%rsp)                  ## 8-byte Folded Reload
	sete	%cl
	orq	808(%rsp), %rax                 ## 8-byte Folded Reload
	shlq	$59, %rcx
	orq	%rcx, %rax
	orq	800(%rsp), %rax                 ## 8-byte Folded Reload
	orq	776(%rsp), %rax                 ## 8-byte Folded Reload
	orq	744(%rsp), %rax                 ## 8-byte Folded Reload
	orq	%r8, %rax
	orq	%r10, %rax
	orq	40(%rsp), %rax                  ## 8-byte Folded Reload
	orq	%r11, %rax
	orq	%rbx, %rax
	orq	%r14, %rax
	orq	%r12, %rax
	orq	%r13, %rax
	orq	56(%rsp), %rax                  ## 8-byte Folded Reload
	orq	160(%rsp), %rax                 ## 8-byte Folded Reload
	orq	168(%rsp), %rax                 ## 8-byte Folded Reload
	orq	264(%rsp), %rax                 ## 8-byte Folded Reload
	orq	200(%rsp), %rax                 ## 8-byte Folded Reload
	orq	208(%rsp), %rax                 ## 8-byte Folded Reload
	orq	128(%rsp), %rax                 ## 8-byte Folded Reload
	orq	296(%rsp), %rax                 ## 8-byte Folded Reload
	orq	312(%rsp), %rax                 ## 8-byte Folded Reload
	orq	304(%rsp), %rax                 ## 8-byte Folded Reload
	orq	280(%rsp), %rax                 ## 8-byte Folded Reload
	orq	272(%rsp), %rax                 ## 8-byte Folded Reload
	orq	432(%rsp), %rax                 ## 8-byte Folded Reload
	vpslld	$31, %xmm1, %xmm1
	vpsrad	$31, %xmm1, %xmm1
	vpmovsxdq	%xmm1, %ymm1
	vpand	LCPI0_70(%rip), %ymm1, %ymm1
	orq	64(%rsp), %rax                  ## 8-byte Folded Reload
	vpslld	$31, %xmm5, %xmm5
	vpsrad	$31, %xmm5, %xmm5
	vpmovsxdq	%xmm5, %ymm5
	vpand	LCPI0_73(%rip), %ymm5, %ymm5
	vpslld	$31, %xmm4, %xmm4
	vpsrad	$31, %xmm4, %xmm4
	vpmovsxdq	%xmm4, %ymm4
	vpand	LCPI0_74(%rip), %ymm4, %ymm4
	vpslld	$31, %xmm6, %xmm6
	vpsrad	$31, %xmm6, %xmm6
	vpmovsxdq	%xmm6, %ymm6
	vpand	LCPI0_75(%rip), %ymm6, %ymm6
	vpor	%ymm5, %ymm1, %ymm1
	vpor	%ymm4, %ymm6, %ymm4
	vpslld	$31, %xmm0, %xmm0
	vpmovsxdq	%xmm0, %ymm0
	vmovapd	LCPI0_0(%rip), %xmm5            ## xmm5 = [9223372036854775808,0]
	vblendvpd	%ymm0, LCPI0_77(%rip), %ymm5, %ymm0
	vpor	%ymm1, %ymm4, %ymm1
	vpslld	$31, %xmm2, %xmm2
	vpsrad	$31, %xmm2, %xmm2
	vpmovsxdq	%xmm2, %ymm2
	vpand	LCPI0_71(%rip), %ymm2, %ymm2
	vpslld	$31, %xmm3, %xmm3
	vpsrad	$31, %xmm3, %xmm3
	vpmovsxdq	%xmm3, %ymm3
	vpand	LCPI0_72(%rip), %ymm3, %ymm3
	vpslld	$31, %xmm7, %xmm4
	vpsrad	$31, %xmm4, %xmm4
	vpmovsxdq	%xmm4, %ymm4
	vpand	LCPI0_76(%rip), %ymm4, %ymm4
	vpor	%ymm2, %ymm4, %ymm2
	vorpd	%ymm3, %ymm0, %ymm0
	vorpd	%ymm1, %ymm0, %ymm0
	vpor	%ymm0, %ymm2, %ymm0
	vextracti128	$1, %ymm0, %xmm1
	vpor	%xmm1, %xmm0, %xmm0
	vpshufd	$238, %xmm0, %xmm1              ## xmm1 = xmm0[2,3,2,3]
	vpor	%xmm1, %xmm0, %xmm0
	vmovq	%xmm0, %rcx
	orq	%rcx, %rax
	tzcntq	%rax, %rax
	cmpl	$59, %eax
	jbe	LBB0_291
## %bb.96:                              ## %"produce squashed_head1_filter"
	movl	428(%rsp), %eax                 ## 4-byte Reload
	movl	%eax, 6096(%rsp)
	movl	424(%rsp), %eax                 ## 4-byte Reload
	movl	%eax, 6100(%rsp)
	movq	1136(%rsp), %rax                ## 8-byte Reload
	movq	%rax, 6104(%rsp)
	movq	816(%rsp), %rax                 ## 8-byte Reload
	movq	%rax, 6112(%rsp)
	leaq	7040(%rsp), %r12
	movq	%r12, 6120(%rsp)
	movq	$0, 6128(%rsp)
	leaq	_train_cost_model.par_for.squashed_head1_filter.s0.s.s.s(%rip), %rsi
	leaq	6096(%rsp), %r8
	xorl	%edi, %edi
	xorl	%edx, %edx
	movl	$16, %ecx
	vzeroupper
	callq	_halide_do_par_for
	movl	%eax, %r14d
	testl	%eax, %eax
	movq	80(%rsp), %rax                  ## 8-byte Reload
	jne	LBB0_235
## %bb.97:                              ## %"assert succeeded303"
	movl	%eax, %r13d
	movq	%r13, %rdx
	shlq	$5, %rdx
	cmpl	$67108864, %eax                 ## imm = 0x4000000
	jae	LBB0_293
## %bb.98:                              ## %"assert succeeded305"
	movq	%rdx, 168(%rsp)                 ## 8-byte Spill
	movq	%rdx, %rsi
	orq	$12, %rsi
	xorl	%edi, %edi
	callq	_halide_malloc
	testq	%rax, %rax
	je	LBB0_294
## %bb.99:                              ## %"assert succeeded307"
	movq	%rax, %rbx
	movq	1168(%rsp), %rax                ## 8-byte Reload
	movq	%rax, 6664(%rsp)
	movq	16(%rbp), %rax
	movq	%rax, 6672(%rsp)
	movq	%rbx, 6680(%rsp)
	movq	$0, 6688(%rsp)
	leaq	_train_cost_model.par_for.head1_conv.s0.w(%rip), %rsi
	leaq	6664(%rsp), %r8
	xorl	%edi, %edi
	xorl	%edx, %edx
	movq	80(%rsp), %r15                  ## 8-byte Reload
	movl	%r15d, %ecx
	callq	_halide_do_par_for
	testl	%eax, %eax
	movq	%rbx, 200(%rsp)                 ## 8-byte Spill
	jne	LBB0_273
## %bb.100:                             ## %"consume squashed_head1_filter"
	movq	%r13, 40(%rsp)                  ## 8-byte Spill
	movq	840(%rsp), %rax                 ## 8-byte Reload
	movl	508(%rsp), %edx                 ## 4-byte Reload
	imull	%edx, %eax
	movl	512(%rsp), %ecx                 ## 4-byte Reload
	movl	%ecx, %esi
	imull	1104(%rsp), %esi                ## 4-byte Folded Reload
	addl	1112(%rsp), %esi                ## 4-byte Folded Reload
	movq	%rax, 840(%rsp)                 ## 8-byte Spill
	addl	%eax, %esi
	movl	%ecx, 6696(%rsp)
	movl	%edx, 6700(%rsp)
	movl	%esi, 464(%rsp)                 ## 4-byte Spill
	movl	%esi, 6704(%rsp)
	movq	%rbx, 6712(%rsp)
	movq	$0, 6720(%rsp)
	movq	1160(%rsp), %rax                ## 8-byte Reload
	movq	%rax, 6728(%rsp)
	movq	1208(%rsp), %rax                ## 8-byte Reload
	movq	%rax, 6736(%rsp)
	movq	%r12, 6744(%rsp)
	movq	$0, 6752(%rsp)
	leaq	_train_cost_model.par_for.head1_conv.s1.w(%rip), %rsi
	leaq	6696(%rsp), %r8
	xorl	%edi, %edi
	xorl	%edx, %edx
	movl	%r15d, %ecx
	callq	_halide_do_par_for
	testl	%eax, %eax
	jne	LBB0_273
## %bb.101:                             ## %"assert succeeded311"
	movq	1664(%rsp), %r13                ## 8-byte Reload
	movl	%r13d, %r9d
	sarl	$3, %r9d
	movq	120(%rsp), %r14                 ## 8-byte Reload
	cmpl	$2, %r14d
	movl	$2, %r10d
	cmovll	%r14d, %r10d
	testl	%r10d, %r10d
	movl	$1, %r8d
	cmovlel	%r8d, %r10d
	movq	152(%rsp), %r12                 ## 8-byte Reload
	leal	39(%r12), %eax
	movl	%eax, %edx
	sarl	$31, %edx
	xorl	%edx, %eax
	imulq	$1717986919, %rax, %rdi         ## imm = 0x66666667
	shrq	$36, %rdi
	xorl	%edx, %edi
	leal	1(%r15), %esi
	movl	%esi, %eax
	shrl	%eax
	movl	%edi, %ecx
	movl	%eax, 56(%rsp)                  ## 4-byte Spill
	imull	%eax, %ecx
	xorl	%edx, %edx
	testl	%ecx, %ecx
	setle	%dl
	movq	%rcx, 128(%rsp)                 ## 8-byte Spill
	leal	(%rdx,%rcx,2), %eax
	decl	%eax
	movl	%edx, %r11d
	negl	%r11d
	xorl	%ecx, %ecx
	testl	%edi, %edi
	sete	%cl
	xorl	%ebx, %ebx
	cmpl	$-39, %r12d
	setl	%bl
	cltd
	movq	%rdi, 208(%rsp)                 ## 8-byte Spill
	addl	%ecx, %edi
	idivl	%edi
	leal	(%rbx,%rbx), %edx
	decl	%edx
	andl	%r11d, %edx
	addl	%eax, %edx
	decl	%ecx
	andl	%edx, %ecx
	andl	$2147483646, %esi               ## imm = 0x7FFFFFFE
	decl	%esi
	cmpl	%ecx, %esi
	cmovgl	%ecx, %esi
	andl	$-2, %esi
	addl	%r10d, %esi
	testl	%esi, %esi
	cmovgl	%r8d, %esi
	movl	$2147483648, %r10d              ## imm = 0x80000000
	cmpl	%r14d, %esi
	cmovlel	%r14d, %esi
	cmpl	$7, %r14d
	movl	$7, %ecx
	cmovll	%r14d, %ecx
	testl	%ecx, %ecx
	cmovlel	%r8d, %ecx
	leal	-1(%r15), %ebx
	movl	%ebx, %eax
	sarl	$31, %eax
	movl	%eax, %edx
	xorl	%ebx, %edx
	leaq	306783379(%r10), %r14
	imulq	%r14, %rdx
	shrq	$34, %rdx
	xorl	%eax, %edx
	leal	(,%rdx,8), %eax
	subl	%edx, %eax
	addl	%ecx, %eax
	cmpl	%r15d, %eax
	cmovgl	%r15d, %eax
	cmpl	%eax, %esi
	cmovgl	%esi, %eax
	cmpl	$4, %r9d
	movl	$4, %ecx
	cmovll	%r9d, %ecx
	movl	%r13d, %edx
	sarl	$31, %edx
	xorl	%edx, %r13d
	imulq	$1717986919, %r13, %rsi         ## imm = 0x66666667
	shrq	$36, %rsi
	xorl	%edx, %esi
	leal	(%rsi,%rsi,4), %edx
	movq	232(%rsp), %rsi                 ## 8-byte Reload
	leal	(%rsi,%rdx,8), %edx
	movl	1332(%rsp), %edi                ## 4-byte Reload
	cmpl	%edx, %edi
	cmovgl	%edx, %edi
	movq	1672(%rsp), %rdx                ## 8-byte Reload
	leal	(%rdx,%rcx,8), %r12d
	addl	%edi, %r12d
	movq	112(%rsp), %rcx                 ## 8-byte Reload
	cmpl	%ecx, %r12d
	cmovgl	%ecx, %r12d
	movq	136(%rsp), %rcx                 ## 8-byte Reload
	cmpl	%ecx, %r12d
	movl	%ecx, %r13d
	cmovgl	%r12d, %r13d
	movl	144(%rsp), %ecx                 ## 4-byte Reload
	cmpl	%ecx, %r13d
	cmovlel	%ecx, %r13d
	subl	%esi, %r13d
	movl	%r13d, %ecx
	sarl	$31, %ecx
	andnl	%r13d, %ecx, %ecx
	movl	%eax, %edx
	sarl	$31, %edx
	andnl	%eax, %edx, %eax
	imulq	$156, %rcx, %rsi
	movq	%rsi, %rdx
	imulq	%rax, %rdx
	cmpq	%r10, %rdx
	jae	LBB0_274
## %bb.102:                             ## %"assert succeeded311"
	movl	%ecx, %edi
	shll	$2, %edi
	imulq	$39, %rdi, %rdi
	shrq	$32, %rdi
	shrq	$30, %rcx
	imulq	$39, %rcx, %rcx
	addq	%rdi, %rcx
	movl	%esi, %esi
	imulq	%rax, %rsi
	shrq	$32, %rsi
	imulq	%rax, %rcx
	addq	%rsi, %rcx
	movabsq	$4393751543808, %rax            ## imm = 0x3FF00000000
	andq	%rcx, %rax
	jne	LBB0_274
## %bb.103:                             ## %"assert succeeded313"
	movl	%ebx, 280(%rsp)                 ## 4-byte Spill
	addq	$12, %rdx
	xorl	%edi, %edi
	movq	%rdx, %rsi
	callq	_halide_malloc
	testq	%rax, %rax
	je	LBB0_295
## %bb.104:                             ## %"assert succeeded315"
	movq	40(%rsp), %rsi                  ## 8-byte Reload
	imulq	%r14, %rsi
	shrq	$31, %rsi
	andl	$-8, %esi
	movq	80(%rsp), %r9                   ## 8-byte Reload
	leal	6(%r9), %ebx
	imulq	%r14, %rbx
	shrq	$31, %rbx
	andl	$-8, %ebx
	movl	32(%rsp), %r8d                  ## 4-byte Reload
	movl	%r8d, %edi
	imull	440(%rsp), %edi                 ## 4-byte Folded Reload
	movq	216(%rsp), %r10                 ## 8-byte Reload
	movl	%r10d, %ecx
	imull	288(%rsp), %ecx                 ## 4-byte Folded Reload
	movq	320(%rsp), %rdx                 ## 8-byte Reload
	movq	%rcx, 256(%rsp)                 ## 8-byte Spill
	addl	%ecx, %edx
	movq	%rdx, 312(%rsp)                 ## 8-byte Spill
	movq	%rdi, 304(%rsp)                 ## 8-byte Spill
	leal	(%rdx,%rdi), %edx
	movl	%r13d, 1752(%rsp)
	movl	%r10d, 1756(%rsp)
	movl	%r8d, 1760(%rsp)
	movq	%rsi, 40(%rsp)                  ## 8-byte Spill
	movl	%esi, 1764(%rsp)
	movq	152(%rsp), %rcx                 ## 8-byte Reload
	movl	%ecx, 1768(%rsp)
	movl	%edx, 160(%rsp)                 ## 4-byte Spill
	movl	%edx, 1772(%rsp)
	movl	%ecx, 1776(%rsp)
	movl	%r9d, 1780(%rsp)
	movq	232(%rsp), %r15                 ## 8-byte Reload
	movl	%r15d, 1784(%rsp)
	movq	112(%rsp), %rcx                 ## 8-byte Reload
	movl	%ecx, 1788(%rsp)
	movq	%rax, 48(%rsp)                  ## 8-byte Spill
	movq	%rax, 1792(%rsp)
	movq	$0, 1800(%rsp)
	movq	184(%rsp), %rax                 ## 8-byte Reload
	movq	%rax, 1808(%rsp)
	movq	24(%rsp), %rax                  ## 8-byte Reload
	movq	%rax, 1816(%rsp)
	leaq	_train_cost_model.par_for.normalized_schedule_features.s0.c.c.c(%rip), %rsi
	leaq	1752(%rsp), %r8
	xorl	%edi, %edi
	xorl	%edx, %edx
	movq	%rbx, 272(%rsp)                 ## 8-byte Spill
	movl	%ebx, %ecx
	callq	_halide_do_par_for
	testl	%eax, %eax
	jne	LBB0_298
## %bb.105:                             ## %"assert succeeded317"
	movl	144(%rsp), %eax                 ## 4-byte Reload
	cmpl	%eax, %r12d
	cmovlel	%eax, %r12d
	movq	136(%rsp), %rsi                 ## 8-byte Reload
	cmpl	$5, %esi
	movl	$5, %eax
	cmovll	%esi, %eax
	movl	224(%rsp), %edi                 ## 4-byte Reload
	movl	%edi, %ecx
	sarl	$31, %ecx
	movl	%ecx, %edx
	xorl	%edi, %edx
	imulq	$1717986919, %rdx, %rdx         ## imm = 0x66666667
	shrq	$33, %rdx
	xorl	%ecx, %edx
	leal	(%rdx,%rdx,4), %ecx
	addl	%eax, %ecx
	cmpl	%esi, %ecx
	cmovgel	%esi, %ecx
	cmpl	%ecx, %r12d
	cmovgl	%r12d, %ecx
	testl	%ecx, %ecx
	movl	$1, %ebx
	cmovgl	%ecx, %ebx
	subl	%r15d, %ebx
	movq	1048(%rsp), %rax                ## 8-byte Reload
	testl	%eax, %eax
	movl	$-1, %r15d
	cmovnsl	%eax, %r15d
	movl	%ebx, %eax
	sarl	$31, %eax
	andnl	%ebx, %eax, %eax
	incl	%r15d
	movq	%r15, %rcx
	shlq	$5, %rcx
	leaq	(%rcx,%rcx,2), %rcx
	movq	%rcx, %rsi
	imulq	%rax, %rsi
	movl	$2147483648, %edx               ## imm = 0x80000000
	cmpq	%rdx, %rsi
	jae	LBB0_275
## %bb.106:                             ## %"assert succeeded317"
	movabsq	$545460846592, %rdi             ## imm = 0x7F00000000
	movq	%rcx, %rdx
	shrq	$32, %rdx
	movl	%ecx, %ecx
	imulq	%rax, %rcx
	shrq	$32, %rcx
	imulq	%rax, %rdx
	addq	%rcx, %rdx
	andq	%rdi, %rdx
	jne	LBB0_275
## %bb.107:                             ## %"assert succeeded319"
	movl	%r13d, 296(%rsp)                ## 4-byte Spill
	orq	$12, %rsi
	xorl	%edi, %edi
	callq	_halide_malloc
	testq	%rax, %rax
	movq	128(%rsp), %r14                 ## 8-byte Reload
	movq	208(%rsp), %rcx                 ## 8-byte Reload
	je	LBB0_299
## %bb.108:                             ## %"assert succeeded321"
	movq	%rax, %rdx
	addl	%r14d, %r14d
	movl	%ebx, 3008(%rsp)
	movq	232(%rsp), %rax                 ## 8-byte Reload
	movl	%eax, 3012(%rsp)
	movl	%ecx, 3016(%rsp)
	movq	80(%rsp), %rax                  ## 8-byte Reload
	movl	%eax, 3020(%rsp)
	movq	112(%rsp), %r12                 ## 8-byte Reload
	movl	%r12d, 3024(%rsp)
	movq	104(%rsp), %r13                 ## 8-byte Reload
	movl	%r13d, 3028(%rsp)
	movq	1184(%rsp), %rax                ## 8-byte Reload
	movq	%rax, 3032(%rsp)
	movq	32(%rbp), %rax
	movq	%rax, 3040(%rsp)
	movq	%rdx, 3048(%rsp)
	movq	$0, 3056(%rsp)
	movq	%rdx, 64(%rsp)                  ## 8-byte Spill
	leaq	_train_cost_model.par_for.head2_conv.s0.n.n.n(%rip), %rsi
	leaq	3008(%rsp), %r8
	xorl	%edi, %edi
	xorl	%edx, %edx
	movl	%r14d, %ecx
	callq	_halide_do_par_for
	testl	%eax, %eax
	jne	LBB0_276
## %bb.109:                             ## %"consume normalized_schedule_features"
	movq	%r14, %rcx
	movl	%ebx, 344(%rsp)                 ## 4-byte Spill
	movl	%ebx, 4064(%rsp)
	movl	516(%rsp), %eax                 ## 4-byte Reload
	movl	%eax, 4068(%rsp)
	movl	296(%rsp), %eax                 ## 4-byte Reload
	movl	%eax, 4072(%rsp)
	movq	232(%rsp), %rbx                 ## 8-byte Reload
	movl	%ebx, 4076(%rsp)
	movq	208(%rsp), %rax                 ## 8-byte Reload
	movl	%eax, 4080(%rsp)
	movq	80(%rsp), %rax                  ## 8-byte Reload
	movl	%eax, 4084(%rsp)
	movl	%r12d, 4088(%rsp)
	movl	%r13d, 4092(%rsp)
	movq	64(%rsp), %rax                  ## 8-byte Reload
	movq	%rax, 4096(%rsp)
	movq	$0, 4104(%rsp)
	movq	1176(%rsp), %rax                ## 8-byte Reload
	movq	%rax, 4112(%rsp)
	movq	24(%rbp), %rax
	movq	%rax, 4120(%rsp)
	movq	48(%rsp), %rax                  ## 8-byte Reload
	movq	%rax, 4128(%rsp)
	movq	$0, 4136(%rsp)
	leaq	_train_cost_model.par_for.head2_conv.s1.n.n.n(%rip), %rsi
	leaq	4064(%rsp), %r8
	xorl	%edi, %edi
	xorl	%edx, %edx
                                        ## kill: def $ecx killed $ecx killed $rcx
	callq	_halide_do_par_for
	testl	%eax, %eax
	jne	LBB0_276
## %bb.110:                             ## %"assert succeeded325"
	movq	136(%rsp), %rax                 ## 8-byte Reload
	movl	144(%rsp), %ecx                 ## 4-byte Reload
	cmpl	%eax, %ecx
	movl	%eax, %r14d
	cmovgl	%ecx, %r14d
	subl	%ebx, %r14d
	movl	%r14d, %eax
	sarl	$31, %eax
	andnl	%r14d, %eax, %eax
	movq	168(%rsp), %rcx                 ## 8-byte Reload
	leaq	(%rcx,%rcx,2), %rcx
	movq	%rcx, %rdx
	imulq	%rax, %rdx
	movl	$2147483648, %esi               ## imm = 0x80000000
	cmpq	%rsi, %rdx
	jae	LBB0_277
## %bb.111:                             ## %"assert succeeded325"
	movq	%rcx, %rsi
	shrq	$32, %rsi
	movl	%ecx, %ecx
	imulq	%rax, %rcx
	shrq	$32, %rcx
	imulq	%rax, %rsi
	addq	%rcx, %rsi
	movabsq	$545460846592, %rax             ## imm = 0x7F00000000
	andq	%rax, %rsi
	jne	LBB0_277
## %bb.112:                             ## %"assert succeeded327"
	movq	%r13, %r12
	movq	%rbx, %r13
	orq	$12, %rdx
	xorl	%edi, %edi
	movq	%rdx, %rsi
	callq	_halide_malloc
	testq	%rax, %rax
	movq	112(%rsp), %rcx                 ## 8-byte Reload
	movq	80(%rsp), %rbx                  ## 8-byte Reload
	je	LBB0_302
## %bb.113:                             ## %"assert succeeded329"
	movl	344(%rsp), %edx                 ## 4-byte Reload
	movl	%edx, 3400(%rsp)
	movl	%r14d, 480(%rsp)                ## 4-byte Spill
	movl	%r14d, 3404(%rsp)
	movq	40(%rsp), %rdx                  ## 8-byte Reload
	movl	%edx, 3408(%rsp)
	movq	152(%rsp), %rdx                 ## 8-byte Reload
	movl	%edx, 3412(%rsp)
	movl	%r12d, 3416(%rsp)
	movl	%edx, 3420(%rsp)
	movl	%ebx, 3424(%rsp)
	movl	%r13d, 3428(%rsp)
	movl	%ecx, 3432(%rsp)
	movq	64(%rsp), %rcx                  ## 8-byte Reload
	movq	%rcx, 3440(%rsp)
	movq	$0, 3448(%rsp)
	movq	%rax, 128(%rsp)                 ## 8-byte Spill
	movq	%rax, 3456(%rsp)
	movq	$0, 3464(%rsp)
	leaq	_train_cost_model.par_for.head2_relu.s0.c.c.c(%rip), %rsi
	leaq	3400(%rsp), %r8
	xorl	%edi, %edi
	xorl	%edx, %edx
	movq	272(%rsp), %rcx                 ## 8-byte Reload
                                        ## kill: def $ecx killed $ecx killed $rcx
	callq	_halide_do_par_for
	testl	%eax, %eax
	jne	LBB0_305
## %bb.114:                             ## %"assert succeeded331"
	movl	224(%rsp), %eax                 ## 4-byte Reload
	andl	$-8, %eax
	movq	176(%rsp), %rcx                 ## 8-byte Reload
	addl	%eax, %ecx
	movq	136(%rsp), %rax                 ## 8-byte Reload
	cmpl	%eax, %ecx
	cmovgel	%eax, %ecx
	movl	144(%rsp), %edx                 ## 4-byte Reload
	cmpl	%ecx, %edx
	movq	%rcx, 176(%rsp)                 ## 8-byte Spill
	movl	%ecx, %eax
	cmovgl	%edx, %eax
	testl	%eax, %eax
	movl	$1, %r14d
	cmovgl	%eax, %r14d
	subl	%r13d, %r14d
	movl	%r14d, %eax
	sarl	$31, %eax
	andnl	%r14d, %eax, %eax
	movq	%r15, %rcx
	shlq	$7, %rcx
	movq	%rcx, %rsi
	imulq	%rax, %rsi
	movl	$2147483648, %edx               ## imm = 0x80000000
	cmpq	%rdx, %rsi
	jae	LBB0_278
## %bb.115:                             ## %"assert succeeded331"
	shrq	$25, %r15
	movl	%ecx, %ecx
	imulq	%rax, %rcx
	shrq	$32, %rcx
	imulq	%rax, %r15
	addq	%rcx, %r15
	movabsq	$545460846592, %rcx             ## imm = 0x7F00000000
	andq	%rcx, %r15
	jne	LBB0_278
## %bb.116:                             ## %"assert succeeded333"
	orq	$12, %rsi
	xorl	%edi, %edi
	callq	_halide_malloc
	testq	%rax, %rax
	je	LBB0_306
## %bb.117:                             ## %"assert succeeded335"
	movq	%rax, %rdx
	movl	%ebx, %eax
	andl	$2147483644, %eax               ## imm = 0x7FFFFFFC
	movl	%r14d, 5648(%rsp)
	movl	240(%rsp), %ecx                 ## 4-byte Reload
	movl	%ecx, 5652(%rsp)
	movl	%eax, 5656(%rsp)
	movl	280(%rsp), %eax                 ## 4-byte Reload
	sarl	%eax
	movq	152(%rsp), %r15                 ## 8-byte Reload
	movl	%r15d, 5660(%rsp)
	movl	%r12d, 5664(%rsp)
	movl	%r15d, 5668(%rsp)
	movl	%eax, 5672(%rsp)
	leal	3(%rbx), %ecx
	andl	$2147483644, %ecx               ## imm = 0x7FFFFFFC
	movl	%ebx, 5676(%rsp)
	movq	232(%rsp), %r12                 ## 8-byte Reload
	movl	%r12d, 5680(%rsp)
	movq	112(%rsp), %rax                 ## 8-byte Reload
	movl	%eax, 5684(%rsp)
	movq	1192(%rsp), %rax                ## 8-byte Reload
	movq	%rax, 5688(%rsp)
	movq	48(%rbp), %rax
	movq	%rax, 5696(%rsp)
	movq	%rdx, 5704(%rsp)
	movq	$0, 5712(%rsp)
	movq	856(%rsp), %r13                 ## 8-byte Reload
	movq	%r13, 5720(%rsp)
	movq	40(%rbp), %rax
	movq	%rax, 5728(%rsp)
	movq	200(%rsp), %rax                 ## 8-byte Reload
	movq	%rax, 5736(%rsp)
	movq	$0, 5744(%rsp)
	leaq	_train_cost_model.par_for.conv1_stage2.s0.c.c.c(%rip), %rsi
	leaq	5648(%rsp), %r8
	xorl	%edi, %edi
	movq	%rdx, 168(%rsp)                 ## 8-byte Spill
	xorl	%edx, %edx
	callq	_halide_do_par_for
	movq	168(%rsp), %rdx                 ## 8-byte Reload
	testl	%eax, %eax
	jne	LBB0_279
## %bb.118:                             ## %"consume head2_relu"
	leal	(%rbx,%rbx), %eax
	andl	$2147483644, %eax               ## imm = 0x7FFFFFFC
	movl	%r14d, 264(%rsp)                ## 4-byte Spill
	movl	%r14d, 3472(%rsp)
	movl	240(%rsp), %ecx                 ## 4-byte Reload
	movl	%ecx, 3476(%rsp)
	movl	480(%rsp), %ecx                 ## 4-byte Reload
	movl	%ecx, 3480(%rsp)
	movl	%eax, 3484(%rsp)
	movl	%r15d, 3488(%rsp)
	movq	104(%rsp), %rax                 ## 8-byte Reload
	movl	%eax, 3492(%rsp)
	movl	%r15d, 3496(%rsp)
	movl	%ebx, 3500(%rsp)
	movl	56(%rsp), %ecx                  ## 4-byte Reload
	shll	$2, %ecx
	movl	%r12d, 3504(%rsp)
	movq	112(%rsp), %rbx                 ## 8-byte Reload
	movl	%ebx, 3508(%rsp)
	movq	%rdx, 3512(%rsp)
	movq	$0, 3520(%rsp)
	movq	%r13, 3528(%rsp)
	movq	40(%rbp), %rax
	movq	%rax, 3536(%rsp)
	movq	128(%rsp), %rax                 ## 8-byte Reload
	movq	%rax, 3544(%rsp)
	movq	$0, 3552(%rsp)
	leaq	_train_cost_model.par_for.conv1_stage2.s1.c.c.c(%rip), %rsi
	leaq	3472(%rsp), %r8
	xorl	%edi, %edi
	xorl	%edx, %edx
	callq	_halide_do_par_for
	testl	%eax, %eax
	jne	LBB0_279
## %bb.119:                             ## %"assert succeeded339"
	movq	1152(%rsp), %rcx                ## 8-byte Reload
	addl	848(%rsp), %ecx                 ## 4-byte Folded Reload
	movq	136(%rsp), %rax                 ## 8-byte Reload
	cmpl	%eax, %ecx
	cmovlel	%eax, %ecx
	movq	1712(%rsp), %rax                ## 8-byte Reload
	cmpl	%eax, %ecx
	cmovlel	%eax, %ecx
	movl	144(%rsp), %eax                 ## 4-byte Reload
	cmpl	%eax, %ecx
	cmovlel	%eax, %ecx
	testl	%ecx, %ecx
	movl	$1, %eax
	cmovgl	%ecx, %eax
	subl	%r12d, %eax
	movl	%eax, %ecx
	sarl	$31, %ecx
	andnl	%eax, %ecx, %eax
	leaq	(,%rax,4), %rdx
	cmpl	$536870912, %eax                ## imm = 0x20000000
	jae	LBB0_309
## %bb.120:                             ## %"assert succeeded341"
	movq	%rbx, %r13
	addq	$12, %rdx
	xorl	%edi, %edi
	movq	%rdx, %rsi
	callq	_halide_malloc
	testq	%rax, %rax
	je	LBB0_310
## %bb.121:                             ## %"assert succeeded343"
	leal	7(%r15), %ebx
	sarl	$3, %ebx
	sarl	$3, %r15d
	movl	%r15d, 4144(%rsp)
	movl	%r12d, 4148(%rsp)
	movl	%r13d, 4152(%rsp)
	movq	%rax, 4160(%rsp)
	movq	$0, 4168(%rsp)
	movq	%rax, 56(%rsp)                  ## 8-byte Spill
	leaq	_train_cost_model.par_for.f1.s0.n.n(%rip), %rsi
	leaq	4144(%rsp), %r8
	xorl	%edi, %edi
	xorl	%edx, %edx
	movl	%ebx, %ecx
	callq	_halide_do_par_for
	testl	%eax, %eax
	jne	LBB0_313
## %bb.122:                             ## %"consume conv1_stage2"
	movq	%r12, %rcx
	vcvtsi2ssl	1336(%rsp), %xmm0, %xmm0 ## 4-byte Folded Reload
	movl	264(%rsp), %eax                 ## 4-byte Reload
	movl	%eax, 5856(%rsp)
	movq	120(%rsp), %r12                 ## 8-byte Reload
	movl	%r12d, 5860(%rsp)
	movq	216(%rsp), %rax                 ## 8-byte Reload
	movl	%eax, 5864(%rsp)
	movl	32(%rsp), %eax                  ## 4-byte Reload
	movl	%eax, 5868(%rsp)
	movl	%r15d, 5872(%rsp)
	movl	%ecx, 5876(%rsp)
	movl	160(%rsp), %eax                 ## 4-byte Reload
	movl	%eax, 5880(%rsp)
	vmovss	%xmm0, 432(%rsp)                ## 4-byte Spill
	vmovss	%xmm0, 5884(%rsp)
	movl	%r13d, 5888(%rsp)
	movq	168(%rsp), %rax                 ## 8-byte Reload
	movq	%rax, 5896(%rsp)
	movq	$0, 5904(%rsp)
	movq	56(%rsp), %r13                  ## 8-byte Reload
	movq	%r13, 5912(%rsp)
	movq	$0, 5920(%rsp)
	movq	184(%rsp), %rax                 ## 8-byte Reload
	movq	%rax, 5928(%rsp)
	movq	24(%rsp), %rax                  ## 8-byte Reload
	movq	%rax, 5936(%rsp)
	leaq	_train_cost_model.par_for.f1.s1.n.n(%rip), %rsi
	xorl	%r15d, %r15d
	leaq	5856(%rsp), %r8
	xorl	%edi, %edi
	xorl	%edx, %edx
	movl	%ebx, %ecx
	callq	_halide_do_par_for
	testl	%eax, %eax
	jne	LBB0_314
## %bb.123:                             ## %"produce sum$1_1_d_def__"
	movl	$1065353216, 7040(%rsp)         ## imm = 0x3F800000
	movq	136(%rsp), %r8                  ## 8-byte Reload
	leal	7(%r8), %r13d
	sarl	$3, %r13d
	leal	1(%r12), %eax
	sarl	%eax
	imull	%r13d, %eax
	xorl	%ecx, %ecx
	testl	%eax, %eax
	setle	%cl
	movq	%rax, 104(%rsp)                 ## 8-byte Spill
	addl	%ecx, %eax
	decl	%eax
	movl	%ecx, %esi
	negl	%esi
	xorl	%ecx, %ecx
	testl	%r13d, %r13d
	sete	%cl
	xorl	%edi, %edi
	cmpl	$-7, %r8d
	setl	%dil
	leal	(%rcx,%r13), %ebx
	cltd
	idivl	%ebx
	leal	(%rdi,%rdi), %edx
	decl	%edx
	andl	%esi, %edx
	addl	%eax, %edx
	decl	%ecx
	andl	%edx, %ecx
	testl	%r8d, %r8d
	movl	%ecx, %r14d
	cmovgl	%r15d, %r14d
	cmovlel	%r15d, %ecx
	leal	(%r14,%r14), %esi
	movl	%r12d, %eax
	subl	%esi, %eax
	cmpl	$2, %eax
	movl	$2, %edx
	cmovll	%eax, %edx
	leal	-1(%r12), %eax
	sarl	%eax
	cmpl	%ecx, %eax
	cmovgl	%ecx, %eax
	leal	(%rdx,%rax,2), %eax
	cmpl	%r12d, %eax
	cmovgel	%r12d, %eax
	movl	%esi, 336(%rsp)                 ## 4-byte Spill
	subl	%esi, %eax
	movl	196(%rsp), %edx                 ## 4-byte Reload
	movl	%edx, %ecx
	sarl	$31, %ecx
	andnl	%edx, %ecx, %ecx
	movl	%eax, %edx
	sarl	$31, %edx
	andnl	%eax, %edx, %eax
	movq	%rax, %rsi
	imulq	%rcx, %rsi
	leaq	(,%rcx,4), %rdx
	cmpq	$536870911, %rsi                ## imm = 0x1FFFFFFF
	ja	LBB0_280
## %bb.124:                             ## %"produce sum$1_1_d_def__"
	shrq	$30, %rcx
	movl	%edx, %edi
	imulq	%rax, %rdi
	shrq	$32, %rdi
	imulq	%rax, %rcx
	addq	%rdi, %rcx
	movabsq	$4294967296, %rdi               ## imm = 0x100000000
	andq	%rdi, %rcx
	jne	LBB0_280
## %bb.125:                             ## %"assert succeeded349"
	leaq	12(,%rsi,4), %rsi
	xorl	%edi, %edi
	callq	_halide_malloc
	testq	%rax, %rax
	movq	176(%rsp), %r15                 ## 8-byte Reload
	je	LBB0_315
## %bb.126:                             ## %"assert succeeded351"
	movq	%rax, %rsi
	movl	64(%rbp), %eax
	movq	136(%rsp), %rdx                 ## 8-byte Reload
	cmpl	%eax, %edx
	movl	224(%rsp), %ecx                 ## 4-byte Reload
	cmovgl	%eax, %ecx
	movl	%ecx, %eax
	sarl	$31, %eax
	andnl	%ecx, %eax, %edi
	movq	1128(%rsp), %rax                ## 8-byte Reload
	subl	%eax, %edi
	movl	%edx, 6000(%rsp)
	movl	196(%rsp), %ecx                 ## 4-byte Reload
	movl	%ecx, 6004(%rsp)
	movl	%r14d, 6008(%rsp)
	movl	%r12d, 6012(%rsp)
	movl	%r13d, 6016(%rsp)
	movl	%edi, 472(%rsp)                 ## 4-byte Spill
	movl	%edi, 6020(%rsp)
	movq	232(%rsp), %rcx                 ## 8-byte Reload
	movl	%ecx, 6024(%rsp)
	movl	%eax, 6028(%rsp)
	movq	%rsi, 40(%rsp)                  ## 8-byte Spill
	movq	%rsi, 6032(%rsp)
	movq	$0, 6040(%rsp)
	movq	56(%rsp), %rax                  ## 8-byte Reload
	movq	%rax, 6048(%rsp)
	movq	$0, 6056(%rsp)
	leaq	7040(%rsp), %rax
	movq	%rax, 6064(%rsp)
	movq	$0, 6072(%rsp)
	movq	1200(%rsp), %rax                ## 8-byte Reload
	movq	%rax, 6080(%rsp)
	movq	72(%rbp), %rax
	movq	%rax, 6088(%rsp)
	leaq	_train_cost_model.par_for.f0_0_d_def__.s0.n.n.n(%rip), %rsi
	leaq	6000(%rsp), %r8
	xorl	%edi, %edi
	xorl	%edx, %edx
	movq	104(%rsp), %rcx                 ## 8-byte Reload
                                        ## kill: def $ecx killed $ecx killed $rcx
	callq	_halide_do_par_for
	testl	%eax, %eax
	jne	LBB0_317
## %bb.127:                             ## %"assert succeeded353"
	movq	%r14, %rdi
	movq	%r13, 112(%rsp)                 ## 8-byte Spill
	movl	%edi, %eax
	sarl	$31, %eax
	andl	%edi, %eax
	movq	%rax, 144(%rsp)                 ## 8-byte Spill
	leal	(%rax,%rax), %ecx
	movl	%r12d, %eax
	movl	%ecx, 248(%rsp)                 ## 4-byte Spill
	subl	%ecx, %eax
	movl	%eax, %ecx
	sarl	$31, %ecx
	andnl	%eax, %ecx, %eax
	movq	%r15, %rdx
	movl	%edx, %ecx
	sarl	$31, %ecx
	andnl	%edx, %ecx, %ebx
	movq	%rbx, %rsi
	imulq	%rax, %rsi
	shlq	$7, %rsi
	movq	%rax, %rdx
	shlq	$7, %rdx
	movl	$2147483648, %ecx               ## imm = 0x80000000
	cmpq	%rcx, %rsi
	jae	LBB0_281
## %bb.128:                             ## %"assert succeeded353"
	movabsq	$270582939648, %r8              ## imm = 0x3F00000000
	shrq	$25, %rax
	movl	%edx, %ecx
	imulq	%rbx, %rcx
	shrq	$32, %rcx
	imulq	%rbx, %rax
	addq	%rcx, %rax
	andq	%r8, %rax
	jne	LBB0_281
## %bb.129:                             ## %"assert succeeded355"
	movq	%rbx, 456(%rsp)                 ## 8-byte Spill
	movq	%rdi, 152(%rsp)                 ## 8-byte Spill
	orq	$12, %rsi
	xorl	%edi, %edi
	callq	_halide_malloc
	movq	%rax, 80(%rsp)                  ## 8-byte Spill
	testq	%rax, %rax
	movq	184(%rsp), %r12                 ## 8-byte Reload
	je	LBB0_318
## %bb.130:                             ## %"assert succeeded357"
	movq	136(%rsp), %rax                 ## 8-byte Reload
	movl	%eax, 2584(%rsp)
	movq	120(%rsp), %rax                 ## 8-byte Reload
	movl	%eax, 2588(%rsp)
	movl	%r15d, 2592(%rsp)
	movq	112(%rsp), %rax                 ## 8-byte Reload
	movl	%eax, 2596(%rsp)
	movq	144(%rsp), %rax                 ## 8-byte Reload
	movl	%eax, 2600(%rsp)
	movq	80(%rsp), %rax                  ## 8-byte Reload
	movq	%rax, 2608(%rsp)
	movq	$0, 2616(%rsp)
	leaq	_train_cost_model.par_for.relu1_0_d_def__.s0.n.n.n(%rip), %rsi
	leaq	2584(%rsp), %r8
	xorl	%edi, %edi
	xorl	%edx, %edx
	movq	104(%rsp), %rcx                 ## 8-byte Reload
                                        ## kill: def $ecx killed $ecx killed $rcx
	callq	_halide_do_par_for
	testl	%eax, %eax
	jne	LBB0_264
## %bb.131:                             ## %"consume f0_0_d_def__"
	movl	$21, %eax
	subl	288(%rsp), %eax                 ## 4-byte Folded Reload
	movq	216(%rsp), %rbx                 ## 8-byte Reload
	imull	%ebx, %eax
	subl	320(%rsp), %eax                 ## 4-byte Folded Reload
	movq	304(%rsp), %rcx                 ## 8-byte Reload
	subl	%ecx, %eax
	movq	136(%rsp), %rsi                 ## 8-byte Reload
	movl	%esi, 3560(%rsp)
	movl	196(%rsp), %edx                 ## 4-byte Reload
	movl	%edx, 3564(%rsp)
	movq	152(%rsp), %rdx                 ## 8-byte Reload
	movl	%edx, 3568(%rsp)
	movq	120(%rsp), %rdx                 ## 8-byte Reload
	movl	%edx, 3572(%rsp)
	movl	%r15d, 3576(%rsp)
	movl	32(%rsp), %edx                  ## 4-byte Reload
	movl	%edx, 3580(%rsp)
	movq	112(%rsp), %rdx                 ## 8-byte Reload
	movl	%edx, 3584(%rsp)
	movl	%eax, 3588(%rsp)
	leal	(%rbx,%rbx,4), %eax
	leal	(%rbx,%rax,4), %eax
	addl	%esi, %eax
	subl	312(%rsp), %eax                 ## 4-byte Folded Reload
	subl	%ecx, %eax
	movl	%eax, 3592(%rsp)
	movq	144(%rsp), %rax                 ## 8-byte Reload
	movl	%eax, 3596(%rsp)
	movq	40(%rsp), %rax                  ## 8-byte Reload
	movq	%rax, 3600(%rsp)
	movq	$0, 3608(%rsp)
	movq	80(%rsp), %rax                  ## 8-byte Reload
	movq	%rax, 3616(%rsp)
	movq	$0, 3624(%rsp)
	movq	%r12, 3632(%rsp)
	movq	24(%rsp), %r15                  ## 8-byte Reload
	movq	%r15, 3640(%rsp)
	leaq	_train_cost_model.par_for.relu1_0_d_def__.s6.n.n.n(%rip), %rsi
	leaq	3560(%rsp), %r8
	xorl	%edi, %edi
	xorl	%edx, %edx
	movq	104(%rsp), %rcx                 ## 8-byte Reload
                                        ## kill: def $ecx killed $ecx killed $rcx
	callq	_halide_do_par_for
	testl	%eax, %eax
	jne	LBB0_264
## %bb.132:                             ## %"consume f0_0_d_def__362"
	movq	%r12, %rcx
	leal	(%rbx,%rbx,8), %r12d
	movq	136(%rsp), %rax                 ## 8-byte Reload
	movl	%eax, 4176(%rsp)
	movl	196(%rsp), %eax                 ## 4-byte Reload
	movl	%eax, 4180(%rsp)
	movq	152(%rsp), %rax                 ## 8-byte Reload
	movl	%eax, 4184(%rsp)
	movq	120(%rsp), %rax                 ## 8-byte Reload
	movl	%eax, 4188(%rsp)
	movq	176(%rsp), %rax                 ## 8-byte Reload
	movl	%eax, 4192(%rsp)
	movl	%ebx, 4196(%rsp)
	movl	32(%rsp), %eax                  ## 4-byte Reload
	movl	%eax, 4200(%rsp)
	movq	112(%rsp), %rax                 ## 8-byte Reload
	movl	%eax, 4204(%rsp)
	movq	144(%rsp), %rax                 ## 8-byte Reload
	movl	%eax, 4208(%rsp)
	movl	160(%rsp), %eax                 ## 4-byte Reload
	movl	%eax, 4212(%rsp)
	movl	%r12d, 4216(%rsp)
	movq	40(%rsp), %rax                  ## 8-byte Reload
	movq	%rax, 4224(%rsp)
	movq	$0, 4232(%rsp)
	movq	80(%rsp), %rax                  ## 8-byte Reload
	movq	%rax, 4240(%rsp)
	movq	$0, 4248(%rsp)
	movq	%rcx, %r13
	movq	%rcx, 4256(%rsp)
	movq	%r15, 4264(%rsp)
	leaq	_train_cost_model.par_for.relu1_0_d_def__.s7.n.n.n(%rip), %rsi
	leaq	4176(%rsp), %r8
	xorl	%edi, %edi
	xorl	%edx, %edx
	movq	104(%rsp), %rcx                 ## 8-byte Reload
                                        ## kill: def $ecx killed $ecx killed $rcx
	callq	_halide_do_par_for
	testl	%eax, %eax
	jne	LBB0_264
## %bb.133:                             ## %"consume f0_0_d_def__365"
	movq	136(%rsp), %rax                 ## 8-byte Reload
	movl	%eax, 4272(%rsp)
	movl	196(%rsp), %eax                 ## 4-byte Reload
	movl	%eax, 4276(%rsp)
	movq	152(%rsp), %rax                 ## 8-byte Reload
	movl	%eax, 4280(%rsp)
	movq	120(%rsp), %rax                 ## 8-byte Reload
	movl	%eax, 4284(%rsp)
	movq	176(%rsp), %rax                 ## 8-byte Reload
	movl	%eax, 4288(%rsp)
	movl	%ebx, 4292(%rsp)
	movl	32(%rsp), %eax                  ## 4-byte Reload
	movl	%eax, 4296(%rsp)
	movq	112(%rsp), %rax                 ## 8-byte Reload
	movl	%eax, 4300(%rsp)
	movq	144(%rsp), %rax                 ## 8-byte Reload
	movl	%eax, 4304(%rsp)
	movl	160(%rsp), %eax                 ## 4-byte Reload
	movl	%eax, 4308(%rsp)
	movl	%r12d, 208(%rsp)                ## 4-byte Spill
	movl	%r12d, 4312(%rsp)
	movq	40(%rsp), %r12                  ## 8-byte Reload
	movq	%r12, 4320(%rsp)
	movq	$0, 4328(%rsp)
	movq	80(%rsp), %rax                  ## 8-byte Reload
	movq	%rax, 4336(%rsp)
	movq	$0, 4344(%rsp)
	movq	%r13, 4352(%rsp)
	movq	%r15, 4360(%rsp)
	leaq	_train_cost_model.par_for.relu1_0_d_def__.s8.n.n.n(%rip), %rsi
	leaq	4272(%rsp), %r8
	xorl	%edi, %edi
	xorl	%edx, %edx
	movq	104(%rsp), %rcx                 ## 8-byte Reload
                                        ## kill: def $ecx killed $ecx killed $rcx
	callq	_halide_do_par_for
	testl	%eax, %eax
	jne	LBB0_264
## %bb.134:                             ## %"consume f0_0_d_def__368"
	movq	%r13, %rbx
	movq	136(%rsp), %rcx                 ## 8-byte Reload
	movl	%ecx, %eax
	subl	320(%rsp), %eax                 ## 4-byte Folded Reload
	subl	256(%rsp), %eax                 ## 4-byte Folded Reload
	subl	304(%rsp), %eax                 ## 4-byte Folded Reload
	movl	%ecx, 2624(%rsp)
	movl	196(%rsp), %r13d                ## 4-byte Reload
	movl	%r13d, 2628(%rsp)
	movq	152(%rsp), %rcx                 ## 8-byte Reload
	movl	%ecx, 2632(%rsp)
	movq	120(%rsp), %rcx                 ## 8-byte Reload
	movl	%ecx, 2636(%rsp)
	movq	176(%rsp), %rcx                 ## 8-byte Reload
	movl	%ecx, 2640(%rsp)
	movq	440(%rsp), %rcx                 ## 8-byte Reload
	movl	%ecx, 2644(%rsp)
	movl	32(%rsp), %ecx                  ## 4-byte Reload
	movl	%ecx, 2648(%rsp)
	movq	112(%rsp), %rcx                 ## 8-byte Reload
	movl	%ecx, 2652(%rsp)
	movq	312(%rsp), %rcx                 ## 8-byte Reload
	movl	%ecx, 2656(%rsp)
	movl	160(%rsp), %ecx                 ## 4-byte Reload
	movl	%ecx, 2660(%rsp)
	movl	%eax, 2664(%rsp)
	movq	144(%rsp), %rax                 ## 8-byte Reload
	movl	%eax, 2668(%rsp)
	movq	%r12, 2672(%rsp)
	movq	$0, 2680(%rsp)
	movq	80(%rsp), %rax                  ## 8-byte Reload
	movq	%rax, 2688(%rsp)
	movq	$0, 2696(%rsp)
	movq	%rbx, 2704(%rsp)
	movq	%r15, 2712(%rsp)
	leaq	_train_cost_model.par_for.relu1_0_d_def__.s9.n.n.n(%rip), %rsi
	leaq	2624(%rsp), %r8
	xorl	%edi, %edi
	xorl	%edx, %edx
	movq	104(%rsp), %rcx                 ## 8-byte Reload
                                        ## kill: def $ecx killed $ecx killed $rcx
	callq	_halide_do_par_for
	testl	%eax, %eax
	jne	LBB0_264
## %bb.135:                             ## %"consume f0_0_d_def__371"
	movq	%rbx, %rdx
	movq	216(%rsp), %rcx                 ## 8-byte Reload
	leal	(%rcx,%rcx), %eax
	movq	%rax, 448(%rsp)                 ## 8-byte Spill
	leal	(%rax,%rax,4), %r12d
	movl	%ecx, %r15d
	shll	$5, %r15d
	leal	(%r15,%rcx,2), %eax
	movq	136(%rsp), %rcx                 ## 8-byte Reload
	movl	%ecx, 2720(%rsp)
	movl	%r13d, 2724(%rsp)
	movq	152(%rsp), %rcx                 ## 8-byte Reload
	movl	%ecx, 2728(%rsp)
	movq	120(%rsp), %rcx                 ## 8-byte Reload
	movl	%ecx, 2732(%rsp)
	movq	176(%rsp), %rcx                 ## 8-byte Reload
	movl	%ecx, 2736(%rsp)
	movl	32(%rsp), %ecx                  ## 4-byte Reload
	movl	%ecx, 2740(%rsp)
	movq	112(%rsp), %rcx                 ## 8-byte Reload
	movl	%ecx, 2744(%rsp)
	movq	144(%rsp), %rcx                 ## 8-byte Reload
	movl	%ecx, 2748(%rsp)
	movl	160(%rsp), %ecx                 ## 4-byte Reload
	movl	%ecx, 2752(%rsp)
	movl	208(%rsp), %ebx                 ## 4-byte Reload
	movl	%ebx, 2756(%rsp)
	movl	%r12d, 2760(%rsp)
	movl	%eax, 2764(%rsp)
	movq	40(%rsp), %rax                  ## 8-byte Reload
	movq	%rax, 2768(%rsp)
	movq	$0, 2776(%rsp)
	movq	80(%rsp), %rax                  ## 8-byte Reload
	movq	%rax, 2784(%rsp)
	movq	$0, 2792(%rsp)
	movq	%rdx, 2800(%rsp)
	movq	24(%rsp), %rax                  ## 8-byte Reload
	movq	%rax, 2808(%rsp)
	leaq	_train_cost_model.par_for.relu1_0_d_def__.s10.n.n.n(%rip), %rsi
	leaq	2720(%rsp), %r8
	xorl	%edi, %edi
	xorl	%edx, %edx
	movq	104(%rsp), %rcx                 ## 8-byte Reload
                                        ## kill: def $ecx killed $ecx killed $rcx
	callq	_halide_do_par_for
	testl	%eax, %eax
	jne	LBB0_264
## %bb.136:                             ## %"consume f0_0_d_def__374"
	movq	216(%rsp), %rax                 ## 8-byte Reload
	addl	%r15d, %eax
	movq	136(%rsp), %rcx                 ## 8-byte Reload
	movl	%ecx, 2816(%rsp)
	movl	%r13d, 2820(%rsp)
	movq	152(%rsp), %rcx                 ## 8-byte Reload
	movl	%ecx, 2824(%rsp)
	movq	120(%rsp), %rcx                 ## 8-byte Reload
	movl	%ecx, 2828(%rsp)
	movq	176(%rsp), %rcx                 ## 8-byte Reload
	movl	%ecx, 2832(%rsp)
	movl	32(%rsp), %ecx                  ## 4-byte Reload
	movl	%ecx, 2836(%rsp)
	movq	112(%rsp), %rcx                 ## 8-byte Reload
	movl	%ecx, 2840(%rsp)
	movq	144(%rsp), %rcx                 ## 8-byte Reload
	movl	%ecx, 2844(%rsp)
	movl	160(%rsp), %ecx                 ## 4-byte Reload
	movl	%ecx, 2848(%rsp)
	movl	%ebx, 2852(%rsp)
	movl	%r12d, 224(%rsp)                ## 4-byte Spill
	movl	%r12d, 2856(%rsp)
	movl	%eax, 2860(%rsp)
	movq	40(%rsp), %rax                  ## 8-byte Reload
	movq	%rax, 2864(%rsp)
	movq	$0, 2872(%rsp)
	movq	80(%rsp), %rax                  ## 8-byte Reload
	movq	%rax, 2880(%rsp)
	movq	$0, 2888(%rsp)
	movq	184(%rsp), %r12                 ## 8-byte Reload
	movq	%r12, 2896(%rsp)
	movq	24(%rsp), %rbx                  ## 8-byte Reload
	movq	%rbx, 2904(%rsp)
	leaq	_train_cost_model.par_for.relu1_0_d_def__.s11.n.n.n(%rip), %rsi
	leaq	2816(%rsp), %r8
	xorl	%edi, %edi
	xorl	%edx, %edx
	movq	104(%rsp), %rcx                 ## 8-byte Reload
                                        ## kill: def $ecx killed $ecx killed $rcx
	callq	_halide_do_par_for
	testl	%eax, %eax
	jne	LBB0_264
## %bb.137:                             ## %"consume f0_0_d_def__377"
	movq	216(%rsp), %rax                 ## 8-byte Reload
	leal	(,%rax,8), %eax
	leal	(%rax,%rax,2), %ecx
	movq	136(%rsp), %rax                 ## 8-byte Reload
	movl	%eax, 4368(%rsp)
	movl	%r13d, 4372(%rsp)
	movq	152(%rsp), %rax                 ## 8-byte Reload
	movl	%eax, 4376(%rsp)
	movq	120(%rsp), %rax                 ## 8-byte Reload
	movl	%eax, 4380(%rsp)
	movq	176(%rsp), %rax                 ## 8-byte Reload
	movl	%eax, 4384(%rsp)
	movl	32(%rsp), %eax                  ## 4-byte Reload
	movl	%eax, 4388(%rsp)
	movq	112(%rsp), %rax                 ## 8-byte Reload
	movl	%eax, 4392(%rsp)
	movq	144(%rsp), %rax                 ## 8-byte Reload
	movl	%eax, 4396(%rsp)
	movl	160(%rsp), %eax                 ## 4-byte Reload
	movl	%eax, 4400(%rsp)
	movl	%ecx, 288(%rsp)                 ## 4-byte Spill
	movl	%ecx, 4404(%rsp)
	movl	%r15d, 4408(%rsp)
	movq	40(%rsp), %rax                  ## 8-byte Reload
	movq	%rax, 4416(%rsp)
	movq	$0, 4424(%rsp)
	movq	80(%rsp), %rax                  ## 8-byte Reload
	movq	%rax, 4432(%rsp)
	movq	$0, 4440(%rsp)
	movq	%r12, 4448(%rsp)
	movq	%rbx, 4456(%rsp)
	leaq	_train_cost_model.par_for.relu1_0_d_def__.s12.n.n.n(%rip), %rsi
	leaq	4368(%rsp), %r8
	xorl	%edi, %edi
	xorl	%edx, %edx
	movq	104(%rsp), %rcx                 ## 8-byte Reload
                                        ## kill: def $ecx killed $ecx killed $rcx
	callq	_halide_do_par_for
	testl	%eax, %eax
	jne	LBB0_264
## %bb.138:                             ## %"consume f0_0_d_def__380"
	movq	216(%rsp), %rax                 ## 8-byte Reload
	leal	(%rax,%rax,4), %eax
	leal	(%rax,%rax,4), %ecx
	movq	136(%rsp), %rax                 ## 8-byte Reload
	movl	%eax, 4464(%rsp)
	movl	%r13d, 4468(%rsp)
	movq	152(%rsp), %rax                 ## 8-byte Reload
	movl	%eax, 4472(%rsp)
	movq	120(%rsp), %rax                 ## 8-byte Reload
	movl	%eax, 4476(%rsp)
	movq	176(%rsp), %rax                 ## 8-byte Reload
	movl	%eax, 4480(%rsp)
	movl	32(%rsp), %eax                  ## 4-byte Reload
	movl	%eax, 4484(%rsp)
	movq	112(%rsp), %rax                 ## 8-byte Reload
	movl	%eax, 4488(%rsp)
	movq	144(%rsp), %rax                 ## 8-byte Reload
	movl	%eax, 4492(%rsp)
	movl	160(%rsp), %eax                 ## 4-byte Reload
	movl	%eax, 4496(%rsp)
	movl	%ecx, 280(%rsp)                 ## 4-byte Spill
	movl	%ecx, 4500(%rsp)
	movl	%r15d, 4504(%rsp)
	movq	40(%rsp), %rax                  ## 8-byte Reload
	movq	%rax, 4512(%rsp)
	movq	$0, 4520(%rsp)
	movq	80(%rsp), %rax                  ## 8-byte Reload
	movq	%rax, 4528(%rsp)
	movq	$0, 4536(%rsp)
	movq	%r12, 4544(%rsp)
	movq	%rbx, 4552(%rsp)
	leaq	_train_cost_model.par_for.relu1_0_d_def__.s13.n.n.n(%rip), %rsi
	leaq	4464(%rsp), %r8
	xorl	%edi, %edi
	xorl	%edx, %edx
	movq	104(%rsp), %rcx                 ## 8-byte Reload
                                        ## kill: def $ecx killed $ecx killed $rcx
	callq	_halide_do_par_for
	testl	%eax, %eax
	jne	LBB0_264
## %bb.139:                             ## %"consume f0_0_d_def__383"
	subl	216(%rsp), %r15d                ## 4-byte Folded Reload
	movq	136(%rsp), %rax                 ## 8-byte Reload
	movl	%eax, 4560(%rsp)
	movl	%r13d, 4564(%rsp)
	movq	152(%rsp), %rax                 ## 8-byte Reload
	movl	%eax, 4568(%rsp)
	movq	120(%rsp), %rax                 ## 8-byte Reload
	movl	%eax, 4572(%rsp)
	movq	176(%rsp), %r12                 ## 8-byte Reload
	movl	%r12d, 4576(%rsp)
	movl	32(%rsp), %eax                  ## 4-byte Reload
	movl	%eax, 4580(%rsp)
	movq	112(%rsp), %rax                 ## 8-byte Reload
	movl	%eax, 4584(%rsp)
	movq	144(%rsp), %rax                 ## 8-byte Reload
	movl	%eax, 4588(%rsp)
	movl	160(%rsp), %eax                 ## 4-byte Reload
	movl	%eax, 4592(%rsp)
	movl	288(%rsp), %eax                 ## 4-byte Reload
	movl	%eax, 4596(%rsp)
	movl	%r15d, 4600(%rsp)
	movq	40(%rsp), %rax                  ## 8-byte Reload
	movq	%rax, 4608(%rsp)
	movq	$0, 4616(%rsp)
	movq	80(%rsp), %rax                  ## 8-byte Reload
	movq	%rax, 4624(%rsp)
	movq	$0, 4632(%rsp)
	movq	184(%rsp), %rax                 ## 8-byte Reload
	movq	%rax, 4640(%rsp)
	movq	24(%rsp), %rax                  ## 8-byte Reload
	movq	%rax, 4648(%rsp)
	leaq	_train_cost_model.par_for.relu1_0_d_def__.s14.n.n.n(%rip), %rsi
	leaq	4560(%rsp), %r8
	xorl	%edi, %edi
	xorl	%edx, %edx
	movq	104(%rsp), %rcx                 ## 8-byte Reload
                                        ## kill: def $ecx killed $ecx killed $rcx
	callq	_halide_do_par_for
	testl	%eax, %eax
	jne	LBB0_264
## %bb.140:                             ## %"consume f0_0_d_def__386"
	movq	136(%rsp), %rax                 ## 8-byte Reload
	movl	%eax, 4656(%rsp)
	movl	%r13d, 4660(%rsp)
	movq	152(%rsp), %rax                 ## 8-byte Reload
	movl	%eax, 4664(%rsp)
	movq	120(%rsp), %rax                 ## 8-byte Reload
	movl	%eax, 4668(%rsp)
	movl	%r12d, 4672(%rsp)
	movl	32(%rsp), %eax                  ## 4-byte Reload
	movl	%eax, 4676(%rsp)
	movq	112(%rsp), %rax                 ## 8-byte Reload
	movl	%eax, 4680(%rsp)
	movq	144(%rsp), %rax                 ## 8-byte Reload
	movl	%eax, 4684(%rsp)
	movl	160(%rsp), %eax                 ## 4-byte Reload
	movl	%eax, 4688(%rsp)
	movl	280(%rsp), %eax                 ## 4-byte Reload
	movl	%eax, 4692(%rsp)
	movq	%r15, 272(%rsp)                 ## 8-byte Spill
	movl	%r15d, 4696(%rsp)
	movq	40(%rsp), %rax                  ## 8-byte Reload
	movq	%rax, 4704(%rsp)
	movq	$0, 4712(%rsp)
	movq	80(%rsp), %rax                  ## 8-byte Reload
	movq	%rax, 4720(%rsp)
	movq	$0, 4728(%rsp)
	movq	184(%rsp), %rax                 ## 8-byte Reload
	movq	%rax, 4736(%rsp)
	movq	24(%rsp), %r15                  ## 8-byte Reload
	movq	%r15, 4744(%rsp)
	leaq	_train_cost_model.par_for.relu1_0_d_def__.s15.n.n.n(%rip), %rsi
	leaq	4656(%rsp), %r8
	xorl	%edi, %edi
	xorl	%edx, %edx
	movq	104(%rsp), %rcx                 ## 8-byte Reload
                                        ## kill: def $ecx killed $ecx killed $rcx
	callq	_halide_do_par_for
	testl	%eax, %eax
	jne	LBB0_264
## %bb.141:                             ## %"consume f0_0_d_def__389"
	movq	216(%rsp), %rbx                 ## 8-byte Reload
	leal	(%rbx,%rbx,8), %eax
	leal	(%rax,%rax,2), %eax
	movq	136(%rsp), %rcx                 ## 8-byte Reload
	movl	%ecx, 4752(%rsp)
	movl	%r13d, 4756(%rsp)
	movq	152(%rsp), %rcx                 ## 8-byte Reload
	movl	%ecx, 4760(%rsp)
	movq	120(%rsp), %rcx                 ## 8-byte Reload
	movl	%ecx, 4764(%rsp)
	movl	%r12d, 4768(%rsp)
	movl	32(%rsp), %ecx                  ## 4-byte Reload
	movl	%ecx, 4772(%rsp)
	movq	112(%rsp), %rcx                 ## 8-byte Reload
	movl	%ecx, 4776(%rsp)
	movq	144(%rsp), %rcx                 ## 8-byte Reload
	movl	%ecx, 4780(%rsp)
	movl	160(%rsp), %ecx                 ## 4-byte Reload
	movl	%ecx, 4784(%rsp)
	movl	288(%rsp), %ecx                 ## 4-byte Reload
	movl	%ecx, 4788(%rsp)
	movl	%eax, 4792(%rsp)
	movq	40(%rsp), %rax                  ## 8-byte Reload
	movq	%rax, 4800(%rsp)
	movq	$0, 4808(%rsp)
	movq	80(%rsp), %rax                  ## 8-byte Reload
	movq	%rax, 4816(%rsp)
	movq	$0, 4824(%rsp)
	movq	184(%rsp), %rax                 ## 8-byte Reload
	movq	%rax, 4832(%rsp)
	movq	%r15, 4840(%rsp)
	leaq	_train_cost_model.par_for.relu1_0_d_def__.s16.n.n.n(%rip), %rsi
	leaq	4752(%rsp), %r8
	xorl	%edi, %edi
	xorl	%edx, %edx
	movq	104(%rsp), %rcx                 ## 8-byte Reload
                                        ## kill: def $ecx killed $ecx killed $rcx
	callq	_halide_do_par_for
	testl	%eax, %eax
	jne	LBB0_264
## %bb.142:                             ## %"consume f0_0_d_def__392"
	leal	(%rbx,%rbx,8), %eax
	leal	(%rax,%rax,2), %eax
	addl	%ebx, %eax
	movq	136(%rsp), %rcx                 ## 8-byte Reload
	movl	%ecx, 4848(%rsp)
	movl	%r13d, 4852(%rsp)
	movq	152(%rsp), %rcx                 ## 8-byte Reload
	movl	%ecx, 4856(%rsp)
	movq	120(%rsp), %rcx                 ## 8-byte Reload
	movl	%ecx, 4860(%rsp)
	movl	%r12d, 4864(%rsp)
	movl	32(%rsp), %ecx                  ## 4-byte Reload
	movl	%ecx, 4868(%rsp)
	movq	112(%rsp), %rcx                 ## 8-byte Reload
	movl	%ecx, 4872(%rsp)
	movq	144(%rsp), %rcx                 ## 8-byte Reload
	movl	%ecx, 4876(%rsp)
	movl	160(%rsp), %ecx                 ## 4-byte Reload
	movl	%ecx, 4880(%rsp)
	movl	280(%rsp), %ecx                 ## 4-byte Reload
	movl	%ecx, 4884(%rsp)
	movl	%eax, 4888(%rsp)
	movq	40(%rsp), %rax                  ## 8-byte Reload
	movq	%rax, 4896(%rsp)
	movq	$0, 4904(%rsp)
	movq	80(%rsp), %rax                  ## 8-byte Reload
	movq	%rax, 4912(%rsp)
	movq	$0, 4920(%rsp)
	movq	184(%rsp), %rax                 ## 8-byte Reload
	movq	%rax, 4928(%rsp)
	movq	%r15, 4936(%rsp)
	leaq	_train_cost_model.par_for.relu1_0_d_def__.s17.n.n.n(%rip), %rsi
	leaq	4848(%rsp), %r8
	xorl	%edi, %edi
	xorl	%edx, %edx
	movq	104(%rsp), %rcx                 ## 8-byte Reload
                                        ## kill: def $ecx killed $ecx killed $rcx
	callq	_halide_do_par_for
	testl	%eax, %eax
	jne	LBB0_264
## %bb.143:                             ## %"consume f0_0_d_def__395"
	leal	(%rbx,%rbx,4), %eax
	leal	(%rax,%rax,4), %eax
	addl	%ebx, %eax
	movq	136(%rsp), %rcx                 ## 8-byte Reload
	movl	%ecx, 4944(%rsp)
	movl	%r13d, %ebx
	movl	%r13d, 4948(%rsp)
	movq	152(%rsp), %rcx                 ## 8-byte Reload
	movl	%ecx, 4952(%rsp)
	movq	120(%rsp), %rcx                 ## 8-byte Reload
	movl	%ecx, 4956(%rsp)
	movl	%r12d, 4960(%rsp)
	movl	32(%rsp), %ecx                  ## 4-byte Reload
	movl	%ecx, 4964(%rsp)
	movq	112(%rsp), %rcx                 ## 8-byte Reload
	movl	%ecx, 4968(%rsp)
	movq	144(%rsp), %rcx                 ## 8-byte Reload
	movl	%ecx, 4972(%rsp)
	movl	160(%rsp), %ecx                 ## 4-byte Reload
	movl	%ecx, 4976(%rsp)
	movl	288(%rsp), %ecx                 ## 4-byte Reload
	movl	%ecx, 4980(%rsp)
	movl	%eax, 4984(%rsp)
	movq	40(%rsp), %r12                  ## 8-byte Reload
	movq	%r12, 4992(%rsp)
	movq	$0, 5000(%rsp)
	movq	80(%rsp), %rax                  ## 8-byte Reload
	movq	%rax, 5008(%rsp)
	movq	$0, 5016(%rsp)
	movq	184(%rsp), %rax                 ## 8-byte Reload
	movq	%rax, 5024(%rsp)
	movq	24(%rsp), %r13                  ## 8-byte Reload
	movq	%r13, 5032(%rsp)
	leaq	_train_cost_model.par_for.relu1_0_d_def__.s18.n.n.n(%rip), %rsi
	leaq	4944(%rsp), %r8
	xorl	%edi, %edi
	xorl	%edx, %edx
	movq	104(%rsp), %rcx                 ## 8-byte Reload
                                        ## kill: def $ecx killed $ecx killed $rcx
	callq	_halide_do_par_for
	testl	%eax, %eax
	jne	LBB0_264
## %bb.144:                             ## %"consume f0_0_d_def__398"
	movq	%r12, %rsi
	movq	448(%rsp), %rax                 ## 8-byte Reload
	leal	(%rax,%rax,8), %eax
	movl	%eax, %ecx
	movq	304(%rsp), %r12                 ## 8-byte Reload
	subl	%r12d, %ecx
	movq	136(%rsp), %rdx                 ## 8-byte Reload
	movl	%edx, 1960(%rsp)
	movl	%ebx, 1964(%rsp)
	movq	152(%rsp), %rdx                 ## 8-byte Reload
	movl	%edx, 1968(%rsp)
	movq	120(%rsp), %rdx                 ## 8-byte Reload
	movl	%edx, 1972(%rsp)
	movq	176(%rsp), %rdx                 ## 8-byte Reload
	movl	%edx, 1976(%rsp)
	movq	320(%rsp), %rdx                 ## 8-byte Reload
	movl	%edx, 1980(%rsp)
	movq	440(%rsp), %rbx                 ## 8-byte Reload
	movl	%ebx, 1984(%rsp)
	movl	32(%rsp), %edx                  ## 4-byte Reload
	movl	%edx, 1988(%rsp)
	movq	112(%rsp), %rdx                 ## 8-byte Reload
	movl	%edx, 1992(%rsp)
	movq	144(%rsp), %rdx                 ## 8-byte Reload
	movl	%edx, 1996(%rsp)
	movl	%ecx, 2000(%rsp)
	movl	160(%rsp), %ecx                 ## 4-byte Reload
	movl	%ecx, 2004(%rsp)
	movq	256(%rsp), %r15                 ## 8-byte Reload
	movl	%r15d, 2008(%rsp)
	movl	%eax, 2012(%rsp)
	movq	%rsi, 2016(%rsp)
	movq	$0, 2024(%rsp)
	movq	80(%rsp), %rax                  ## 8-byte Reload
	movq	%rax, 2032(%rsp)
	movq	$0, 2040(%rsp)
	movq	184(%rsp), %rax                 ## 8-byte Reload
	movq	%rax, 2048(%rsp)
	movq	%r13, 2056(%rsp)
	leaq	_train_cost_model.par_for.relu1_0_d_def__.s19.n.n.n(%rip), %rsi
	leaq	1960(%rsp), %r8
	xorl	%edi, %edi
	xorl	%edx, %edx
	movq	104(%rsp), %rcx                 ## 8-byte Reload
                                        ## kill: def $ecx killed $ecx killed $rcx
	callq	_halide_do_par_for
	testl	%eax, %eax
	jne	LBB0_264
## %bb.145:                             ## %"consume f0_0_d_def__401"
	movq	216(%rsp), %r13                 ## 8-byte Reload
	leal	(%r13,%r13,8), %eax
	leal	(%r13,%rax,2), %eax
	movl	%eax, %ecx
	subl	%r12d, %ecx
	movq	136(%rsp), %rdx                 ## 8-byte Reload
	movl	%edx, 2064(%rsp)
	movl	196(%rsp), %edx                 ## 4-byte Reload
	movl	%edx, 2068(%rsp)
	movq	152(%rsp), %rdx                 ## 8-byte Reload
	movl	%edx, 2072(%rsp)
	movq	120(%rsp), %rdx                 ## 8-byte Reload
	movl	%edx, 2076(%rsp)
	movq	176(%rsp), %rdx                 ## 8-byte Reload
	movl	%edx, 2080(%rsp)
	movq	320(%rsp), %rdx                 ## 8-byte Reload
	movl	%edx, 2084(%rsp)
	movl	%ebx, 2088(%rsp)
	movl	32(%rsp), %edx                  ## 4-byte Reload
	movl	%edx, 2092(%rsp)
	movq	112(%rsp), %r12                 ## 8-byte Reload
	movl	%r12d, 2096(%rsp)
	movq	144(%rsp), %rdx                 ## 8-byte Reload
	movl	%edx, 2100(%rsp)
	movl	%ecx, 2104(%rsp)
	movl	160(%rsp), %ecx                 ## 4-byte Reload
	movl	%ecx, 2108(%rsp)
	movl	%r15d, 2112(%rsp)
	movl	%eax, 2116(%rsp)
	movq	40(%rsp), %rbx                  ## 8-byte Reload
	movq	%rbx, 2120(%rsp)
	movq	$0, 2128(%rsp)
	movq	80(%rsp), %rax                  ## 8-byte Reload
	movq	%rax, 2136(%rsp)
	movq	$0, 2144(%rsp)
	movq	184(%rsp), %rax                 ## 8-byte Reload
	movq	%rax, 2152(%rsp)
	movq	24(%rsp), %rax                  ## 8-byte Reload
	movq	%rax, 2160(%rsp)
	leaq	_train_cost_model.par_for.relu1_0_d_def__.s20.n.n.n(%rip), %rsi
	leaq	2064(%rsp), %r8
	xorl	%edi, %edi
	xorl	%edx, %edx
	movq	104(%rsp), %rcx                 ## 8-byte Reload
                                        ## kill: def $ecx killed $ecx killed $rcx
	callq	_halide_do_par_for
	testl	%eax, %eax
	jne	LBB0_264
## %bb.146:                             ## %"consume f0_0_d_def__404"
	movq	%r12, %rdx
	leal	(,%r13,4), %eax
	leal	(%rax,%rax,2), %eax
	movq	136(%rsp), %rcx                 ## 8-byte Reload
	movl	%ecx, 3648(%rsp)
	movl	196(%rsp), %r12d                ## 4-byte Reload
	movl	%r12d, 3652(%rsp)
	movq	152(%rsp), %rcx                 ## 8-byte Reload
	movl	%ecx, 3656(%rsp)
	movq	120(%rsp), %rcx                 ## 8-byte Reload
	movl	%ecx, 3660(%rsp)
	movq	176(%rsp), %rcx                 ## 8-byte Reload
	movl	%ecx, 3664(%rsp)
	movl	32(%rsp), %ecx                  ## 4-byte Reload
	movl	%ecx, 3668(%rsp)
	movl	%edx, 3672(%rsp)
	movq	144(%rsp), %rcx                 ## 8-byte Reload
	movl	%ecx, 3676(%rsp)
	movl	160(%rsp), %ecx                 ## 4-byte Reload
	movl	%ecx, 3680(%rsp)
	movl	208(%rsp), %ecx                 ## 4-byte Reload
	movl	%ecx, 3684(%rsp)
	movl	224(%rsp), %ecx                 ## 4-byte Reload
	movl	%ecx, 3688(%rsp)
	movl	%eax, 3692(%rsp)
	movq	272(%rsp), %r15                 ## 8-byte Reload
	subl	%r13d, %r15d
	movl	%r15d, 3696(%rsp)
	movq	%rbx, %r13
	movq	%rbx, 3704(%rsp)
	movq	$0, 3712(%rsp)
	movq	80(%rsp), %rax                  ## 8-byte Reload
	movq	%rax, 3720(%rsp)
	movq	$0, 3728(%rsp)
	movq	184(%rsp), %rax                 ## 8-byte Reload
	movq	%rax, 3736(%rsp)
	movq	24(%rsp), %rax                  ## 8-byte Reload
	movq	%rax, 3744(%rsp)
	leaq	_train_cost_model.par_for.relu1_0_d_def__.s21.n.n.n(%rip), %rsi
	leaq	3648(%rsp), %r8
	xorl	%edi, %edi
	xorl	%edx, %edx
	movq	104(%rsp), %rcx                 ## 8-byte Reload
                                        ## kill: def $ecx killed $ecx killed $rcx
	callq	_halide_do_par_for
	testl	%eax, %eax
	jne	LBB0_264
## %bb.147:                             ## %"consume f0_0_d_def__407"
	movq	136(%rsp), %rax                 ## 8-byte Reload
	movl	%eax, 3752(%rsp)
	movl	%r12d, 3756(%rsp)
	movq	152(%rsp), %rax                 ## 8-byte Reload
	movl	%eax, 3760(%rsp)
	movq	120(%rsp), %rax                 ## 8-byte Reload
	movl	%eax, 3764(%rsp)
	movq	176(%rsp), %rax                 ## 8-byte Reload
	movl	%eax, 3768(%rsp)
	movl	32(%rsp), %eax                  ## 4-byte Reload
	movl	%eax, 3772(%rsp)
	movq	112(%rsp), %rax                 ## 8-byte Reload
	movl	%eax, 3776(%rsp)
	movq	144(%rsp), %rax                 ## 8-byte Reload
	movl	%eax, 3780(%rsp)
	movl	160(%rsp), %eax                 ## 4-byte Reload
	movl	%eax, 3784(%rsp)
	movl	208(%rsp), %eax                 ## 4-byte Reload
	movl	%eax, 3788(%rsp)
	movl	288(%rsp), %eax                 ## 4-byte Reload
	movl	%eax, 3792(%rsp)
	movl	280(%rsp), %eax                 ## 4-byte Reload
	movl	%eax, 3796(%rsp)
	movq	%r15, 272(%rsp)                 ## 8-byte Spill
	movl	%r15d, 3800(%rsp)
	movq	%r13, %r15
	movq	%r13, 3808(%rsp)
	movq	$0, 3816(%rsp)
	movq	80(%rsp), %rax                  ## 8-byte Reload
	movq	%rax, 3824(%rsp)
	movq	$0, 3832(%rsp)
	movq	184(%rsp), %rax                 ## 8-byte Reload
	movq	%rax, 3840(%rsp)
	movq	24(%rsp), %rax                  ## 8-byte Reload
	movq	%rax, 3848(%rsp)
	leaq	_train_cost_model.par_for.relu1_0_d_def__.s22.n.n.n(%rip), %rsi
	leaq	3752(%rsp), %r8
	xorl	%edi, %edi
	xorl	%edx, %edx
	movq	104(%rsp), %rcx                 ## 8-byte Reload
                                        ## kill: def $ecx killed $ecx killed $rcx
	callq	_halide_do_par_for
	testl	%eax, %eax
	jne	LBB0_264
## %bb.148:                             ## %"consume f0_0_d_def__410"
	movl	%r12d, %ebx
	movq	%r13, %rdx
	movq	216(%rsp), %rcx                 ## 8-byte Reload
	leal	(%rcx,%rcx,4), %eax
	leal	(%rcx,%rax,2), %r13d
	movq	136(%rsp), %rax                 ## 8-byte Reload
	movl	%eax, 3856(%rsp)
	movl	%r12d, 3860(%rsp)
	movq	120(%rsp), %rax                 ## 8-byte Reload
	movl	%eax, 3864(%rsp)
	movq	176(%rsp), %rax                 ## 8-byte Reload
	movl	%eax, 3868(%rsp)
	movq	440(%rsp), %rax                 ## 8-byte Reload
	movl	%eax, 3872(%rsp)
	movl	32(%rsp), %eax                  ## 4-byte Reload
	movl	%eax, 3876(%rsp)
	movq	112(%rsp), %rax                 ## 8-byte Reload
	movl	%eax, 3880(%rsp)
	movl	248(%rsp), %eax                 ## 4-byte Reload
	movl	%eax, 3884(%rsp)
	movl	160(%rsp), %eax                 ## 4-byte Reload
	movl	%eax, 3888(%rsp)
	movq	312(%rsp), %rax                 ## 8-byte Reload
	movl	%eax, 3892(%rsp)
	movl	336(%rsp), %eax                 ## 4-byte Reload
	movl	%eax, 3896(%rsp)
	movl	208(%rsp), %eax                 ## 4-byte Reload
	movl	%eax, 3900(%rsp)
	movl	%r13d, 3904(%rsp)
	movq	%rdx, 3912(%rsp)
	movq	$0, 3920(%rsp)
	movq	80(%rsp), %rax                  ## 8-byte Reload
	movq	%rax, 3928(%rsp)
	movq	$0, 3936(%rsp)
	movq	184(%rsp), %rax                 ## 8-byte Reload
	movq	%rax, 3944(%rsp)
	movq	24(%rsp), %rax                  ## 8-byte Reload
	movq	%rax, 3952(%rsp)
	leaq	_train_cost_model.par_for.relu1_0_d_def__.s23.n.n.n(%rip), %rsi
	leaq	3856(%rsp), %r8
	xorl	%edi, %edi
	xorl	%edx, %edx
	movq	104(%rsp), %rcx                 ## 8-byte Reload
                                        ## kill: def $ecx killed $ecx killed $rcx
	callq	_halide_do_par_for
	movl	%eax, %r14d
	testl	%eax, %eax
	movq	320(%rsp), %rax                 ## 8-byte Reload
	movq	304(%rsp), %rcx                 ## 8-byte Reload
	jne	LBB0_265
## %bb.149:                             ## %"consume f0_0_d_def__413"
	negl	%ecx
	subl	256(%rsp), %ecx                 ## 4-byte Folded Reload
	subl	%eax, %ecx
	movq	136(%rsp), %r12                 ## 8-byte Reload
	movl	%r12d, 5040(%rsp)
	movl	%ebx, 5044(%rsp)
	movq	152(%rsp), %rbx                 ## 8-byte Reload
	movl	%ebx, 5048(%rsp)
	movq	120(%rsp), %r15                 ## 8-byte Reload
	movl	%r15d, 5052(%rsp)
	movq	176(%rsp), %rax                 ## 8-byte Reload
	movl	%eax, 5056(%rsp)
	movq	112(%rsp), %rax                 ## 8-byte Reload
	movl	%eax, 5060(%rsp)
	movq	144(%rsp), %rax                 ## 8-byte Reload
	movl	%eax, 5064(%rsp)
	movl	160(%rsp), %eax                 ## 4-byte Reload
	movl	%eax, 5068(%rsp)
	movq	%rcx, 304(%rsp)                 ## 8-byte Spill
	movl	%ecx, 5072(%rsp)
	movl	208(%rsp), %eax                 ## 4-byte Reload
	movl	%eax, 5076(%rsp)
	movl	%r13d, 320(%rsp)                ## 4-byte Spill
	movl	%r13d, 5080(%rsp)
	movq	40(%rsp), %rax                  ## 8-byte Reload
	movq	%rax, 5088(%rsp)
	movq	$0, 5096(%rsp)
	movq	80(%rsp), %rax                  ## 8-byte Reload
	movq	%rax, 5104(%rsp)
	movq	$0, 5112(%rsp)
	movq	184(%rsp), %rax                 ## 8-byte Reload
	movq	%rax, 5120(%rsp)
	movq	24(%rsp), %rax                  ## 8-byte Reload
	movq	%rax, 5128(%rsp)
	leaq	_train_cost_model.par_for.relu1_0_d_def__.s24.n.n.n(%rip), %rsi
	leaq	5040(%rsp), %r8
	xorl	%edi, %edi
	xorl	%edx, %edx
	movq	104(%rsp), %rcx                 ## 8-byte Reload
                                        ## kill: def $ecx killed $ecx killed $rcx
	callq	_halide_do_par_for
	testl	%eax, %eax
	jne	LBB0_264
## %bb.150:                             ## %"consume f0_0_d_def__416"
	movl	%r12d, 3960(%rsp)
	movl	196(%rsp), %edx                 ## 4-byte Reload
	movl	%edx, 3964(%rsp)
	movl	%ebx, 3968(%rsp)
	movl	%r15d, 3972(%rsp)
	movq	176(%rsp), %rdx                 ## 8-byte Reload
	movl	%edx, 3976(%rsp)
	movq	440(%rsp), %r13                 ## 8-byte Reload
	movl	%r13d, 3980(%rsp)
	movl	32(%rsp), %edx                  ## 4-byte Reload
	movl	%edx, 3984(%rsp)
	movq	112(%rsp), %rdx                 ## 8-byte Reload
	movl	%edx, 3988(%rsp)
	movq	144(%rsp), %rdx                 ## 8-byte Reload
	movl	%edx, 3992(%rsp)
	movl	160(%rsp), %edx                 ## 4-byte Reload
	movl	%edx, 3996(%rsp)
	movq	312(%rsp), %rax                 ## 8-byte Reload
	movl	%eax, 4000(%rsp)
	movl	208(%rsp), %eax                 ## 4-byte Reload
	movl	%eax, 4004(%rsp)
	movl	320(%rsp), %eax                 ## 4-byte Reload
	movl	%eax, 4008(%rsp)
	movq	40(%rsp), %rbx                  ## 8-byte Reload
	movq	%rbx, 4016(%rsp)
	movq	$0, 4024(%rsp)
	movq	80(%rsp), %rax                  ## 8-byte Reload
	movq	%rax, 4032(%rsp)
	movq	$0, 4040(%rsp)
	movq	184(%rsp), %rax                 ## 8-byte Reload
	movq	%rax, 4048(%rsp)
	movq	24(%rsp), %rax                  ## 8-byte Reload
	movq	%rax, 4056(%rsp)
	leaq	_train_cost_model.par_for.relu1_0_d_def__.s25.n.n.n(%rip), %rsi
	leaq	3960(%rsp), %r8
	xorl	%edi, %edi
	xorl	%edx, %edx
	movq	104(%rsp), %rcx                 ## 8-byte Reload
                                        ## kill: def $ecx killed $ecx killed $rcx
	callq	_halide_do_par_for
	testl	%eax, %eax
	jne	LBB0_264
## %bb.151:                             ## %"consume f0_0_d_def__419"
	movq	%rbx, %rdx
	movq	136(%rsp), %rax                 ## 8-byte Reload
	movl	%eax, 2168(%rsp)
	movl	196(%rsp), %r12d                ## 4-byte Reload
	movl	%r12d, 2172(%rsp)
	movq	120(%rsp), %rax                 ## 8-byte Reload
	movl	%eax, 2176(%rsp)
	movq	176(%rsp), %r15                 ## 8-byte Reload
	movl	%r15d, 2180(%rsp)
	movl	%r13d, 2184(%rsp)
	movl	32(%rsp), %eax                  ## 4-byte Reload
	movl	%eax, 2188(%rsp)
	movq	112(%rsp), %rax                 ## 8-byte Reload
	movl	%eax, 2192(%rsp)
	movl	248(%rsp), %eax                 ## 4-byte Reload
	movl	%eax, 2196(%rsp)
	movl	160(%rsp), %eax                 ## 4-byte Reload
	movl	%eax, 2200(%rsp)
	movq	312(%rsp), %rax                 ## 8-byte Reload
	movl	%eax, 2204(%rsp)
	movl	336(%rsp), %eax                 ## 4-byte Reload
	movl	%eax, 2208(%rsp)
	movq	216(%rsp), %rcx                 ## 8-byte Reload
	leal	(%rcx,%rcx,8), %eax
	leal	(%rax,%rax,2), %ebx
	addl	%ecx, %ebx
	addl	%ecx, %ebx
	movl	208(%rsp), %eax                 ## 4-byte Reload
	movl	%eax, 2212(%rsp)
	movl	%ebx, 2216(%rsp)
	movq	272(%rsp), %rax                 ## 8-byte Reload
	movl	%eax, 2220(%rsp)
	movq	%rdx, 2224(%rsp)
	movq	$0, 2232(%rsp)
	movq	80(%rsp), %rax                  ## 8-byte Reload
	movq	%rax, 2240(%rsp)
	movq	$0, 2248(%rsp)
	movq	184(%rsp), %rax                 ## 8-byte Reload
	movq	%rax, 2256(%rsp)
	movq	24(%rsp), %rax                  ## 8-byte Reload
	movq	%rax, 2264(%rsp)
	leaq	_train_cost_model.par_for.relu1_0_d_def__.s26.n.n.n(%rip), %rsi
	leaq	2168(%rsp), %r8
	xorl	%edi, %edi
	xorl	%edx, %edx
	movq	104(%rsp), %r13                 ## 8-byte Reload
	movl	%r13d, %ecx
	callq	_halide_do_par_for
	testl	%eax, %eax
	jne	LBB0_264
## %bb.152:                             ## %"consume f0_0_d_def__422"
	movq	%r15, %rcx
	movq	%r13, %r15
	movq	136(%rsp), %rax                 ## 8-byte Reload
	movl	%eax, 2912(%rsp)
	movl	%r12d, 2916(%rsp)
	movq	152(%rsp), %rax                 ## 8-byte Reload
	movl	%eax, 2920(%rsp)
	movq	120(%rsp), %rax                 ## 8-byte Reload
	movl	%eax, 2924(%rsp)
	movl	%ecx, 2928(%rsp)
	movq	112(%rsp), %rax                 ## 8-byte Reload
	movl	%eax, 2932(%rsp)
	movq	144(%rsp), %rax                 ## 8-byte Reload
	movl	%eax, 2936(%rsp)
	movl	160(%rsp), %r13d                ## 4-byte Reload
	movl	%r13d, 2940(%rsp)
	movq	304(%rsp), %rax                 ## 8-byte Reload
	movl	%eax, 2944(%rsp)
	movl	208(%rsp), %eax                 ## 4-byte Reload
	movl	%eax, 2948(%rsp)
	movl	%ebx, 2952(%rsp)
	movq	272(%rsp), %rax                 ## 8-byte Reload
	movl	%eax, 2956(%rsp)
	movq	40(%rsp), %rax                  ## 8-byte Reload
	movq	%rax, 2960(%rsp)
	movq	$0, 2968(%rsp)
	movq	80(%rsp), %rax                  ## 8-byte Reload
	movq	%rax, 2976(%rsp)
	movq	$0, 2984(%rsp)
	movq	184(%rsp), %rax                 ## 8-byte Reload
	movq	%rax, 2992(%rsp)
	movq	24(%rsp), %rax                  ## 8-byte Reload
	movq	%rax, 3000(%rsp)
	leaq	_train_cost_model.par_for.relu1_0_d_def__.s27.n.n.n(%rip), %rsi
	leaq	2912(%rsp), %r8
	xorl	%edi, %edi
	xorl	%edx, %edx
	movl	%r15d, %ecx
	callq	_halide_do_par_for
	testl	%eax, %eax
	jne	LBB0_264
## %bb.153:                             ## %"consume f0_0_d_def__425"
	movq	136(%rsp), %rax                 ## 8-byte Reload
	movl	%eax, 2272(%rsp)
	movl	%r12d, 2276(%rsp)
	movq	152(%rsp), %rax                 ## 8-byte Reload
	movl	%eax, 2280(%rsp)
	movq	120(%rsp), %rax                 ## 8-byte Reload
	movl	%eax, 2284(%rsp)
	movq	176(%rsp), %rax                 ## 8-byte Reload
	movl	%eax, 2288(%rsp)
	movq	440(%rsp), %rax                 ## 8-byte Reload
	movl	%eax, 2292(%rsp)
	movl	32(%rsp), %eax                  ## 4-byte Reload
	movl	%eax, 2296(%rsp)
	movq	112(%rsp), %rax                 ## 8-byte Reload
	movl	%eax, 2300(%rsp)
	movq	144(%rsp), %rax                 ## 8-byte Reload
	movl	%eax, 2304(%rsp)
	movl	%r13d, 2308(%rsp)
	movq	312(%rsp), %rax                 ## 8-byte Reload
	movl	%eax, 2312(%rsp)
	movl	208(%rsp), %eax                 ## 4-byte Reload
	movl	%eax, 2316(%rsp)
	movl	%ebx, 2320(%rsp)
	movq	272(%rsp), %rax                 ## 8-byte Reload
	movl	%eax, 2324(%rsp)
	movq	40(%rsp), %rax                  ## 8-byte Reload
	movq	%rax, 2328(%rsp)
	movq	$0, 2336(%rsp)
	movq	80(%rsp), %rax                  ## 8-byte Reload
	movq	%rax, 2344(%rsp)
	movq	$0, 2352(%rsp)
	movq	184(%rsp), %rax                 ## 8-byte Reload
	movq	%rax, 2360(%rsp)
	movq	24(%rsp), %rax                  ## 8-byte Reload
	movq	%rax, 2368(%rsp)
	leaq	_train_cost_model.par_for.relu1_0_d_def__.s28.n.n.n(%rip), %rsi
	leaq	2272(%rsp), %r8
	xorl	%edi, %edi
	xorl	%edx, %edx
	movl	%r15d, %ecx
	callq	_halide_do_par_for
	testl	%eax, %eax
	jne	LBB0_264
## %bb.154:                             ## %"consume f0_0_d_def__428"
	movl	%r13d, %ecx
	movq	216(%rsp), %r13                 ## 8-byte Reload
	movl	%r13d, %r15d
	shll	$4, %r15d
	addl	%r13d, %r15d
	movq	136(%rsp), %rax                 ## 8-byte Reload
	movl	%eax, 2376(%rsp)
	movl	%r12d, 2380(%rsp)
	movq	152(%rsp), %rax                 ## 8-byte Reload
	movl	%eax, 2384(%rsp)
	movq	120(%rsp), %rax                 ## 8-byte Reload
	movl	%eax, 2388(%rsp)
	movq	176(%rsp), %r12                 ## 8-byte Reload
	movl	%r12d, 2392(%rsp)
	movl	32(%rsp), %eax                  ## 4-byte Reload
	movl	%eax, 2396(%rsp)
	movq	112(%rsp), %rax                 ## 8-byte Reload
	movl	%eax, 2400(%rsp)
	movq	144(%rsp), %rax                 ## 8-byte Reload
	movl	%eax, 2404(%rsp)
	movl	%ecx, 2408(%rsp)
	vmovss	432(%rsp), %xmm0                ## 4-byte Reload
                                        ## xmm0 = mem[0],zero,zero,zero
	vmovss	%xmm0, 2412(%rsp)
	movl	208(%rsp), %eax                 ## 4-byte Reload
	movl	%eax, 2416(%rsp)
	movl	224(%rsp), %eax                 ## 4-byte Reload
	movl	%eax, 2420(%rsp)
	movl	%r15d, 2424(%rsp)
	movl	280(%rsp), %eax                 ## 4-byte Reload
	movl	%eax, 2428(%rsp)
	movq	40(%rsp), %rax                  ## 8-byte Reload
	movq	%rax, 2432(%rsp)
	movq	$0, 2440(%rsp)
	movq	80(%rsp), %rax                  ## 8-byte Reload
	movq	%rax, 2448(%rsp)
	movq	$0, 2456(%rsp)
	movq	184(%rsp), %rax                 ## 8-byte Reload
	movq	%rax, 2464(%rsp)
	movq	24(%rsp), %rbx                  ## 8-byte Reload
	movq	%rbx, 2472(%rsp)
	leaq	_train_cost_model.par_for.relu1_0_d_def__.s29.n.n.n(%rip), %rsi
	leaq	2376(%rsp), %r8
	xorl	%edi, %edi
	xorl	%edx, %edx
	movq	104(%rsp), %rcx                 ## 8-byte Reload
                                        ## kill: def $ecx killed $ecx killed $rcx
	callq	_halide_do_par_for
	testl	%eax, %eax
	movq	%rbx, %rdx
	movq	120(%rsp), %rcx                 ## 8-byte Reload
	movl	196(%rsp), %edi                 ## 4-byte Reload
	movq	136(%rsp), %rbx                 ## 8-byte Reload
	jne	LBB0_264
## %bb.155:                             ## %"consume f0_0_d_def__431"
	movq	%r12, %rsi
	leal	(%r13,%r13,4), %eax
	leal	(%r13,%rax,4), %r12d
	movl	%ebx, 3064(%rsp)
	movl	%edi, 3068(%rsp)
	movq	152(%rsp), %rax                 ## 8-byte Reload
	movl	%eax, 3072(%rsp)
	movl	%ecx, 3076(%rsp)
	movl	%esi, 3080(%rsp)
	movl	32(%rsp), %eax                  ## 4-byte Reload
	movl	%eax, 3084(%rsp)
	movq	112(%rsp), %rax                 ## 8-byte Reload
	movl	%eax, 3088(%rsp)
	movq	144(%rsp), %rax                 ## 8-byte Reload
	movl	%eax, 3092(%rsp)
	movl	160(%rsp), %eax                 ## 4-byte Reload
	movl	%eax, 3096(%rsp)
	vmovss	432(%rsp), %xmm0                ## 4-byte Reload
                                        ## xmm0 = mem[0],zero,zero,zero
	vmovss	%xmm0, 3100(%rsp)
	addl	%r13d, %r12d
	movl	208(%rsp), %eax                 ## 4-byte Reload
	movl	%eax, 3104(%rsp)
	movl	224(%rsp), %eax                 ## 4-byte Reload
	movl	%eax, 3108(%rsp)
	movl	%r15d, 3112(%rsp)
	movl	%r12d, 3116(%rsp)
	movl	288(%rsp), %eax                 ## 4-byte Reload
	movl	%eax, 3120(%rsp)
	movq	40(%rsp), %rax                  ## 8-byte Reload
	movq	%rax, 3128(%rsp)
	movq	$0, 3136(%rsp)
	movq	80(%rsp), %rax                  ## 8-byte Reload
	movq	%rax, 3144(%rsp)
	movq	$0, 3152(%rsp)
	movq	184(%rsp), %rax                 ## 8-byte Reload
	movq	%rax, 3160(%rsp)
	movq	%rdx, 3168(%rsp)
	leaq	_train_cost_model.par_for.relu1_0_d_def__.s30.n.n.n(%rip), %rsi
	leaq	3064(%rsp), %r8
	xorl	%edi, %edi
	xorl	%edx, %edx
	movq	104(%rsp), %r13                 ## 8-byte Reload
	movl	%r13d, %ecx
	callq	_halide_do_par_for
	testl	%eax, %eax
	jne	LBB0_264
## %bb.156:                             ## %"consume f0_0_d_def__434"
	movq	%r13, %rcx
	movl	%ebx, 2480(%rsp)
	movl	196(%rsp), %eax                 ## 4-byte Reload
	movl	%eax, 2484(%rsp)
	movq	152(%rsp), %rax                 ## 8-byte Reload
	movl	%eax, 2488(%rsp)
	movq	120(%rsp), %rax                 ## 8-byte Reload
	movl	%eax, 2492(%rsp)
	movq	176(%rsp), %rax                 ## 8-byte Reload
	movl	%eax, 2496(%rsp)
	movl	32(%rsp), %eax                  ## 4-byte Reload
	movl	%eax, 2500(%rsp)
	movq	112(%rsp), %rax                 ## 8-byte Reload
	movl	%eax, 2504(%rsp)
	movq	144(%rsp), %rax                 ## 8-byte Reload
	movl	%eax, 2508(%rsp)
	movl	160(%rsp), %r13d                ## 4-byte Reload
	movl	%r13d, 2512(%rsp)
	vmovss	432(%rsp), %xmm0                ## 4-byte Reload
                                        ## xmm0 = mem[0],zero,zero,zero
	vmovss	%xmm0, 2516(%rsp)
	movl	208(%rsp), %eax                 ## 4-byte Reload
	movl	%eax, 2520(%rsp)
	movl	224(%rsp), %eax                 ## 4-byte Reload
	movl	%eax, 2524(%rsp)
	movl	%r15d, 2528(%rsp)
	movl	280(%rsp), %eax                 ## 4-byte Reload
	movl	%eax, 2532(%rsp)
	movq	40(%rsp), %rax                  ## 8-byte Reload
	movq	%rax, 2536(%rsp)
	movq	$0, 2544(%rsp)
	movq	80(%rsp), %rax                  ## 8-byte Reload
	movq	%rax, 2552(%rsp)
	movq	$0, 2560(%rsp)
	movq	184(%rsp), %rax                 ## 8-byte Reload
	movq	%rax, 2568(%rsp)
	movq	24(%rsp), %rax                  ## 8-byte Reload
	movq	%rax, 2576(%rsp)
	leaq	_train_cost_model.par_for.relu1_0_d_def__.s31.n.n.n(%rip), %rsi
	leaq	2480(%rsp), %r8
	xorl	%edi, %edi
	xorl	%edx, %edx
                                        ## kill: def $ecx killed $ecx killed $rcx
	callq	_halide_do_par_for
	testl	%eax, %eax
	jne	LBB0_264
## %bb.157:                             ## %"consume f0_0_d_def__437"
	movl	%r13d, %eax
	movl	%ebx, 3176(%rsp)
	movl	196(%rsp), %ecx                 ## 4-byte Reload
	movl	%ecx, 3180(%rsp)
	movq	152(%rsp), %rcx                 ## 8-byte Reload
	movl	%ecx, 3184(%rsp)
	movq	120(%rsp), %r13                 ## 8-byte Reload
	movl	%r13d, 3188(%rsp)
	movq	176(%rsp), %rcx                 ## 8-byte Reload
	movl	%ecx, 3192(%rsp)
	movl	32(%rsp), %ecx                  ## 4-byte Reload
	movl	%ecx, 3196(%rsp)
	movq	112(%rsp), %rcx                 ## 8-byte Reload
	movl	%ecx, 3200(%rsp)
	movq	144(%rsp), %rcx                 ## 8-byte Reload
	movl	%ecx, 3204(%rsp)
	movl	%eax, 3208(%rsp)
	vmovss	432(%rsp), %xmm0                ## 4-byte Reload
                                        ## xmm0 = mem[0],zero,zero,zero
	vmovss	%xmm0, 3212(%rsp)
	movl	208(%rsp), %eax                 ## 4-byte Reload
	movl	%eax, 3216(%rsp)
	movl	224(%rsp), %eax                 ## 4-byte Reload
	movl	%eax, 3220(%rsp)
	movl	%r15d, 3224(%rsp)
	movl	%r12d, 3228(%rsp)
	movl	288(%rsp), %eax                 ## 4-byte Reload
	movl	%eax, 3232(%rsp)
	movq	40(%rsp), %rbx                  ## 8-byte Reload
	movq	%rbx, 3240(%rsp)
	movq	$0, 3248(%rsp)
	movq	80(%rsp), %rax                  ## 8-byte Reload
	movq	%rax, 3256(%rsp)
	movq	$0, 3264(%rsp)
	movq	184(%rsp), %rax                 ## 8-byte Reload
	movq	%rax, 3272(%rsp)
	movq	24(%rsp), %rax                  ## 8-byte Reload
	movq	%rax, 3280(%rsp)
	leaq	_train_cost_model.par_for.relu1_0_d_def__.s32.n.n.n(%rip), %rsi
	leaq	3176(%rsp), %r8
	xorl	%edi, %edi
	xorl	%edx, %edx
	movq	104(%rsp), %rcx                 ## 8-byte Reload
                                        ## kill: def $ecx killed $ecx killed $rcx
	callq	_halide_do_par_for
	testl	%eax, %eax
	jne	LBB0_264
## %bb.158:                             ## %call_destructor.exit821
	movq	%rbx, %rsi
	movq	456(%rsp), %rbx                 ## 8-byte Reload
	movl	%ebx, %r14d
	xorl	%edi, %edi
	callq	_halide_free
	shlq	$2, %rbx
	cmpl	$536870912, %r14d               ## imm = 0x20000000
	jae	LBB0_321
## %bb.159:                             ## %"assert succeeded441"
	addq	$12, %rbx
	xorl	%edi, %edi
	movq	%rbx, %rsi
	callq	_halide_malloc
	testq	%rax, %rax
	movq	136(%rsp), %rbx                 ## 8-byte Reload
	movq	112(%rsp), %rdx                 ## 8-byte Reload
	je	LBB0_322
## %bb.160:                             ## %"assert succeeded443"
	movq	%rax, %rsi
	movl	%edx, %eax
	sarl	$31, %eax
	andnl	%edx, %eax, %ecx
	movl	%ebx, %r12d
	sarl	$3, %r12d
	movl	%ebx, %r15d
	sarl	$31, %r15d
	andnl	%r12d, %r15d, %eax
	movl	%ebx, 6136(%rsp)
	movl	%eax, 144(%rsp)                 ## 4-byte Spill
	movl	%eax, 6140(%rsp)
	leaq	7040(%rsp), %rax
	movq	%rax, 6144(%rsp)
	movq	$0, 6152(%rsp)
	movq	%rsi, 24(%rsp)                  ## 8-byte Spill
	movq	%rsi, 6160(%rsp)
	movq	$0, 6168(%rsp)
	leaq	_train_cost_model.par_for.sum_1_d_def__.s0.n.n(%rip), %rsi
	leaq	6136(%rsp), %r8
	xorl	%edi, %edi
	xorl	%edx, %edx
	movl	%ecx, 160(%rsp)                 ## 4-byte Spill
	callq	_halide_do_par_for
	testl	%eax, %eax
	jne	LBB0_324
## %bb.161:                             ## %"assert succeeded446"
	movl	%r13d, %eax
	sarl	$31, %eax
	movl	%eax, 216(%rsp)                 ## 4-byte Spill
	andnl	%r13d, %eax, %r13d
	movl	%r15d, 40(%rsp)                 ## 4-byte Spill
	andnl	%ebx, %r15d, %edx
	movq	%rdx, %rdi
	imulq	%r13, %rdi
	movq	%rdi, %rsi
	shlq	$7, %rsi
	movq	%r13, %r15
	shlq	$7, %r15
	movl	$2147483648, %eax               ## imm = 0x80000000
	cmpq	%rax, %rsi
	jae	LBB0_282
## %bb.162:                             ## %"assert succeeded446"
	movq	%r13, %rax
	shrq	$25, %rax
	movl	%r15d, %ecx
	imulq	%rdx, %rcx
	shrq	$32, %rcx
	imulq	%rdx, %rax
	addq	%rcx, %rax
	movabsq	$270582939648, %rcx             ## imm = 0x3F00000000
	andq	%rcx, %rax
	jne	LBB0_282
## %bb.163:                             ## %"assert succeeded448"
	movq	%rdi, 152(%rsp)                 ## 8-byte Spill
	movq	%rdx, 184(%rsp)                 ## 8-byte Spill
	orq	$12, %rsi
	xorl	%edi, %edi
	callq	_halide_malloc
	testq	%rax, %rax
	movq	232(%rsp), %rdx                 ## 8-byte Reload
	movl	264(%rsp), %esi                 ## 4-byte Reload
	movl	144(%rsp), %ebx                 ## 4-byte Reload
	je	LBB0_325
## %bb.164:                             ## %"assert succeeded450"
	movq	%rax, %rdi
	movq	112(%rsp), %rcx                 ## 8-byte Reload
	subl	%ebx, %ecx
	movl	%ecx, %eax
	sarl	$31, %eax
	andnl	%ecx, %eax, %eax
	movq	136(%rsp), %rcx                 ## 8-byte Reload
	movl	%ecx, 5752(%rsp)
	movl	%esi, 5756(%rsp)
	movq	120(%rsp), %rcx                 ## 8-byte Reload
	movl	%ecx, 5760(%rsp)
	movq	176(%rsp), %rcx                 ## 8-byte Reload
	movl	%ecx, 5764(%rsp)
	movl	%r13d, 5768(%rsp)
	movl	%edx, 5772(%rsp)
	movl	248(%rsp), %ecx                 ## 4-byte Reload
	movl	%ecx, 5776(%rsp)
	movl	%eax, 5780(%rsp)
	movl	%r12d, 5784(%rsp)
	movl	%ebx, 5788(%rsp)
	movq	168(%rsp), %rax                 ## 8-byte Reload
	movq	%rax, 5792(%rsp)
	movq	$0, 5800(%rsp)
	movq	%rdi, 104(%rsp)                 ## 8-byte Spill
	movq	%rdi, 5808(%rsp)
	movq	$0, 5816(%rsp)
	movq	80(%rsp), %rbx                  ## 8-byte Reload
	movq	%rbx, 5824(%rsp)
	movq	$0, 5832(%rsp)
	movq	24(%rsp), %r12                  ## 8-byte Reload
	movq	%r12, 5840(%rsp)
	movq	$0, 5848(%rsp)
	leaq	_train_cost_model.par_for.conv1_stage2_1_d_def__.s0.c.c(%rip), %rsi
	leaq	5752(%rsp), %r8
	xorl	%edi, %edi
	xorl	%edx, %edx
	movl	$16, %ecx
	callq	_halide_do_par_for
	testl	%eax, %eax
	jne	LBB0_331
## %bb.165:                             ## %call_destructor.exit823
	xorl	%edi, %edi
	movq	%rbx, %rsi
	callq	_halide_free
	xorl	%edi, %edi
	movq	%r12, %rsi
	callq	_halide_free
	cmpl	$16777216, %r13d                ## imm = 0x1000000
	jae	LBB0_332
## %bb.166:                             ## %"assert succeeded455"
	movq	%r13, 24(%rsp)                  ## 8-byte Spill
	orq	$12, %r15
	xorl	%edi, %edi
	movq	%r15, %rsi
	callq	_halide_malloc
	testq	%rax, %rax
	movq	136(%rsp), %rbx                 ## 8-byte Reload
	je	LBB0_333
## %bb.167:                             ## %"assert succeeded457"
	movq	%rax, %r15
	movq	120(%rsp), %r13                 ## 8-byte Reload
	movl	%r13d, %eax
	sarl	$3, %eax
	movl	216(%rsp), %ecx                 ## 4-byte Reload
	andnl	%eax, %ecx, %r12d
	leal	7(%r13), %eax
	sarl	$3, %eax
	subl	%r12d, %eax
	movl	%eax, %ecx
	sarl	$31, %ecx
	andnl	%eax, %ecx, %eax
	movl	%r13d, 5136(%rsp)
	movl	%eax, 80(%rsp)                  ## 4-byte Spill
	movl	%eax, 5140(%rsp)
	movl	%r12d, 5144(%rsp)
	movq	%r15, 5152(%rsp)
	movq	$0, 5160(%rsp)
	leaq	_train_cost_model.par_for.conv1_stage1_1_d_def__.s0.c(%rip), %rsi
	leaq	5136(%rsp), %r8
	xorl	%edi, %edi
	xorl	%edx, %edx
	movl	$32, %ecx
	callq	_halide_do_par_for
	testl	%eax, %eax
	movq	%r15, 32(%rsp)                  ## 8-byte Spill
	jne	LBB0_334
## %bb.168:                             ## %"consume conv1_stage2_1_d_def__"
	leal	1(%rbx), %eax
	movl	%eax, %ecx
	sarl	%ecx
	movl	%ebx, %edx
	sarl	%edx
	movl	40(%rsp), %esi                  ## 4-byte Reload
	andnl	%edx, %esi, %edx
	sarl	$31, %eax
	andnl	%ecx, %eax, %eax
	subl	%edx, %ecx
	movl	%ecx, %esi
	sarl	$31, %esi
	andnl	%ecx, %esi, %ecx
	movl	%ebx, 5168(%rsp)
	movl	%r13d, 5172(%rsp)
	movl	%ecx, 5176(%rsp)
	movl	80(%rsp), %ecx                  ## 4-byte Reload
	movl	%ecx, 5180(%rsp)
	movl	%eax, 5184(%rsp)
	movl	%edx, 5188(%rsp)
	movl	%r12d, 5192(%rsp)
	movq	%r15, 5200(%rsp)
	movq	$0, 5208(%rsp)
	movq	104(%rsp), %rax                 ## 8-byte Reload
	movq	%rax, 5216(%rsp)
	movq	$0, 5224(%rsp)
	leaq	_train_cost_model.par_for.conv1_stage1_1_d_def__.s1.c(%rip), %rsi
	leaq	5168(%rsp), %r8
	xorl	%edi, %edi
	xorl	%edx, %edx
	movl	$32, %ecx
	callq	_halide_do_par_for
	testl	%eax, %eax
	jne	LBB0_334
## %bb.169:                             ## %"assert succeeded463"
	movq	24(%rsp), %rcx                  ## 8-byte Reload
	shlq	$5, %rcx
	movq	%rcx, 176(%rsp)                 ## 8-byte Spill
	leaq	12(%rcx), %rsi
	xorl	%edi, %edi
	callq	_halide_malloc
	testq	%rax, %rax
	movq	40(%rbp), %r12
	je	LBB0_335
## %bb.170:                             ## %"assert succeeded465"
	movq	%rax, 5232(%rsp)
	movq	$0, 5240(%rsp)
	leaq	_train_cost_model.par_for.head1_conv_1_d_def__.s0.w(%rip), %rsi
	movq	%rax, %r13
	leaq	5232(%rsp), %r8
	xorl	%edi, %edi
	xorl	%edx, %edx
	movq	120(%rsp), %rbx                 ## 8-byte Reload
	movl	%ebx, %ecx
	callq	_halide_do_par_for
	testl	%eax, %eax
	movq	%r13, 216(%rsp)                 ## 8-byte Spill
	jne	LBB0_345
## %bb.171:                             ## %"consume conv1_stage1_1_d_def__"
	movl	240(%rsp), %eax                 ## 4-byte Reload
	movl	%eax, 6608(%rsp)
	movl	%ebx, 6612(%rsp)
	movq	%r15, 6616(%rsp)
	movq	$0, 6624(%rsp)
	movq	856(%rsp), %rax                 ## 8-byte Reload
	movq	%rax, 6632(%rsp)
	movq	%r12, 6640(%rsp)
	movq	%r13, 6648(%rsp)
	movq	$0, 6656(%rsp)
	leaq	_train_cost_model.par_for.head1_conv_1_d_def__.s1.w(%rip), %rsi
	leaq	6608(%rsp), %r8
	xorl	%edi, %edi
	xorl	%edx, %edx
	movl	%ebx, %ecx
	callq	_halide_do_par_for
	testl	%eax, %eax
	movq	24(%rsp), %rsi                  ## 8-byte Reload
	jne	LBB0_345
## %bb.172:                             ## %"consume head1_conv_1_d_def__"
	movl	$6, %eax
	subl	1104(%rsp), %eax                ## 4-byte Folded Reload
	movl	512(%rsp), %edx                 ## 4-byte Reload
	imull	%edx, %eax
	subl	1112(%rsp), %eax                ## 4-byte Folded Reload
	subl	840(%rsp), %eax                 ## 4-byte Folded Reload
	movl	428(%rsp), %ecx                 ## 4-byte Reload
	movl	%ecx, 5248(%rsp)
	movl	424(%rsp), %ecx                 ## 4-byte Reload
	movl	%ecx, 5252(%rsp)
	movl	%ebx, 5256(%rsp)
	movl	%edx, 5260(%rsp)
	movl	508(%rsp), %ecx                 ## 4-byte Reload
	movl	%ecx, 5264(%rsp)
	movl	%esi, 5268(%rsp)
	movl	464(%rsp), %ecx                 ## 4-byte Reload
	movl	%ecx, 5272(%rsp)
	movq	1120(%rsp), %rbx                ## 8-byte Reload
	leal	(%rbx,%rbx,2), %ecx
	movl	%ecx, 80(%rsp)                  ## 4-byte Spill
	movl	%ecx, 5276(%rsp)
	movl	%eax, 5280(%rsp)
	movq	1376(%rsp), %r12                ## 8-byte Reload
	leal	(%rbx,%r12,2), %eax
	leal	(%rax,%rax,2), %eax
	movl	%eax, 5284(%rsp)
	movl	940(%rsp), %r15d                ## 4-byte Reload
	movl	%r15d, 5288(%rsp)
	movl	%r12d, 5292(%rsp)
	movq	%r13, 5296(%rsp)
	movq	$0, 5304(%rsp)
	movq	1136(%rsp), %rax                ## 8-byte Reload
	movq	%rax, 5312(%rsp)
	movq	816(%rsp), %rax                 ## 8-byte Reload
	movq	%rax, 5320(%rsp)
	movq	1160(%rsp), %rax                ## 8-byte Reload
	movq	%rax, 5328(%rsp)
	movq	1208(%rsp), %rax                ## 8-byte Reload
	movq	%rax, 5336(%rsp)
	movq	1384(%rsp), %r13                ## 8-byte Reload
	movq	%r13, 5344(%rsp)
	movq	80(%rbp), %rax
	movq	%rax, 5352(%rsp)
	leaq	_train_cost_model.par_for.updated_head1_filter.s1.v235.v235.v235(%rip), %rsi
	leaq	5248(%rsp), %r8
	xorl	%edi, %edi
	xorl	%edx, %edx
	movl	$80, %ecx
	callq	_halide_do_par_for
	testl	%eax, %eax
	jne	LBB0_345
## %bb.173:                             ## %"assert succeeded471"
	movl	%r15d, 5360(%rsp)
	movl	%r12d, 5364(%rsp)
	movl	%ebx, 5368(%rsp)
	movq	%r13, 5376(%rsp)
	movq	80(%rbp), %rax
	movq	%rax, 5384(%rsp)
	leaq	_train_cost_model.par_for.updated_head1_filter.s2.v235.v235.v235(%rip), %rsi
	leaq	5360(%rsp), %r8
	xorl	%edi, %edi
	xorl	%edx, %edx
	movl	$80, %ecx
	callq	_halide_do_par_for
	testl	%eax, %eax
	jne	LBB0_345
## %bb.174:                             ## %"assert succeeded473"
	leal	(%rbx,%rbx), %eax
	movl	80(%rsp), %ecx                  ## 4-byte Reload
	movl	%ecx, 1720(%rsp)
	movl	%eax, 1724(%rsp)
	movl	%r15d, 1728(%rsp)
	movl	%r12d, 1732(%rsp)
	movq	%r13, 1736(%rsp)
	movq	80(%rbp), %rax
	movq	%rax, 1744(%rsp)
	leaq	_train_cost_model.par_for.updated_head1_filter.s3.v235.v235.v235(%rip), %rsi
	leaq	1720(%rsp), %r8
	xorl	%edi, %edi
	xorl	%edx, %edx
	movl	$80, %ecx
	callq	_halide_do_par_for
	testl	%eax, %eax
	jne	LBB0_345
## %bb.175:                             ## %"assert succeeded475"
	movq	%r13, %rdx
	movl	56(%rbp), %eax
	incl	%eax
	vcvtsi2ss	%eax, %xmm0, %xmm3
	vmulss	LCPI0_78(%rip), %xmm3, %xmm0
	vroundss	$9, %xmm0, %xmm0, %xmm4
	vcvttss2si	%xmm4, %eax
	vmovss	LCPI0_81(%rip), %xmm1           ## xmm1 = mem[0],zero,zero,zero
	vmovss	LCPI0_84(%rip), %xmm2           ## xmm2 = mem[0],zero,zero,zero
	vmovss	LCPI0_85(%rip), %xmm0           ## xmm0 = mem[0],zero,zero,zero
	cmpl	$127, %eax
	movq	24(%rsp), %r13                  ## 8-byte Reload
	jg	LBB0_177
## %bb.176:                             ## %select.true.sink
	vmulss	LCPI0_79(%rip), %xmm4, %xmm4
	vfmadd231ss	LCPI0_80(%rip), %xmm3, %xmm4 ## xmm4 = (xmm3 * mem) + xmm4
	vmulss	%xmm4, %xmm4, %xmm5
	movl	%eax, %ecx
	shll	$23, %ecx
	addl	$1065353216, %ecx               ## imm = 0x3F800000
	vmovss	LCPI0_82(%rip), %xmm6           ## xmm6 = mem[0],zero,zero,zero
	vfmadd231ss	%xmm1, %xmm5, %xmm6     ## xmm6 = (xmm5 * xmm1) + xmm6
	vfmadd213ss	LCPI0_83(%rip), %xmm5, %xmm6 ## xmm6 = (xmm5 * xmm6) + mem
	vmovss	LCPI0_86(%rip), %xmm7           ## xmm7 = mem[0],zero,zero,zero
	vfmadd231ss	%xmm0, %xmm5, %xmm7     ## xmm7 = (xmm5 * xmm0) + xmm7
	vfmadd213ss	LCPI0_87(%rip), %xmm5, %xmm7 ## xmm7 = (xmm5 * xmm7) + mem
	vfmadd213ss	%xmm2, %xmm5, %xmm6     ## xmm6 = (xmm5 * xmm6) + xmm2
	vfmadd213ss	%xmm2, %xmm5, %xmm7     ## xmm7 = (xmm5 * xmm7) + xmm2
	vfmadd231ss	%xmm6, %xmm4, %xmm7     ## xmm7 = (xmm4 * xmm6) + xmm7
	vmovd	%ecx, %xmm4
	vfmadd213ss	LCPI0_88(%rip), %xmm7, %xmm4 ## xmm4 = (xmm7 * xmm4) + mem
	vmovss	LCPI0_88(%rip), %xmm5           ## xmm5 = mem[0],zero,zero,zero
	vdivss	%xmm4, %xmm5, %xmm4
	jmp	LBB0_178
LBB0_177:
	vmovss	LCPI0_89(%rip), %xmm4           ## xmm4 = mem[0],zero,zero,zero
LBB0_178:                               ## %select.end
	vmovaps	%xmm4, 80(%rsp)                 ## 16-byte Spill
	movq	152(%rsp), %rbx                 ## 8-byte Reload
	vmovss	LCPI0_88(%rip), %xmm4           ## xmm4 = mem[0],zero,zero,zero
	cmpl	$-127, %eax
	jg	LBB0_180
## %bb.179:                             ## %select.end
	vmovaps	%xmm4, %xmm5
	vmovaps	%xmm4, 80(%rsp)                 ## 16-byte Spill
LBB0_180:                               ## %select.end
	vmulss	LCPI0_90(%rip), %xmm3, %xmm5
	vroundss	$9, %xmm5, %xmm5, %xmm5
	vcvttss2si	%xmm5, %eax
	cmpl	$127, %eax
	jg	LBB0_182
## %bb.181:                             ## %select.true.sink237
	vmulss	LCPI0_79(%rip), %xmm5, %xmm5
	vfmadd231ss	LCPI0_91(%rip), %xmm3, %xmm5 ## xmm5 = (xmm3 * mem) + xmm5
	vmulss	%xmm5, %xmm5, %xmm3
	movl	%eax, %ecx
	shll	$23, %ecx
	vfmadd213ss	LCPI0_82(%rip), %xmm3, %xmm1 ## xmm1 = (xmm3 * xmm1) + mem
	vfmadd213ss	LCPI0_83(%rip), %xmm3, %xmm1 ## xmm1 = (xmm3 * xmm1) + mem
	addl	$1065353216, %ecx               ## imm = 0x3F800000
	vfmadd213ss	%xmm2, %xmm3, %xmm1     ## xmm1 = (xmm3 * xmm1) + xmm2
	vfmadd213ss	LCPI0_86(%rip), %xmm3, %xmm0 ## xmm0 = (xmm3 * xmm0) + mem
	vfmadd213ss	LCPI0_87(%rip), %xmm3, %xmm0 ## xmm0 = (xmm3 * xmm0) + mem
	vfmadd213ss	%xmm2, %xmm3, %xmm0     ## xmm0 = (xmm3 * xmm0) + xmm2
	vfmadd231ss	%xmm1, %xmm5, %xmm0     ## xmm0 = (xmm5 * xmm1) + xmm0
	vmovd	%ecx, %xmm1
	vfmadd213ss	%xmm4, %xmm0, %xmm1     ## xmm1 = (xmm0 * xmm1) + xmm4
	vmovss	LCPI0_88(%rip), %xmm0           ## xmm0 = mem[0],zero,zero,zero
	vdivss	%xmm1, %xmm0, %xmm0
	vmovss	%xmm0, 112(%rsp)                ## 4-byte Spill
	movq	1120(%rsp), %rcx                ## 8-byte Reload
	cmpl	$-127, %eax
	jle	LBB0_183
	jmp	LBB0_184
LBB0_182:
	vmovss	LCPI0_89(%rip), %xmm0           ## xmm0 = mem[0],zero,zero,zero
	vmovss	%xmm0, 112(%rsp)                ## 4-byte Spill
	movq	1120(%rsp), %rcx                ## 8-byte Reload
	cmpl	$-127, %eax
	jg	LBB0_184
LBB0_183:                               ## %select.end236
	vmovss	LCPI0_88(%rip), %xmm0           ## xmm0 = mem[0],zero,zero,zero
	vmovss	%xmm0, 112(%rsp)                ## 4-byte Spill
LBB0_184:                               ## %select.end236
	movl	428(%rsp), %eax                 ## 4-byte Reload
	movl	%eax, 1896(%rsp)
	movl	424(%rsp), %eax                 ## 4-byte Reload
	movl	%eax, 1900(%rsp)
	vmovss	244(%rsp), %xmm0                ## 4-byte Reload
                                        ## xmm0 = mem[0],zero,zero,zero
	vmovss	%xmm0, 1904(%rsp)
	vmovss	112(%rsp), %xmm0                ## 4-byte Reload
                                        ## xmm0 = mem[0],zero,zero,zero
	vmovss	%xmm0, 1908(%rsp)
	vmovaps	80(%rsp), %xmm0                 ## 16-byte Reload
	vmovss	%xmm0, 1912(%rsp)
	movl	%r15d, 1916(%rsp)
	movl	%r12d, 1920(%rsp)
	movl	%ecx, 1924(%rsp)
	movq	1136(%rsp), %rax                ## 8-byte Reload
	movq	%rax, 1928(%rsp)
	movq	816(%rsp), %rax                 ## 8-byte Reload
	movq	%rax, 1936(%rsp)
	movq	%rdx, 1944(%rsp)
	movq	80(%rbp), %rax
	movq	%rax, 1952(%rsp)
	leaq	_train_cost_model.par_for.updated_head1_filter.s4.v235.v235.v235(%rip), %rsi
	leaq	1896(%rsp), %r8
	xorl	%edi, %edi
	xorl	%edx, %edx
	movl	$80, %ecx
	callq	_halide_do_par_for
	testl	%eax, %eax
	jne	LBB0_345
## %bb.185:                             ## %"produce head1_bias_im_0_d_def__"
	vxorps	%xmm0, %xmm0, %xmm0
	vmovaps	%ymm0, 7040(%rsp)
	cmpl	$0, 120(%rsp)                   ## 4-byte Folded Reload
	movq	216(%rsp), %rsi                 ## 8-byte Reload
	jle	LBB0_194
## %bb.186:                             ## %"for head1_bias_im_0_d_def__.s1.r1240$x.preheader"
	movl	120(%rsp), %edx                 ## 4-byte Reload
	leaq	-1(%rdx), %rcx
	movl	%edx, %eax
	andl	$7, %eax
	cmpq	$7, %rcx
	jae	LBB0_188
## %bb.187:
	xorl	%ecx, %ecx
	jmp	LBB0_190
LBB0_188:                               ## %"for head1_bias_im_0_d_def__.s1.r1240$x.preheader.new"
	andl	$-8, %edx
	leaq	224(%rsi), %rdi
	vxorps	%xmm0, %xmm0, %xmm0
	xorl	%ecx, %ecx
	.p2align	4, 0x90
LBB0_189:                               ## %"for head1_bias_im_0_d_def__.s1.r1240$x"
                                        ## =>This Inner Loop Header: Depth=1
	vaddps	-224(%rdi), %ymm0, %ymm0
	vaddps	-192(%rdi), %ymm0, %ymm0
	vaddps	-160(%rdi), %ymm0, %ymm0
	vaddps	-128(%rdi), %ymm0, %ymm0
	vaddps	-96(%rdi), %ymm0, %ymm0
	vaddps	-64(%rdi), %ymm0, %ymm0
	vaddps	-32(%rdi), %ymm0, %ymm0
	vaddps	(%rdi), %ymm0, %ymm0
	addq	$8, %rcx
	addq	$256, %rdi                      ## imm = 0x100
	cmpq	%rcx, %rdx
	jne	LBB0_189
LBB0_190:                               ## %call_destructor.exit826.loopexit.unr-lcssa
	testq	%rax, %rax
	je	LBB0_193
## %bb.191:                             ## %"for head1_bias_im_0_d_def__.s1.r1240$x.epil.preheader"
	shlq	$5, %rcx
	movq	%rsi, %rdx
	addq	%rcx, %rdx
	shlq	$5, %rax
	xorl	%ecx, %ecx
	.p2align	4, 0x90
LBB0_192:                               ## %"for head1_bias_im_0_d_def__.s1.r1240$x.epil"
                                        ## =>This Inner Loop Header: Depth=1
	vaddps	(%rdx,%rcx), %ymm0, %ymm0
	addq	$32, %rcx
	cmpq	%rcx, %rax
	jne	LBB0_192
LBB0_193:                               ## %call_destructor.exit826.loopexit
	vmovaps	%ymm0, 7040(%rsp)
LBB0_194:                               ## %call_destructor.exit826
	xorl	%edi, %edi
	vzeroupper
	callq	_halide_free
	vmovaps	7040(%rsp), %ymm0
	movq	1392(%rsp), %rdx                ## 8-byte Reload
	leaq	(%rdx,%rdx,2), %rax
	movq	1408(%rsp), %rcx                ## 8-byte Reload
	vmovups	%ymm0, (%rcx,%rax,4)
	vbroadcastss	LCPI0_92(%rip), %ymm1   ## ymm1 = [8.99999976E-1,8.99999976E-1,8.99999976E-1,8.99999976E-1,8.99999976E-1,8.99999976E-1,8.99999976E-1,8.99999976E-1]
	vmulps	(%rcx,%rdx,4), %ymm1, %ymm1
	vbroadcastss	LCPI0_93(%rip), %ymm2   ## ymm2 = [1.00000001E-1,1.00000001E-1,1.00000001E-1,1.00000001E-1,1.00000001E-1,1.00000001E-1,1.00000001E-1,1.00000001E-1]
	vfmadd213ps	%ymm1, %ymm0, %ymm2     ## ymm2 = (ymm0 * ymm2) + ymm1
	vmovups	%ymm2, (%rcx,%rdx,4)
	vmovups	(%rcx,%rax,4), %ymm0
	vbroadcastss	LCPI0_94(%rip), %ymm1   ## ymm1 = [9.99000012E-1,9.99000012E-1,9.99000012E-1,9.99000012E-1,9.99000012E-1,9.99000012E-1,9.99000012E-1,9.99000012E-1]
	vmulps	%ymm0, %ymm0, %ymm0
	vbroadcastss	LCPI0_95(%rip), %ymm2   ## ymm2 = [1.00000005E-3,1.00000005E-3,1.00000005E-3,1.00000005E-3,1.00000005E-3,1.00000005E-3,1.00000005E-3,1.00000005E-3]
	vmulps	%ymm2, %ymm0, %ymm0
	vfmadd231ps	(%rcx,%rdx,8), %ymm1, %ymm0 ## ymm0 = (ymm1 * mem) + ymm0
	vmovups	%ymm0, (%rcx,%rdx,8)
	vmovss	112(%rsp), %xmm1                ## 4-byte Reload
                                        ## xmm1 = mem[0],zero,zero,zero
	vmulss	244(%rsp), %xmm1, %xmm1         ## 4-byte Folded Reload
	vbroadcastss	%xmm1, %ymm1
	vmulps	(%rcx,%rdx,4), %ymm1, %ymm1
	vbroadcastss	80(%rsp), %ymm2         ## 16-byte Folded Reload
	vmulps	%ymm0, %ymm2, %ymm0
	vsqrtps	%ymm0, %ymm0
	vbroadcastss	LCPI0_96(%rip), %ymm2   ## ymm2 = [-9.99999974E-6,-9.99999974E-6,-9.99999974E-6,-9.99999974E-6,-9.99999974E-6,-9.99999974E-6,-9.99999974E-6,-9.99999974E-6]
	vsubps	%ymm0, %ymm2, %ymm0
	vdivps	%ymm0, %ymm1, %ymm0
	movq	1168(%rsp), %rax                ## 8-byte Reload
	vaddps	(%rax), %ymm0, %ymm0
	vmovups	%ymm0, (%rcx)
	shlq	$5, %rbx
	leaq	(%rbx,%rbx,2), %rsi
	movq	176(%rsp), %rax                 ## 8-byte Reload
	leaq	(%rax,%rax,2), %rdx
	movl	$2147483648, %eax               ## imm = 0x80000000
	cmpq	%rax, %rsi
	jae	LBB0_283
## %bb.195:                             ## %call_destructor.exit826
	movq	%rdx, %rax
	shrq	$32, %rax
	movl	%edx, %ecx
	movq	184(%rsp), %rdi                 ## 8-byte Reload
	imulq	%rdi, %rcx
	shrq	$32, %rcx
	imulq	%rdi, %rax
	addq	%rcx, %rax
	movabsq	$545460846592, %rcx             ## imm = 0x7F00000000
	andq	%rcx, %rax
	jne	LBB0_283
## %bb.196:                             ## %"assert succeeded480"
	orq	$12, %rsi
	xorl	%edi, %edi
	vzeroupper
	callq	_halide_malloc
	testq	%rax, %rax
	movq	120(%rsp), %r12                 ## 8-byte Reload
	movq	1400(%rsp), %r14                ## 8-byte Reload
	je	LBB0_348
## %bb.197:                             ## %"assert succeeded482"
	movq	%rax, %rsi
	movq	136(%rsp), %r15                 ## 8-byte Reload
	leal	4(%r15), %eax
	movl	%eax, %ecx
	sarl	$31, %ecx
	xorl	%ecx, %eax
	imulq	$1717986919, %rax, %rax         ## imm = 0x66666667
	shrq	$33, %rax
	xorl	%ecx, %eax
	andnl	%eax, %ecx, %ecx
	movl	40(%rsp), %edx                  ## 4-byte Reload
	movl	%edx, %eax
	xorl	%r15d, %eax
	imulq	$1717986919, %rax, %rax         ## imm = 0x66666667
	shrq	$33, %rax
	xorl	%edx, %eax
	andnl	%eax, %edx, %eax
	movl	%r15d, 6320(%rsp)
	movl	240(%rsp), %edx                 ## 4-byte Reload
	movl	%edx, 6324(%rsp)
	movl	344(%rsp), %edx                 ## 4-byte Reload
	movl	%edx, 6328(%rsp)
	movl	%r12d, 6332(%rsp)
	movl	%eax, 6336(%rsp)
	movl	%r13d, 6340(%rsp)
	movq	232(%rsp), %r13                 ## 8-byte Reload
	movl	%r13d, 6344(%rsp)
	movq	104(%rsp), %rax                 ## 8-byte Reload
	movq	%rax, 6352(%rsp)
	movq	$0, 6360(%rsp)
	movq	856(%rsp), %rax                 ## 8-byte Reload
	movq	%rax, 6368(%rsp)
	movq	40(%rbp), %rax
	movq	%rax, 6376(%rsp)
	movq	64(%rsp), %rbx                  ## 8-byte Reload
	movq	%rbx, 6384(%rsp)
	movq	$0, 6392(%rsp)
	movq	%rsi, 6400(%rsp)
	movq	$0, 6408(%rsp)
	movq	%rsi, 24(%rsp)                  ## 8-byte Spill
	leaq	_train_cost_model.par_for.head2_conv_1_d_def__.s0.n.n(%rip), %rsi
	leaq	6320(%rsp), %r8
	xorl	%edi, %edi
	xorl	%edx, %edx
	callq	_halide_do_par_for
	testl	%eax, %eax
	jne	LBB0_267
## %bb.198:                             ## %call_destructor.exit827
	xorl	%edi, %edi
	movq	%rbx, %rsi
	callq	_halide_free
	leal	(%r14,%r14,2), %edi
	movl	296(%rsp), %edx                 ## 4-byte Reload
	imull	$38, %edx, %eax
	subl	%r13d, %eax
	movl	944(%rsp), %esi                 ## 4-byte Reload
	imull	$38, %esi, %ecx
	addl	%edi, %ecx
	movl	%r15d, 5392(%rsp)
	movl	%edx, 5396(%rsp)
	movl	%r12d, 5400(%rsp)
	movl	%esi, %r12d
	movl	%eax, 5404(%rsp)
	movl	%ecx, 5408(%rsp)
	movl	%edi, 176(%rsp)                 ## 4-byte Spill
	movl	%edi, 5412(%rsp)
	movl	%r13d, 5416(%rsp)
	movl	%esi, 5420(%rsp)
	movq	24(%rsp), %rax                  ## 8-byte Reload
	movq	%rax, 5424(%rsp)
	movq	$0, 5432(%rsp)
	movq	48(%rsp), %rbx                  ## 8-byte Reload
	movq	%rbx, 5440(%rsp)
	movq	$0, 5448(%rsp)
	movq	1416(%rsp), %r15                ## 8-byte Reload
	movq	%r15, 5456(%rsp)
	movq	96(%rbp), %r13
	movq	%r13, 5464(%rsp)
	leaq	_train_cost_model.par_for.updated_head2_filter.s1.v240.v240.v240(%rip), %rsi
	leaq	5392(%rsp), %r8
	xorl	%edi, %edi
	xorl	%edx, %edx
	movl	$60, %ecx
	callq	_halide_do_par_for
	testl	%eax, %eax
	jne	LBB0_349
## %bb.199:                             ## %call_destructor.exit828
	xorl	%edi, %edi
	movq	%rbx, %rsi
	callq	_halide_free
	movl	%r12d, 1824(%rsp)
	movl	%r14d, 1828(%rsp)
	movq	%r15, 1832(%rsp)
	movq	%r13, 1840(%rsp)
	leaq	_train_cost_model.par_for.updated_head2_filter.s2.v240.v240.v240(%rip), %rsi
	leaq	1824(%rsp), %r8
	xorl	%edi, %edi
	xorl	%edx, %edx
	movl	$60, %ecx
	callq	_halide_do_par_for
	testl	%eax, %eax
	jne	LBB0_266
## %bb.200:                             ## %"assert succeeded491"
	leal	(%r14,%r14), %eax
	movl	176(%rsp), %ecx                 ## 4-byte Reload
	movl	%ecx, 5472(%rsp)
	movl	%eax, 5476(%rsp)
	movl	%r12d, 5480(%rsp)
	movq	%r15, 5488(%rsp)
	movq	%r13, 5496(%rsp)
	leaq	_train_cost_model.par_for.updated_head2_filter.s3.v240.v240.v240(%rip), %rsi
	leaq	5472(%rsp), %r8
	xorl	%edi, %edi
	xorl	%edx, %edx
	movl	$60, %ecx
	callq	_halide_do_par_for
	testl	%eax, %eax
	jne	LBB0_266
## %bb.201:                             ## %"assert succeeded493"
	movl	516(%rsp), %eax                 ## 4-byte Reload
	movl	%eax, 3288(%rsp)
	vmovss	244(%rsp), %xmm0                ## 4-byte Reload
                                        ## xmm0 = mem[0],zero,zero,zero
	vmovss	%xmm0, 3292(%rsp)
	vmovss	112(%rsp), %xmm0                ## 4-byte Reload
                                        ## xmm0 = mem[0],zero,zero,zero
	vmovss	%xmm0, 3296(%rsp)
	vmovaps	80(%rsp), %xmm0                 ## 16-byte Reload
	vmovss	%xmm0, 3300(%rsp)
	movl	%r12d, 3304(%rsp)
	movl	%r14d, 3308(%rsp)
	movq	1176(%rsp), %rax                ## 8-byte Reload
	movq	%rax, 3312(%rsp)
	movq	24(%rbp), %rax
	movq	%rax, 3320(%rsp)
	movq	%r15, 3328(%rsp)
	movq	%r13, 3336(%rsp)
	leaq	_train_cost_model.par_for.updated_head2_filter.s4.v240.v240.v240(%rip), %rsi
	leaq	3288(%rsp), %r8
	xorl	%edi, %edi
	xorl	%edx, %edx
	movl	$60, %ecx
	callq	_halide_do_par_for
	testl	%eax, %eax
	jne	LBB0_266
## %bb.202:                             ## %"consume head2_conv_1_d_def__496"
	movq	1424(%rsp), %r14                ## 8-byte Reload
	leal	(%r14,%r14,2), %eax
	movq	136(%rsp), %rcx                 ## 8-byte Reload
	movl	%ecx, 6416(%rsp)
	movq	120(%rsp), %rcx                 ## 8-byte Reload
	movl	%ecx, 6420(%rsp)
	movl	%eax, 6424(%rsp)
	movq	24(%rsp), %rbx                  ## 8-byte Reload
	movq	%rbx, 6432(%rsp)
	movq	$0, 6440(%rsp)
	movq	1432(%rsp), %r13                ## 8-byte Reload
	movq	%r13, 6448(%rsp)
	movq	104(%rbp), %r12
	movq	%r12, 6456(%rsp)
	leaq	_train_cost_model.par_for.updated_head2_bias.s1.v243.v243(%rip), %rsi
	leaq	6416(%rsp), %r8
	xorl	%edi, %edi
	xorl	%edx, %edx
	movl	$3, %ecx
	callq	_halide_do_par_for
	testl	%eax, %eax
	jne	LBB0_266
## %bb.203:                             ## %call_destructor.exit829
	xorl	%edi, %edi
	movq	%rbx, %rsi
	callq	_halide_free
	movl	%r14d, 6464(%rsp)
	movq	%r13, 6472(%rsp)
	movq	%r12, 6480(%rsp)
	leaq	_train_cost_model.par_for.updated_head2_bias.s2.v243.v243(%rip), %rsi
	leaq	6464(%rsp), %r8
	xorl	%edi, %edi
	xorl	%edx, %edx
	movl	$3, %ecx
	callq	_halide_do_par_for
	testl	%eax, %eax
	jne	LBB0_268
## %bb.204:                             ## %"assert succeeded500"
	movl	%r14d, 6488(%rsp)
	movq	%r13, 6496(%rsp)
	movq	%r12, 6504(%rsp)
	leaq	_train_cost_model.par_for.updated_head2_bias.s3.v243.v243(%rip), %rsi
	leaq	6488(%rsp), %r8
	xorl	%edi, %edi
	xorl	%edx, %edx
	movl	$3, %ecx
	callq	_halide_do_par_for
	testl	%eax, %eax
	movq	136(%rsp), %r15                 ## 8-byte Reload
	jne	LBB0_268
## %bb.205:                             ## %"assert succeeded502"
	vmovss	244(%rsp), %xmm0                ## 4-byte Reload
                                        ## xmm0 = mem[0],zero,zero,zero
	vmovss	%xmm0, 5504(%rsp)
	vmovss	112(%rsp), %xmm0                ## 4-byte Reload
                                        ## xmm0 = mem[0],zero,zero,zero
	vmovss	%xmm0, 5508(%rsp)
	vmovaps	80(%rsp), %xmm0                 ## 16-byte Reload
	vmovss	%xmm0, 5512(%rsp)
	movl	%r14d, 5516(%rsp)
	movq	1184(%rsp), %rax                ## 8-byte Reload
	movq	%rax, 5520(%rsp)
	movq	32(%rbp), %rax
	movq	%rax, 5528(%rsp)
	movq	%r13, 5536(%rsp)
	movq	%r12, 5544(%rsp)
	leaq	_train_cost_model.par_for.updated_head2_bias.s4.v243.v243(%rip), %rsi
	leaq	5504(%rsp), %r8
	xorl	%edi, %edi
	xorl	%edx, %edx
	movl	$3, %ecx
	callq	_halide_do_par_for
	testl	%eax, %eax
	jne	LBB0_268
## %bb.206:                             ## %"produce filter1_im_0_d_def__"
	leaq	7040(%rsp), %r13
	movq	%r13, 5552(%rsp)
	movq	$0, 5560(%rsp)
	leaq	_train_cost_model.par_for.filter1_im_0_d_def__.s0.v12(%rip), %rsi
	leaq	5552(%rsp), %r8
	xorl	%edi, %edi
	xorl	%edx, %edx
	movl	$32, %ecx
	callq	_halide_do_par_for
	testl	%eax, %eax
	movq	128(%rsp), %rbx                 ## 8-byte Reload
	movl	480(%rsp), %ecx                 ## 4-byte Reload
	jne	LBB0_268
## %bb.207:                             ## %"consume head2_relu508"
	movl	%r15d, 6256(%rsp)
	movl	%ecx, 6260(%rsp)
	movq	120(%rsp), %r14                 ## 8-byte Reload
	movl	%r14d, 6264(%rsp)
	movq	232(%rsp), %rax                 ## 8-byte Reload
	movl	%eax, 6268(%rsp)
	movq	104(%rsp), %r15                 ## 8-byte Reload
	movq	%r15, 6272(%rsp)
	movq	$0, 6280(%rsp)
	movq	%r13, 6288(%rsp)
	movq	$0, 6296(%rsp)
	movq	%rbx, 6304(%rsp)
	movq	$0, 6312(%rsp)
	leaq	_train_cost_model.par_for.filter1_im_0_d_def__.s1.v12(%rip), %rsi
	leaq	6256(%rsp), %r8
	xorl	%edi, %edi
	xorl	%edx, %edx
	movl	$32, %ecx
	callq	_halide_do_par_for
	testl	%eax, %eax
	jne	LBB0_350
## %bb.208:                             ## %call_destructor.exit831
	xorl	%edi, %edi
	movq	%rbx, %rsi
	callq	_halide_free
	xorl	%edi, %edi
	movq	%r15, %rsi
	callq	_halide_free
	movl	%r14d, 6760(%rsp)
	movq	32(%rsp), %rax                  ## 8-byte Reload
	movq	%rax, 6768(%rsp)
	movq	$0, 6776(%rsp)
	movq	%r13, %r14
	movq	%r13, 6784(%rsp)
	movq	$0, 6792(%rsp)
	movq	200(%rsp), %rbx                 ## 8-byte Reload
	movq	%rbx, 6800(%rsp)
	movq	$0, 6808(%rsp)
	leaq	_train_cost_model.par_for.filter1_im_0_d_def__.s2.v12(%rip), %rsi
	leaq	6760(%rsp), %r8
	xorl	%edi, %edi
	xorl	%edx, %edx
	movl	$32, %ecx
	callq	_halide_do_par_for
	testl	%eax, %eax
	jne	LBB0_351
## %bb.209:                             ## %call_destructor.exit832
	xorl	%edi, %edi
	movq	%rbx, %rsi
	callq	_halide_free
	movq	1440(%rsp), %r15                ## 8-byte Reload
	leal	(%r15,%r15,2), %r13d
	movl	%r13d, 6176(%rsp)
	movl	948(%rsp), %r12d                ## 4-byte Reload
	movl	%r12d, 6180(%rsp)
	movq	%r14, 6184(%rsp)
	movq	$0, 6192(%rsp)
	movq	1448(%rsp), %rbx                ## 8-byte Reload
	movq	%rbx, 6200(%rsp)
	movq	112(%rbp), %r14
	movq	%r14, 6208(%rsp)
	leaq	_train_cost_model.par_for.updated_filter1.s1.v245.v245.v245(%rip), %rsi
	leaq	6176(%rsp), %r8
	xorl	%edi, %edi
	xorl	%edx, %edx
	movl	$32, %ecx
	callq	_halide_do_par_for
	testl	%eax, %eax
	jne	LBB0_269
## %bb.210:                             ## %"assert succeeded516"
	movl	%r12d, 1848(%rsp)
	movl	%r15d, 1852(%rsp)
	movq	%rbx, 1856(%rsp)
	movq	%r14, 1864(%rsp)
	leaq	_train_cost_model.par_for.updated_filter1.s2.v245.v245.v245(%rip), %rsi
	leaq	1848(%rsp), %r8
	xorl	%edi, %edi
	xorl	%edx, %edx
	movl	$32, %ecx
	callq	_halide_do_par_for
	testl	%eax, %eax
	movq	1456(%rsp), %r14                ## 8-byte Reload
	jne	LBB0_269
## %bb.211:                             ## %"assert succeeded518"
	leal	(%r15,%r15), %eax
	movl	%eax, 5568(%rsp)
	movl	%r13d, 5572(%rsp)
	movl	%r12d, 5576(%rsp)
	movq	%rbx, 5584(%rsp)
	movq	112(%rbp), %rax
	movq	%rax, 5592(%rsp)
	leaq	_train_cost_model.par_for.updated_filter1.s3.v245.v245.v245(%rip), %rsi
	leaq	5568(%rsp), %r8
	xorl	%edi, %edi
	xorl	%edx, %edx
	movl	$32, %ecx
	callq	_halide_do_par_for
	testl	%eax, %eax
	jne	LBB0_269
## %bb.212:                             ## %"assert succeeded520"
	movl	240(%rsp), %eax                 ## 4-byte Reload
	movl	%eax, 3344(%rsp)
	vmovss	244(%rsp), %xmm0                ## 4-byte Reload
                                        ## xmm0 = mem[0],zero,zero,zero
	vmovss	%xmm0, 3348(%rsp)
	vmovss	112(%rsp), %xmm0                ## 4-byte Reload
                                        ## xmm0 = mem[0],zero,zero,zero
	vmovss	%xmm0, 3352(%rsp)
	vmovaps	80(%rsp), %xmm0                 ## 16-byte Reload
	vmovss	%xmm0, 3356(%rsp)
	movl	%r12d, 3360(%rsp)
	movl	%r15d, 3364(%rsp)
	movq	856(%rsp), %rax                 ## 8-byte Reload
	movq	%rax, 3368(%rsp)
	movq	40(%rbp), %rax
	movq	%rax, 3376(%rsp)
	movq	%rbx, 3384(%rsp)
	movq	112(%rbp), %rax
	movq	%rax, 3392(%rsp)
	leaq	_train_cost_model.par_for.updated_filter1.s4.v245.v245.v245(%rip), %rsi
	leaq	3344(%rsp), %r8
	xorl	%edi, %edi
	xorl	%edx, %edx
	movl	$32, %ecx
	callq	_halide_do_par_for
	testl	%eax, %eax
	movq	120(%rbp), %r12
	jne	LBB0_269
## %bb.213:                             ## %"consume conv1_stage1_1_d_def__523"
	leal	(%r14,%r14,2), %eax
	movq	120(%rsp), %rcx                 ## 8-byte Reload
	movl	%ecx, 6216(%rsp)
	movl	%eax, 6220(%rsp)
	movq	32(%rsp), %rbx                  ## 8-byte Reload
	movq	%rbx, 6224(%rsp)
	movq	$0, 6232(%rsp)
	movq	1464(%rsp), %r15                ## 8-byte Reload
	movq	%r15, 6240(%rsp)
	movq	%r12, 6248(%rsp)
	leaq	_train_cost_model.par_for.updated_bias1.s1.v248.v248(%rip), %rsi
	leaq	6216(%rsp), %r8
	xorl	%edi, %edi
	xorl	%edx, %edx
	movl	$4, %ecx
	callq	_halide_do_par_for
	testl	%eax, %eax
	jne	LBB0_353
## %bb.214:                             ## %call_destructor.exit833
	xorl	%edi, %edi
	movq	%rbx, %rsi
	callq	_halide_free
	movl	%r14d, 6512(%rsp)
	movq	%r15, 6520(%rsp)
	movq	%r12, 6528(%rsp)
	leaq	_train_cost_model.par_for.updated_bias1.s2.v248.v248(%rip), %rsi
	leaq	6512(%rsp), %r8
	xorl	%edi, %edi
	xorl	%edx, %edx
	movl	$4, %ecx
	callq	_halide_do_par_for
	testl	%eax, %eax
	jne	LBB0_352
## %bb.215:                             ## %"assert succeeded527"
	movl	%r14d, 6536(%rsp)
	movq	%r15, 6544(%rsp)
	movq	%r12, 6552(%rsp)
	leaq	_train_cost_model.par_for.updated_bias1.s3.v248.v248(%rip), %rsi
	leaq	6536(%rsp), %r8
	xorl	%edi, %edi
	xorl	%edx, %edx
	movl	$4, %ecx
	callq	_halide_do_par_for
	testl	%eax, %eax
	jne	LBB0_270
## %bb.216:                             ## %"assert succeeded529"
	vmovss	244(%rsp), %xmm0                ## 4-byte Reload
                                        ## xmm0 = mem[0],zero,zero,zero
	vmovss	%xmm0, 5600(%rsp)
	vmovss	112(%rsp), %xmm0                ## 4-byte Reload
                                        ## xmm0 = mem[0],zero,zero,zero
	vmovss	%xmm0, 5604(%rsp)
	vmovaps	80(%rsp), %xmm0                 ## 16-byte Reload
	vmovss	%xmm0, 5608(%rsp)
	movl	%r14d, 5612(%rsp)
	movq	1192(%rsp), %rax                ## 8-byte Reload
	movq	%rax, 5616(%rsp)
	movq	48(%rbp), %rax
	movq	%rax, 5624(%rsp)
	movq	%r15, 5632(%rsp)
	movq	%r12, 5640(%rsp)
	leaq	_train_cost_model.par_for.updated_bias1.s4.v248.v248(%rip), %rsi
	leaq	5600(%rsp), %r8
	xorl	%edi, %edi
	xorl	%edx, %edx
	movl	$4, %ecx
	callq	_halide_do_par_for
	testl	%eax, %eax
	jne	LBB0_270
## %bb.217:                             ## %"consume f1532"
	movl	1340(%rsp), %eax                ## 4-byte Reload
	andnl	848(%rsp), %eax, %eax           ## 4-byte Folded Reload
	movq	832(%rsp), %rdx                 ## 8-byte Reload
	leal	7(%rdx), %ecx
	sarl	$3, %ecx
	movl	%edx, 6560(%rsp)
	sarl	$3, %edx
	movl	%edx, 6564(%rsp)
	movl	%eax, 6568(%rsp)
	movq	56(%rsp), %rax                  ## 8-byte Reload
	movq	%rax, 6576(%rsp)
	movq	$0, 6584(%rsp)
	movq	1472(%rsp), %rax                ## 8-byte Reload
	movq	%rax, 6592(%rsp)
	movq	128(%rbp), %rax
	movq	%rax, 6600(%rsp)
	leaq	_train_cost_model.par_for.prediction_output.s0.n.n(%rip), %rsi
	leaq	6560(%rsp), %r8
	xorl	%edi, %edi
	xorl	%edx, %edx
	callq	_halide_do_par_for
	testl	%eax, %eax
	movl	264(%rsp), %ebx                 ## 4-byte Reload
	movl	160(%rsp), %r14d                ## 4-byte Reload
	jne	LBB0_270
## %bb.218:                             ## %"assert succeeded534"
	movq	184(%rsp), %rdx                 ## 8-byte Reload
	movl	%edx, %eax
	shlq	$2, %rdx
	cmpl	$536870912, %eax                ## imm = 0x20000000
	jae	LBB0_354
## %bb.219:                             ## %"assert succeeded536"
	addq	$12, %rdx
	xorl	%edi, %edi
	movq	%rdx, %rsi
	callq	_halide_malloc
	testq	%rax, %rax
	je	LBB0_355
## %bb.220:                             ## %"assert succeeded538"
	movq	%rax, %r15
	movq	136(%rsp), %r13                 ## 8-byte Reload
	movl	%r13d, 1872(%rsp)
	movl	144(%rsp), %r12d                ## 4-byte Reload
	movl	%r12d, 1876(%rsp)
	movq	%rax, 1880(%rsp)
	movq	$0, 1888(%rsp)
	leaq	_train_cost_model.par_for.sum.s0.n.n(%rip), %rsi
	leaq	1872(%rsp), %r8
	xorl	%edi, %edi
	xorl	%edx, %edx
	movl	%r14d, %ecx
	callq	_halide_do_par_for
	testl	%eax, %eax
	jne	LBB0_284
## %bb.221:                             ## %"consume conv1_stage2541"
	movl	%r13d, 5944(%rsp)
	movl	%ebx, 5948(%rsp)
	movq	120(%rsp), %rax                 ## 8-byte Reload
	movl	%eax, 5952(%rsp)
	movl	%r12d, 5956(%rsp)
	movq	232(%rsp), %r12                 ## 8-byte Reload
	movl	%r12d, 5960(%rsp)
	movq	168(%rsp), %rbx                 ## 8-byte Reload
	movq	%rbx, 5968(%rsp)
	movq	$0, 5976(%rsp)
	movq	%r15, 5984(%rsp)
	movq	$0, 5992(%rsp)
	leaq	_train_cost_model.par_for.sum.s1.n.n(%rip), %rsi
	leaq	5944(%rsp), %r8
	xorl	%edi, %edi
	xorl	%edx, %edx
	movl	%r14d, %ecx
	callq	_halide_do_par_for
	testl	%eax, %eax
	jne	LBB0_284
## %bb.222:                             ## %call_destructor.exit834
	xorl	%r14d, %r14d
	xorl	%edi, %edi
	movq	%rbx, %rsi
	callq	_halide_free
	movl	$0, 7040(%rsp)
	testl	%r13d, %r13d
	movq	56(%rsp), %rsi                  ## 8-byte Reload
	jle	LBB0_234
## %bb.223:                             ## %"for sum$1.s1.r87$x.preheader"
	movslq	1128(%rsp), %r9                 ## 4-byte Folded Reload
	movslq	472(%rsp), %rcx                 ## 4-byte Folded Reload
	movslq	%r12d, %r8
	vmovss	LCPI0_88(%rip), %xmm0           ## xmm0 = mem[0],zero,zero,zero
	movq	1200(%rsp), %rax                ## 8-byte Reload
	vdivss	(%rax,%rcx,4), %xmm0, %xmm0
	movl	%r13d, %r11d
	cmpl	$8, %r13d
	jae	LBB0_225
## %bb.224:
	vxorps	%xmm1, %xmm1, %xmm1
	xorl	%ecx, %ecx
	jmp	LBB0_231
LBB0_225:                               ## %vector.ph
	movl	%r11d, %ecx
	andl	$-8, %ecx
	vbroadcastss	%xmm0, %ymm1
	leaq	-8(%rcx), %rdx
	movq	%rdx, %r10
	shrq	$3, %r10
	incq	%r10
	testq	%rdx, %rdx
	je	LBB0_263
## %bb.226:                             ## %vector.ph.new
	leaq	(,%r9,4), %rsi
	movq	%rax, %rdx
	subq	%rsi, %rdx
	addq	$32, %rdx
	leaq	(,%r8,4), %rdi
	movq	56(%rsp), %rsi                  ## 8-byte Reload
	subq	%rdi, %rsi
	addq	$32, %rsi
	movq	%r10, %rdi
	andq	$-2, %rdi
	negq	%rdi
	vxorps	%xmm2, %xmm2, %xmm2
	xorl	%ebx, %ebx
	vbroadcastss	LCPI0_97(%rip), %ymm3   ## ymm3 = [1.00000001E-10,1.00000001E-10,1.00000001E-10,1.00000001E-10,1.00000001E-10,1.00000001E-10,1.00000001E-10,1.00000001E-10]
	vbroadcastss	LCPI0_88(%rip), %ymm4   ## ymm4 = [1.0E+0,1.0E+0,1.0E+0,1.0E+0,1.0E+0,1.0E+0,1.0E+0,1.0E+0]
	vbroadcastss	LCPI0_98(%rip), %ymm5   ## ymm5 = [9.99999974E-6,9.99999974E-6,9.99999974E-6,9.99999974E-6,9.99999974E-6,9.99999974E-6,9.99999974E-6,9.99999974E-6]
	.p2align	4, 0x90
LBB0_227:                               ## %vector.body
                                        ## =>This Inner Loop Header: Depth=1
	vmulps	-32(%rsi,%rbx,4), %ymm1, %ymm6
	vmaxps	%ymm3, %ymm6, %ymm6
	vdivps	%ymm6, %ymm4, %ymm6
	vmulps	-32(%rdx,%rbx,4), %ymm1, %ymm7
	vdivps	%ymm7, %ymm4, %ymm7
	vmulps	(%rsi,%rbx,4), %ymm1, %ymm8
	vmaxps	%ymm3, %ymm8, %ymm8
	vdivps	%ymm8, %ymm4, %ymm8
	vsubps	%ymm7, %ymm6, %ymm6
	vmulps	(%rdx,%rbx,4), %ymm1, %ymm7
	vfmadd213ps	%ymm2, %ymm6, %ymm6     ## ymm6 = (ymm6 * ymm6) + ymm2
	vdivps	%ymm7, %ymm4, %ymm2
	vfmadd231ps	(%r15,%rbx,4), %ymm5, %ymm6 ## ymm6 = (ymm5 * mem) + ymm6
	vsubps	%ymm2, %ymm8, %ymm2
	vfmadd213ps	%ymm6, %ymm2, %ymm2     ## ymm2 = (ymm2 * ymm2) + ymm6
	vfmadd231ps	32(%r15,%rbx,4), %ymm5, %ymm2 ## ymm2 = (ymm5 * mem) + ymm2
	addq	$16, %rbx
	addq	$2, %rdi
	jne	LBB0_227
## %bb.228:                             ## %middle.block.unr-lcssa
	testb	$1, %r10b
	movq	56(%rsp), %rsi                  ## 8-byte Reload
	je	LBB0_230
LBB0_229:                               ## %vector.body.epil
	movq	%rbx, %rdx
	subq	%r8, %rdx
	vmulps	(%rsi,%rdx,4), %ymm1, %ymm3
	vbroadcastss	LCPI0_97(%rip), %ymm4   ## ymm4 = [1.00000001E-10,1.00000001E-10,1.00000001E-10,1.00000001E-10,1.00000001E-10,1.00000001E-10,1.00000001E-10,1.00000001E-10]
	vmaxps	%ymm4, %ymm3, %ymm3
	vbroadcastss	LCPI0_88(%rip), %ymm4   ## ymm4 = [1.0E+0,1.0E+0,1.0E+0,1.0E+0,1.0E+0,1.0E+0,1.0E+0,1.0E+0]
	vdivps	%ymm3, %ymm4, %ymm3
	movq	%rbx, %rdx
	subq	%r9, %rdx
	vmulps	(%rax,%rdx,4), %ymm1, %ymm1
	vdivps	%ymm1, %ymm4, %ymm1
	vsubps	%ymm1, %ymm3, %ymm1
	vbroadcastss	LCPI0_98(%rip), %ymm3   ## ymm3 = [9.99999974E-6,9.99999974E-6,9.99999974E-6,9.99999974E-6,9.99999974E-6,9.99999974E-6,9.99999974E-6,9.99999974E-6]
	vfmadd213ps	%ymm2, %ymm1, %ymm1     ## ymm1 = (ymm1 * ymm1) + ymm2
	vfmadd231ps	(%r15,%rbx,4), %ymm3, %ymm1 ## ymm1 = (ymm3 * mem) + ymm1
	vmovaps	%ymm1, %ymm2
LBB0_230:                               ## %middle.block
	vextractf128	$1, %ymm2, %xmm1
	vaddps	%xmm1, %xmm2, %xmm1
	vpermilpd	$1, %xmm1, %xmm2        ## xmm2 = xmm1[1,0]
	vaddps	%xmm2, %xmm1, %xmm1
	vmovshdup	%xmm1, %xmm2            ## xmm2 = xmm1[1,1,3,3]
	vaddss	%xmm2, %xmm1, %xmm1
	cmpq	%r11, %rcx
	je	LBB0_233
LBB0_231:                               ## %"for sum$1.s1.r87$x.preheader1288"
	shlq	$2, %r9
	subq	%r9, %rax
	shlq	$2, %r8
	movq	%rsi, %rdx
	subq	%r8, %rdx
	vmovss	LCPI0_97(%rip), %xmm2           ## xmm2 = mem[0],zero,zero,zero
	vbroadcastss	LCPI0_88(%rip), %xmm3   ## xmm3 = [1.0E+0,1.0E+0,1.0E+0,1.0E+0]
	vmovss	LCPI0_98(%rip), %xmm4           ## xmm4 = mem[0],zero,zero,zero
	vmovaps	%xmm1, %xmm5
	.p2align	4, 0x90
LBB0_232:                               ## %"for sum$1.s1.r87$x"
                                        ## =>This Inner Loop Header: Depth=1
	vmulss	(%rdx,%rcx,4), %xmm0, %xmm1
	vmaxss	%xmm2, %xmm1, %xmm1
	vmulss	(%rax,%rcx,4), %xmm0, %xmm6
	vinsertps	$16, %xmm6, %xmm1, %xmm1 ## xmm1 = xmm1[0],xmm6[0],xmm1[2,3]
	vdivps	%xmm1, %xmm3, %xmm1
	vmovshdup	%xmm1, %xmm6            ## xmm6 = xmm1[1,1,3,3]
	vsubss	%xmm6, %xmm1, %xmm1
	vfmadd213ss	%xmm5, %xmm1, %xmm1     ## xmm1 = (xmm1 * xmm1) + xmm5
	vfmadd231ss	(%r15,%rcx,4), %xmm4, %xmm1 ## xmm1 = (xmm4 * mem) + xmm1
	incq	%rcx
	vmovaps	%xmm1, %xmm5
	cmpq	%rcx, %r11
	jne	LBB0_232
LBB0_233:                               ## %"end for sum$1.s1.r87$x.thread.loopexit"
	vmovss	%xmm1, 7040(%rsp)
LBB0_234:                               ## %call_destructor.exit836
	xorl	%edi, %edi
	vzeroupper
	callq	_halide_free
	xorl	%edi, %edi
	movq	%r15, %rsi
	callq	_halide_free
	vmovss	7040(%rsp), %xmm0               ## xmm0 = mem[0],zero,zero,zero
	movq	1480(%rsp), %rax                ## 8-byte Reload
	vmovss	%xmm0, (%rax)
LBB0_235:
	xorl	%eax, %eax
	movq	%rax, 32(%rsp)                  ## 8-byte Spill
LBB0_236:                               ## %call_destructor.exit750.thread972
	xorl	%edx, %edx
	xorl	%eax, %eax
	movq	%rax, 24(%rsp)                  ## 8-byte Spill
	xorl	%eax, %eax
	movq	%rax, 80(%rsp)                  ## 8-byte Spill
	xorl	%eax, %eax
	movq	%rax, 40(%rsp)                  ## 8-byte Spill
	xorl	%ecx, %ecx
	xorl	%eax, %eax
	movq	%rax, 168(%rsp)                 ## 8-byte Spill
	xorl	%eax, %eax
	movq	%rax, 128(%rsp)                 ## 8-byte Spill
	xorl	%esi, %esi
	xorl	%r12d, %r12d
	xorl	%eax, %eax
	movq	%rax, 200(%rsp)                 ## 8-byte Spill
LBB0_237:                               ## %call_destructor.exit750.thread972
	movq	%rcx, 56(%rsp)                  ## 8-byte Spill
	testl	%r14d, %r14d
	setne	%r15b
	movq	%rsi, %r13
	testb	%r15b, %r15b
	je	LBB0_240
LBB0_238:                               ## %call_destructor.exit751
	cmpq	$0, 32(%rsp)                    ## 8-byte Folded Reload
	je	LBB0_240
## %bb.239:
	xorl	%edi, %edi
	movq	32(%rsp), %rsi                  ## 8-byte Reload
	movq	%rdx, %rbx
	vzeroupper
	callq	_halide_free
	movq	%rbx, %rdx
LBB0_240:                               ## %call_destructor.exit752
	testq	%rdx, %rdx
	sete	%al
	movl	%r15d, %ebx
	xorb	$1, %bl
	orb	%bl, %al
	jne	LBB0_242
## %bb.241:
	xorl	%edi, %edi
	movq	%rdx, %rsi
	vzeroupper
	callq	_halide_free
LBB0_242:                               ## %call_destructor.exit753
	movq	24(%rsp), %rsi                  ## 8-byte Reload
	testq	%rsi, %rsi
	sete	%al
	orb	%bl, %al
	jne	LBB0_244
## %bb.243:
	xorl	%edi, %edi
	vzeroupper
	callq	_halide_free
LBB0_244:                               ## %call_destructor.exit754
	movq	80(%rsp), %rsi                  ## 8-byte Reload
	testq	%rsi, %rsi
	sete	%al
	orb	%bl, %al
	jne	LBB0_246
## %bb.245:
	xorl	%edi, %edi
	vzeroupper
	callq	_halide_free
LBB0_246:                               ## %call_destructor.exit755
	movq	40(%rsp), %rsi                  ## 8-byte Reload
	testq	%rsi, %rsi
	sete	%al
	orb	%al, %bl
	jne	LBB0_248
LBB0_247:                               ## %call_destructor.exit756.sink.split
	xorl	%edi, %edi
	vzeroupper
	callq	_halide_free
	movb	$1, %r15b
LBB0_248:                               ## %call_destructor.exit756
	movq	56(%rsp), %rsi                  ## 8-byte Reload
	testq	%rsi, %rsi
	je	LBB0_251
## %bb.249:                             ## %call_destructor.exit756
	testb	%r15b, %r15b
	je	LBB0_251
## %bb.250:
	xorl	%edi, %edi
	vzeroupper
	callq	_halide_free
LBB0_251:                               ## %call_destructor.exit757
	movq	168(%rsp), %rsi                 ## 8-byte Reload
	testq	%rsi, %rsi
	sete	%al
	xorb	$1, %r15b
	orb	%r15b, %al
	jne	LBB0_253
## %bb.252:
	xorl	%edi, %edi
	vzeroupper
	callq	_halide_free
LBB0_253:                               ## %call_destructor.exit758
	movq	128(%rsp), %rsi                 ## 8-byte Reload
	testq	%rsi, %rsi
	sete	%al
	orb	%r15b, %al
	jne	LBB0_254
## %bb.261:
	xorl	%edi, %edi
	vzeroupper
	callq	_halide_free
	testq	%r13, %r13
	sete	%al
	orb	%r15b, %al
	je	LBB0_262
LBB0_255:                               ## %call_destructor.exit760
	testq	%r12, %r12
	sete	%al
	orb	%r15b, %al
	jne	LBB0_257
LBB0_256:
	xorl	%edi, %edi
	movq	%r12, %rsi
	vzeroupper
	callq	_halide_free
LBB0_257:                               ## %call_destructor.exit761
	movq	200(%rsp), %rsi                 ## 8-byte Reload
	testq	%rsi, %rsi
	sete	%al
	orb	%r15b, %al
	jne	LBB0_259
## %bb.258:
	xorl	%edi, %edi
	vzeroupper
	callq	_halide_free
LBB0_259:                               ## %call_destructor.exit762
	movl	%r14d, %eax
LBB0_260:                               ## %call_destructor.exit762
	leaq	-40(%rbp), %rsp
	popq	%rbx
	popq	%r12
	popq	%r13
	popq	%r14
	popq	%r15
	popq	%rbp
	vzeroupper
	retq
LBB0_254:                               ## %call_destructor.exit759
	testq	%r13, %r13
	sete	%al
	orb	%r15b, %al
	jne	LBB0_255
LBB0_262:
	xorl	%edi, %edi
	movq	%r13, %rsi
	vzeroupper
	callq	_halide_free
	testq	%r12, %r12
	sete	%al
	orb	%r15b, %al
	je	LBB0_256
	jmp	LBB0_257
LBB0_72:                                ## %after_bb62
	movq	40(%r12), %rax
	vxorps	%xmm0, %xmm0, %xmm0
	vmovups	%xmm0, (%r12)
	movq	$0, 16(%r12)
	movabsq	$12884975618, %rcx              ## imm = 0x300012002
	movq	%rcx, 32(%r12)
	vmovaps	LCPI0_10(%rip), %xmm0           ## xmm0 = [0,24,1,0]
	vmovups	%xmm0, (%rax)
	movq	40(%r12), %rax
	vmovaps	LCPI0_21(%rip), %xmm0           ## xmm0 = [0,39,24,0]
	vmovups	%xmm0, 16(%rax)
	movq	40(%r12), %rax
	vmovaps	LCPI0_22(%rip), %xmm0           ## xmm0 = [0,4,936,0]
	vmovups	%xmm0, 32(%rax)
	movq	120(%rbp), %rax
	movq	$0, 24(%r12)
	cmpq	$0, 16(%r12)
	jne	LBB0_53
	jmp	LBB0_56
LBB0_263:
	vxorps	%xmm2, %xmm2, %xmm2
	xorl	%ebx, %ebx
	testb	$1, %r10b
	movq	56(%rsp), %rsi                  ## 8-byte Reload
	jne	LBB0_229
	jmp	LBB0_230
LBB0_264:
	movl	%eax, %r14d
LBB0_265:
	xorl	%eax, %eax
	movq	%rax, 32(%rsp)                  ## 8-byte Spill
	xorl	%edx, %edx
	xorl	%eax, %eax
	movq	%rax, 24(%rsp)                  ## 8-byte Spill
	jmp	LBB0_329
LBB0_345:
	movl	%eax, %r14d
	xorl	%eax, %eax
	movq	%rax, 40(%rsp)                  ## 8-byte Spill
	xorl	%edi, %edi
	movq	216(%rsp), %rsi                 ## 8-byte Reload
	jmp	LBB0_347
LBB0_266:
	xorl	%ecx, %ecx
	movq	%rcx, 64(%rsp)                  ## 8-byte Spill
	xorl	%ecx, %ecx
	movq	%rcx, 48(%rsp)                  ## 8-byte Spill
LBB0_267:
	movl	%eax, %r14d
	xorl	%eax, %eax
	movq	%rax, 40(%rsp)                  ## 8-byte Spill
	xorl	%edi, %edi
	movq	24(%rsp), %rsi                  ## 8-byte Reload
LBB0_347:                               ## %call_destructor.exit751
	callq	_halide_free
	movb	$1, %r15b
	xorl	%eax, %eax
	movq	%rax, 80(%rsp)                  ## 8-byte Spill
	xorl	%eax, %eax
	movq	%rax, 24(%rsp)                  ## 8-byte Spill
	movq	48(%rsp), %r12                  ## 8-byte Reload
	movq	64(%rsp), %rsi                  ## 8-byte Reload
	movq	104(%rsp), %rdx                 ## 8-byte Reload
	movq	%rsi, %r13
	testb	%r15b, %r15b
	jne	LBB0_238
	jmp	LBB0_240
LBB0_268:
	xorl	%ecx, %ecx
	movq	%rcx, 24(%rsp)                  ## 8-byte Spill
	xorl	%ecx, %ecx
	movq	%rcx, 80(%rsp)                  ## 8-byte Spill
	xorl	%ecx, %ecx
	movq	%rcx, 40(%rsp)                  ## 8-byte Spill
	xorl	%esi, %esi
	xorl	%r12d, %r12d
	movl	%eax, %r14d
	movq	56(%rsp), %rcx                  ## 8-byte Reload
	movq	104(%rsp), %rdx                 ## 8-byte Reload
	jmp	LBB0_237
LBB0_269:
	xorl	%ecx, %ecx
	movq	%rcx, 24(%rsp)                  ## 8-byte Spill
	xorl	%ecx, %ecx
	movq	%rcx, 80(%rsp)                  ## 8-byte Spill
	xorl	%ecx, %ecx
	movq	%rcx, 40(%rsp)                  ## 8-byte Spill
	xorl	%ecx, %ecx
	movq	%rcx, 128(%rsp)                 ## 8-byte Spill
	xorl	%esi, %esi
	xorl	%r12d, %r12d
	xorl	%ecx, %ecx
	movq	%rcx, 200(%rsp)                 ## 8-byte Spill
	movl	%eax, %r14d
	movq	56(%rsp), %rcx                  ## 8-byte Reload
	xorl	%edx, %edx
	jmp	LBB0_237
LBB0_270:
	xorl	%ecx, %ecx
	movq	%rcx, 32(%rsp)                  ## 8-byte Spill
	jmp	LBB0_356
LBB0_271:                               ## %entry
	leaq	LJTI0_0(%rip), %rcx
	movslq	(%rcx,%rax,4), %rax
	addq	%rcx, %rax
	jmpq	*%rax
LBB0_272:                               ## %assert_failed
	leaq	l_str(%rip), %rsi
	jmp	LBB0_376
LBB0_273:
	movl	%eax, %r14d
	xorl	%eax, %eax
	movq	%rax, 32(%rsp)                  ## 8-byte Spill
	jmp	LBB0_297
LBB0_274:                               ## %"assert failed312"
	leaq	l_str.114(%rip), %rsi
	xorl	%eax, %eax
	movq	%rax, 32(%rsp)                  ## 8-byte Spill
	movl	$2147483647, %ecx               ## imm = 0x7FFFFFFF
	xorl	%edi, %edi
	callq	_halide_error_buffer_allocation_too_large
	jmp	LBB0_296
LBB0_275:                               ## %"assert failed318"
	movq	1048(%rsp), %rdx                ## 8-byte Reload
	leal	1(%rdx), %ecx
	xorl	%esi, %esi
	testl	%edx, %edx
	movl	$0, %edx
	movq	%rdx, 32(%rsp)                  ## 8-byte Spill
	cmovsl	%esi, %ecx
	imulq	%rcx, %rax
	shlq	$5, %rax
	leaq	(%rax,%rax,2), %rdx
	leaq	l_str.115(%rip), %rsi
	movl	$2147483647, %ecx               ## imm = 0x7FFFFFFF
	xorl	%edi, %edi
	callq	_halide_error_buffer_allocation_too_large
	jmp	LBB0_300
LBB0_276:
	movl	%eax, %r14d
	xorl	%eax, %eax
	movq	%rax, 32(%rsp)                  ## 8-byte Spill
	jmp	LBB0_304
LBB0_277:                               ## %"assert failed326"
	leaq	l_str.116(%rip), %rsi
	xorl	%eax, %eax
	movq	%rax, 32(%rsp)                  ## 8-byte Spill
	movl	$2147483647, %ecx               ## imm = 0x7FFFFFFF
	xorl	%edi, %edi
	callq	_halide_error_buffer_allocation_too_large
	jmp	LBB0_303
LBB0_278:                               ## %"assert failed332"
	movq	1048(%rsp), %rcx                ## 8-byte Reload
	leal	1(%rcx), %edx
	xorl	%esi, %esi
	testl	%ecx, %ecx
	movl	$0, %ecx
	movq	%rcx, 32(%rsp)                  ## 8-byte Spill
	cmovsl	%esi, %edx
	imulq	%rax, %rdx
	shlq	$7, %rdx
	leaq	l_str.117(%rip), %rsi
	movl	$2147483647, %ecx               ## imm = 0x7FFFFFFF
	xorl	%edi, %edi
	callq	_halide_error_buffer_allocation_too_large
	jmp	LBB0_307
LBB0_279:
	movl	%eax, %r14d
	xorl	%eax, %eax
	movq	%rax, 32(%rsp)                  ## 8-byte Spill
	jmp	LBB0_312
LBB0_280:                               ## %"assert failed348"
	imulq	%rax, %rdx
	leaq	l_str.119(%rip), %rsi
	xorl	%eax, %eax
	movq	%rax, 32(%rsp)                  ## 8-byte Spill
	movl	$2147483647, %ecx               ## imm = 0x7FFFFFFF
	xorl	%edi, %edi
	callq	_halide_error_buffer_allocation_too_large
	jmp	LBB0_316
LBB0_281:                               ## %"assert failed354"
	imulq	%rbx, %rdx
	leaq	l_str.121(%rip), %rsi
	xorl	%eax, %eax
	movq	%rax, 32(%rsp)                  ## 8-byte Spill
	movl	$2147483647, %ecx               ## imm = 0x7FFFFFFF
	xorl	%edi, %edi
	callq	_halide_error_buffer_allocation_too_large
	jmp	LBB0_319
LBB0_282:                               ## %"assert failed447"
	imulq	%rdx, %r15
	leaq	l_str.123(%rip), %rsi
	xorl	%eax, %eax
	movq	%rax, 32(%rsp)                  ## 8-byte Spill
	movl	$2147483647, %ecx               ## imm = 0x7FFFFFFF
	xorl	%edi, %edi
	movq	%r15, %rdx
	callq	_halide_error_buffer_allocation_too_large
	jmp	LBB0_326
LBB0_283:                               ## %"assert failed479"
	imulq	184(%rsp), %rdx                 ## 8-byte Folded Reload
	leaq	l_str.126(%rip), %rsi
	xorl	%eax, %eax
	movq	%rax, 24(%rsp)                  ## 8-byte Spill
	movl	$2147483647, %ecx               ## imm = 0x7FFFFFFF
	xorl	%edi, %edi
	vzeroupper
	callq	_halide_error_buffer_allocation_too_large
	jmp	LBB0_336
LBB0_284:
	xorl	%ecx, %ecx
	movq	%rcx, 128(%rsp)                 ## 8-byte Spill
	xorl	%r13d, %r13d
	xorl	%r12d, %r12d
	xorl	%ecx, %ecx
	movq	%rcx, 200(%rsp)                 ## 8-byte Spill
	movl	%eax, %r14d
	movq	%r15, %rsi
	jmp	LBB0_247
LBB0_285:                               ## %then_bb66
	movl	%edi, 120(%rsp)                 ## 4-byte Spill
	movl	1216(%rsp), %r13d               ## 4-byte Reload
	movl	1220(%rsp), %r12d               ## 4-byte Reload
	movl	1224(%rsp), %r15d               ## 4-byte Reload
	movl	1232(%rsp), %r14d               ## 4-byte Reload
	movl	1240(%rsp), %r11d               ## 4-byte Reload
	movl	1244(%rsp), %r10d               ## 4-byte Reload
	movl	1248(%rsp), %r8d                ## 4-byte Reload
	movl	1252(%rsp), %ebx                ## 4-byte Reload
	movl	1256(%rsp), %r9d                ## 4-byte Reload
	movl	1260(%rsp), %edi                ## 4-byte Reload
	movl	1264(%rsp), %esi                ## 4-byte Reload
	movq	544(%rsp), %rcx                 ## 8-byte Reload
	leaq	LJTI0_1(%rip), %rdx
	movslq	(%rdx,%rax,4), %rax
	addq	%rdx, %rax
	jmpq	*%rax
LBB0_286:                               ## %assert_failed69
	leaq	l_str.20(%rip), %rsi
	xorl	%edi, %edi
	movl	1040(%rsp), %edx                ## 4-byte Reload
	jmp	LBB0_461
LBB0_287:                               ## %no_errors_bb68
	movl	352(%rsp), %ecx                 ## 4-byte Reload
	movl	356(%rsp), %r13d                ## 4-byte Reload
	movl	360(%rsp), %r12d                ## 4-byte Reload
	movl	364(%rsp), %r15d                ## 4-byte Reload
	movl	368(%rsp), %r14d                ## 4-byte Reload
	movl	372(%rsp), %r11d                ## 4-byte Reload
	movl	376(%rsp), %r10d                ## 4-byte Reload
	movl	380(%rsp), %r8d                 ## 4-byte Reload
	movl	384(%rsp), %ebx                 ## 4-byte Reload
	movl	388(%rsp), %r9d                 ## 4-byte Reload
	movl	392(%rsp), %edi                 ## 4-byte Reload
	movq	544(%rsp), %rdx                 ## 8-byte Reload
	leaq	LJTI0_2(%rip), %rsi
	movslq	(%rsi,%rax,4), %rax
	addq	%rsi, %rax
	jmpq	*%rax
LBB0_288:                               ## %assert_failed133
	leaq	l_str.28(%rip), %rsi
	xorl	%edi, %edi
	xorl	%edx, %edx
	movq	208(%rsp), %rcx                 ## 8-byte Reload
                                        ## kill: def $ecx killed $ecx killed $rcx
	vzeroupper
	callq	_halide_error_buffer_extents_negative
	jmp	LBB0_260
LBB0_289:                               ## %no_errors_bb132
	leaq	LJTI0_3(%rip), %rcx
	movslq	(%rcx,%rax,4), %rax
	addq	%rcx, %rax
	jmpq	*%rax
LBB0_290:                               ## %assert_failed197
	leaq	l_str.67(%rip), %rsi
	leaq	l_str.39(%rip), %rcx
	xorl	%edi, %edi
	movq	344(%rsp), %rdx                 ## 8-byte Reload
	jmp	LBB0_557
LBB0_291:                               ## %no_errors_bb196
	movq	640(%rsp), %r13                 ## 8-byte Reload
	movq	648(%rsp), %r12                 ## 8-byte Reload
	movq	656(%rsp), %r15                 ## 8-byte Reload
	movq	664(%rsp), %r14                 ## 8-byte Reload
	movq	672(%rsp), %r11                 ## 8-byte Reload
	movq	1360(%rsp), %r10                ## 8-byte Reload
	movq	680(%rsp), %r9                  ## 8-byte Reload
	movq	688(%rsp), %r8                  ## 8-byte Reload
	movq	696(%rsp), %rbx                 ## 8-byte Reload
	movq	704(%rsp), %rdx                 ## 8-byte Reload
	leaq	LJTI0_4(%rip), %rcx
	movslq	(%rcx,%rax,4), %rax
	addq	%rcx, %rax
	jmpq	*%rax
LBB0_292:                               ## %assert_failed242
	leaq	l_str.17(%rip), %rsi
	movl	$2147483647, %ecx               ## imm = 0x7FFFFFFF
	xorl	%edi, %edi
	movq	%r14, %rdx
	vzeroupper
	callq	_halide_error_buffer_allocation_too_large
	jmp	LBB0_260
LBB0_293:                               ## %"assert failed304"
	leaq	l_str.113(%rip), %rsi
	xorl	%eax, %eax
	movq	%rax, 32(%rsp)                  ## 8-byte Spill
	movl	$2147483647, %ecx               ## imm = 0x7FFFFFFF
	xorl	%edi, %edi
	callq	_halide_error_buffer_allocation_too_large
	jmp	LBB0_359
LBB0_294:                               ## %"assert failed306"
	xorl	%eax, %eax
	movq	%rax, 32(%rsp)                  ## 8-byte Spill
	xorl	%edi, %edi
	callq	_halide_error_out_of_memory
	jmp	LBB0_359
LBB0_295:                               ## %"assert failed314"
	xorl	%eax, %eax
	movq	%rax, 32(%rsp)                  ## 8-byte Spill
	xorl	%edi, %edi
	callq	_halide_error_out_of_memory
LBB0_296:                               ## %call_destructor.exit750.thread972
	movl	%eax, %r14d
LBB0_297:                               ## %call_destructor.exit750.thread972
	xorl	%edx, %edx
	xorl	%eax, %eax
	movq	%rax, 24(%rsp)                  ## 8-byte Spill
	xorl	%eax, %eax
	movq	%rax, 80(%rsp)                  ## 8-byte Spill
	xorl	%eax, %eax
	movq	%rax, 40(%rsp)                  ## 8-byte Spill
	xorl	%ecx, %ecx
	xorl	%eax, %eax
	movq	%rax, 168(%rsp)                 ## 8-byte Spill
	xorl	%eax, %eax
	movq	%rax, 128(%rsp)                 ## 8-byte Spill
	xorl	%esi, %esi
	xorl	%r12d, %r12d
	jmp	LBB0_237
LBB0_298:
	movl	%eax, %r14d
	xorl	%eax, %eax
	movq	%rax, 32(%rsp)                  ## 8-byte Spill
	jmp	LBB0_301
LBB0_299:                               ## %"assert failed320"
	xorl	%eax, %eax
	movq	%rax, 32(%rsp)                  ## 8-byte Spill
	xorl	%edi, %edi
	callq	_halide_error_out_of_memory
LBB0_300:                               ## %call_destructor.exit750.thread972
	movl	%eax, %r14d
LBB0_301:                               ## %call_destructor.exit750.thread972
	xorl	%edx, %edx
	xorl	%eax, %eax
	movq	%rax, 24(%rsp)                  ## 8-byte Spill
	xorl	%eax, %eax
	movq	%rax, 80(%rsp)                  ## 8-byte Spill
	xorl	%eax, %eax
	movq	%rax, 40(%rsp)                  ## 8-byte Spill
	xorl	%ecx, %ecx
	xorl	%eax, %eax
	movq	%rax, 168(%rsp)                 ## 8-byte Spill
	xorl	%eax, %eax
	movq	%rax, 128(%rsp)                 ## 8-byte Spill
	xorl	%esi, %esi
	movq	48(%rsp), %r12                  ## 8-byte Reload
	jmp	LBB0_237
LBB0_302:                               ## %"assert failed328"
	xorl	%eax, %eax
	movq	%rax, 32(%rsp)                  ## 8-byte Spill
	xorl	%edi, %edi
	callq	_halide_error_out_of_memory
LBB0_303:                               ## %call_destructor.exit750.thread972
	movl	%eax, %r14d
LBB0_304:                               ## %call_destructor.exit750.thread972
	xorl	%edx, %edx
	xorl	%eax, %eax
	movq	%rax, 24(%rsp)                  ## 8-byte Spill
	xorl	%eax, %eax
	movq	%rax, 80(%rsp)                  ## 8-byte Spill
	xorl	%eax, %eax
	movq	%rax, 40(%rsp)                  ## 8-byte Spill
	xorl	%ecx, %ecx
	xorl	%eax, %eax
	movq	%rax, 168(%rsp)                 ## 8-byte Spill
	xorl	%eax, %eax
	movq	%rax, 128(%rsp)                 ## 8-byte Spill
	jmp	LBB0_330
LBB0_305:
	movl	%eax, %r14d
	xorl	%eax, %eax
	movq	%rax, 32(%rsp)                  ## 8-byte Spill
	jmp	LBB0_308
LBB0_306:                               ## %"assert failed334"
	xorl	%eax, %eax
	movq	%rax, 32(%rsp)                  ## 8-byte Spill
	xorl	%edi, %edi
	callq	_halide_error_out_of_memory
LBB0_307:                               ## %call_destructor.exit750.thread972
	movl	%eax, %r14d
LBB0_308:                               ## %call_destructor.exit750.thread972
	xorl	%edx, %edx
	xorl	%eax, %eax
	movq	%rax, 24(%rsp)                  ## 8-byte Spill
	xorl	%eax, %eax
	movq	%rax, 80(%rsp)                  ## 8-byte Spill
	xorl	%eax, %eax
	movq	%rax, 40(%rsp)                  ## 8-byte Spill
	xorl	%ecx, %ecx
	xorl	%eax, %eax
	movq	%rax, 168(%rsp)                 ## 8-byte Spill
	jmp	LBB0_330
LBB0_309:                               ## %"assert failed340"
	leaq	l_str.118(%rip), %rsi
	xorl	%eax, %eax
	movq	%rax, 32(%rsp)                  ## 8-byte Spill
	movl	$2147483647, %ecx               ## imm = 0x7FFFFFFF
	xorl	%edi, %edi
	callq	_halide_error_buffer_allocation_too_large
	jmp	LBB0_311
LBB0_310:                               ## %"assert failed342"
	xorl	%eax, %eax
	movq	%rax, 32(%rsp)                  ## 8-byte Spill
	xorl	%edi, %edi
	callq	_halide_error_out_of_memory
LBB0_311:                               ## %call_destructor.exit750.thread972
	movl	%eax, %r14d
LBB0_312:                               ## %call_destructor.exit750.thread972
	xorl	%edx, %edx
	xorl	%eax, %eax
	movq	%rax, 24(%rsp)                  ## 8-byte Spill
	xorl	%eax, %eax
	movq	%rax, 80(%rsp)                  ## 8-byte Spill
	xorl	%eax, %eax
	movq	%rax, 40(%rsp)                  ## 8-byte Spill
	xorl	%ecx, %ecx
	jmp	LBB0_330
LBB0_313:
	movl	%eax, %r14d
	xorl	%eax, %eax
	movq	%rax, 32(%rsp)                  ## 8-byte Spill
	xorl	%edx, %edx
	xorl	%eax, %eax
	movq	%rax, 24(%rsp)                  ## 8-byte Spill
	xorl	%eax, %eax
	movq	%rax, 80(%rsp)                  ## 8-byte Spill
	xorl	%eax, %eax
	movq	%rax, 40(%rsp)                  ## 8-byte Spill
	movq	48(%rsp), %r12                  ## 8-byte Reload
	movq	64(%rsp), %rsi                  ## 8-byte Reload
	jmp	LBB0_357
LBB0_314:
	movl	%eax, %r14d
	xorl	%eax, %eax
	movq	%rax, 32(%rsp)                  ## 8-byte Spill
	xorl	%edx, %edx
	xorl	%eax, %eax
	movq	%rax, 24(%rsp)                  ## 8-byte Spill
	xorl	%eax, %eax
	movq	%rax, 80(%rsp)                  ## 8-byte Spill
	xorl	%eax, %eax
	movq	%rax, 40(%rsp)                  ## 8-byte Spill
	movq	48(%rsp), %r12                  ## 8-byte Reload
	movq	64(%rsp), %rsi                  ## 8-byte Reload
	movq	%r13, %rcx
	jmp	LBB0_237
LBB0_315:                               ## %"assert failed350"
	xorl	%eax, %eax
	movq	%rax, 32(%rsp)                  ## 8-byte Spill
	xorl	%edi, %edi
	callq	_halide_error_out_of_memory
LBB0_316:                               ## %call_destructor.exit750.thread972
	movl	%eax, %r14d
	xorl	%edx, %edx
	xorl	%eax, %eax
	movq	%rax, 24(%rsp)                  ## 8-byte Spill
	xorl	%eax, %eax
	movq	%rax, 80(%rsp)                  ## 8-byte Spill
	jmp	LBB0_328
LBB0_317:
	movl	%eax, %r14d
	xorl	%eax, %eax
	movq	%rax, 32(%rsp)                  ## 8-byte Spill
	jmp	LBB0_320
LBB0_318:                               ## %"assert failed356"
	xorl	%eax, %eax
	movq	%rax, 32(%rsp)                  ## 8-byte Spill
	xorl	%edi, %edi
	callq	_halide_error_out_of_memory
LBB0_319:                               ## %call_destructor.exit750.thread972
	movl	%eax, %r14d
LBB0_320:                               ## %call_destructor.exit750.thread972
	xorl	%edx, %edx
	xorl	%eax, %eax
	movq	%rax, 24(%rsp)                  ## 8-byte Spill
	xorl	%eax, %eax
	movq	%rax, 80(%rsp)                  ## 8-byte Spill
	jmp	LBB0_329
LBB0_321:                               ## %"assert failed440"
	leaq	l_str.122(%rip), %rsi
	xorl	%eax, %eax
	movq	%rax, 32(%rsp)                  ## 8-byte Spill
	movl	$2147483647, %ecx               ## imm = 0x7FFFFFFF
	xorl	%edi, %edi
	movq	%rbx, %rdx
	callq	_halide_error_buffer_allocation_too_large
	jmp	LBB0_323
LBB0_322:                               ## %"assert failed442"
	xorl	%eax, %eax
	movq	%rax, 32(%rsp)                  ## 8-byte Spill
	xorl	%edi, %edi
	callq	_halide_error_out_of_memory
LBB0_323:                               ## %call_destructor.exit750.thread972
	movl	%eax, %r14d
	xorl	%edx, %edx
	xorl	%eax, %eax
	movq	%rax, 24(%rsp)                  ## 8-byte Spill
	jmp	LBB0_328
LBB0_324:
	movl	%eax, %r14d
	xorl	%eax, %eax
	movq	%rax, 32(%rsp)                  ## 8-byte Spill
	jmp	LBB0_327
LBB0_325:                               ## %"assert failed449"
	xorl	%eax, %eax
	movq	%rax, 32(%rsp)                  ## 8-byte Spill
	xorl	%edi, %edi
	callq	_halide_error_out_of_memory
LBB0_326:                               ## %call_destructor.exit750.thread972
	movl	%eax, %r14d
LBB0_327:                               ## %call_destructor.exit750.thread972
	xorl	%edx, %edx
LBB0_328:                               ## %call_destructor.exit750.thread972
	xorl	%eax, %eax
	movq	%rax, 40(%rsp)                  ## 8-byte Spill
LBB0_329:                               ## %call_destructor.exit750.thread972
	movq	56(%rsp), %rcx                  ## 8-byte Reload
LBB0_330:                               ## %call_destructor.exit750.thread972
	movq	48(%rsp), %r12                  ## 8-byte Reload
	movq	64(%rsp), %rsi                  ## 8-byte Reload
	jmp	LBB0_237
LBB0_331:
	movl	%eax, %r14d
	xorl	%eax, %eax
	movq	%rax, 32(%rsp)                  ## 8-byte Spill
	jmp	LBB0_338
LBB0_332:                               ## %"assert failed454"
	leaq	l_str.124(%rip), %rsi
	xorl	%eax, %eax
	movq	%rax, 32(%rsp)                  ## 8-byte Spill
	movl	$2147483647, %ecx               ## imm = 0x7FFFFFFF
	xorl	%edi, %edi
	movq	%r15, %rdx
	callq	_halide_error_buffer_allocation_too_large
	jmp	LBB0_334
LBB0_333:                               ## %"assert failed456"
	xorl	%eax, %eax
	movq	%rax, 32(%rsp)                  ## 8-byte Spill
	xorl	%edi, %edi
	callq	_halide_error_out_of_memory
LBB0_334:
	movl	%eax, %r14d
	xorl	%eax, %eax
	movq	%rax, 24(%rsp)                  ## 8-byte Spill
	jmp	LBB0_337
LBB0_335:                               ## %"assert failed464"
	xorl	%eax, %eax
	movq	%rax, 24(%rsp)                  ## 8-byte Spill
	xorl	%edi, %edi
	callq	_halide_error_out_of_memory
LBB0_336:                               ## %call_destructor.exit750.thread972
	movl	%eax, %r14d
LBB0_337:                               ## %call_destructor.exit750.thread972
	xorl	%eax, %eax
	movq	%rax, 80(%rsp)                  ## 8-byte Spill
LBB0_338:                               ## %call_destructor.exit750.thread972
	xorl	%eax, %eax
	movq	%rax, 40(%rsp)                  ## 8-byte Spill
LBB0_339:                               ## %call_destructor.exit750.thread972
	movq	56(%rsp), %rcx                  ## 8-byte Reload
	movq	48(%rsp), %r12                  ## 8-byte Reload
	movq	64(%rsp), %rsi                  ## 8-byte Reload
	movq	104(%rsp), %rdx                 ## 8-byte Reload
	jmp	LBB0_237
LBB0_348:                               ## %"assert failed481"
	xorl	%eax, %eax
	movq	%rax, 24(%rsp)                  ## 8-byte Spill
	xorl	%edi, %edi
	callq	_halide_error_out_of_memory
	xorl	%ecx, %ecx
	movq	%rcx, 80(%rsp)                  ## 8-byte Spill
	xorl	%ecx, %ecx
	movq	%rcx, 40(%rsp)                  ## 8-byte Spill
	movl	%eax, %r14d
	jmp	LBB0_339
LBB0_349:
	xorl	%ecx, %ecx
	movq	%rcx, 64(%rsp)                  ## 8-byte Spill
	jmp	LBB0_267
LBB0_350:
	xorl	%ecx, %ecx
	movq	%rcx, 24(%rsp)                  ## 8-byte Spill
	xorl	%ecx, %ecx
	movq	%rcx, 80(%rsp)                  ## 8-byte Spill
	xorl	%ecx, %ecx
	movq	%rcx, 40(%rsp)                  ## 8-byte Spill
	xorl	%esi, %esi
	xorl	%r12d, %r12d
	movl	%eax, %r14d
	movq	56(%rsp), %rcx                  ## 8-byte Reload
	movq	%r15, %rdx
	jmp	LBB0_237
LBB0_351:
	xorl	%ecx, %ecx
	movq	%rcx, 24(%rsp)                  ## 8-byte Spill
	xorl	%edx, %edx
	xorl	%ecx, %ecx
	movq	%rcx, 80(%rsp)                  ## 8-byte Spill
	xorl	%ecx, %ecx
	movq	%rcx, 40(%rsp)                  ## 8-byte Spill
	xorl	%ecx, %ecx
	movq	%rcx, 128(%rsp)                 ## 8-byte Spill
	xorl	%r12d, %r12d
	movl	%eax, %r14d
	xorl	%esi, %esi
	jmp	LBB0_357
LBB0_352:
	xorl	%ecx, %ecx
	movq	%rcx, 32(%rsp)                  ## 8-byte Spill
LBB0_353:
	xorl	%ecx, %ecx
	movq	%rcx, 24(%rsp)                  ## 8-byte Spill
	xorl	%ecx, %ecx
	movq	%rcx, 80(%rsp)                  ## 8-byte Spill
	xorl	%ecx, %ecx
	movq	%rcx, 40(%rsp)                  ## 8-byte Spill
	xorl	%ecx, %ecx
